 zlibwapi

 Timestamp is 627863cc (Sun May  8 19:43:56 2022)

 Preferred load address is 10000000

 Start         Length     Name                   Class
 0001:00000000 00054badH .text$mn                CODE
 0001:00054bad 00000097H .text$x                 CODE
 0002:00000000 00000150H .idata$5                DATA
 0002:00000150 0000000cH .00cfg                  DATA
 0002:0000015c 00000004H .CRT$XCA                DATA
 0002:00000160 00000004H .CRT$XCZ                DATA
 0002:00000164 00000004H .CRT$XIA                DATA
 0002:00000168 00000010H .CRT$XIC                DATA
 0002:00000178 00000004H .CRT$XIZ                DATA
 0002:0000017c 00000004H .CRT$XPA                DATA
 0002:00000180 00000008H .CRT$XPX                DATA
 0002:00000188 00000004H .CRT$XPXA               DATA
 0002:0000018c 00000004H .CRT$XPZ                DATA
 0002:00000190 00000004H .CRT$XTA                DATA
 0002:00000194 0000000cH .CRT$XTZ                DATA
 0002:00000198 00000000H .gfids$y                DATA
 0002:000001a0 0000c4a0H .rdata                  DATA
 0002:0000c640 00000040H .rdata$CastGuardVftablesA DATA
 0002:0000c680 00000040H .rdata$CastGuardVftablesC DATA
 0002:0000c6c0 000002a0H .rdata$r                DATA
 0002:0000c960 0000011cH .rdata$voltmd           DATA
 0002:0000ca7c 00000378H .rdata$zzzdbg           DATA
 0002:0000cdf4 00000004H .rtc$IAA                DATA
 0002:0000cdf8 00000004H .rtc$IZZ                DATA
 0002:0000cdfc 00000004H .rtc$TAA                DATA
 0002:0000ce00 00000008H .rtc$TZZ                DATA
 0002:0000ce08 00000aa8H .xdata$x                DATA
 0002:0000d8b0 00000cfcH .edata                  DATA
 0002:0000e5ac 00000014H .idata$2                DATA
 0002:0000e5c0 00000014H .idata$3                DATA
 0002:0000e5d4 00000150H .idata$4                DATA
 0002:0000e724 0000061cH .idata$6                DATA
 0003:00000000 000008b0H .data                   DATA
 0003:000008b0 00000058H .data$r                 DATA
 0003:00000908 000000b8H .data$rs                DATA
 0003:000009c0 000012c8H .bss                    DATA
 0004:00000000 00000060H .rsrc$01                DATA
 0004:00000060 00000338H .rsrc$02                DATA

  Address         Publics by Value              Rva+Base       Lib:Object

 0000:00000000       ___hybrid_code_map_count   00000000     <absolute>
 0000:00000000       ___guard_fids_table        00000000     <absolute>
 0000:00000000       ___x64_code_ranges_to_entry_points 00000000     <absolute>
 0000:00000000       ___safe_se_handler_count   00000000     <absolute>
 0000:00000000       ___guard_eh_cont_table     00000000     <absolute>
 0000:00000000       ___AbsoluteZero            00000000     <absolute>
 0000:00000000       ___arm64x_native_entrypoint 00000000     <absolute>
 0000:00000000       ___guard_iat_count         00000000     <absolute>
 0000:00000000       __except_list              00000000     <absolute>
 0000:00000000       ___enclave_config          00000000     <absolute>
 0000:00000000       ___arm64x_extra_rfe_table_size 00000000     <absolute>
 0000:00000000       ___safe_se_handler_table   00000000     <absolute>
 0000:00000000       ___guard_fids_count        00000000     <absolute>
 0000:00000000       ___guard_iat_table         00000000     <absolute>
 0000:00000000       ___dynamic_value_reloc_table 00000000     <absolute>
 0000:00000000       ___arm64x_redirection_metadata 00000000     <absolute>
 0000:00000000       ___x64_code_ranges_to_entry_points_count 00000000     <absolute>
 0000:00000000       ___guard_longjmp_table     00000000     <absolute>
 0000:00000000       ___hybrid_code_map         00000000     <absolute>
 0000:00000000       ___hybrid_auxiliary_iat    00000000     <absolute>
 0000:00000000       ___guard_longjmp_count     00000000     <absolute>
 0000:00000000       ___guard_eh_cont_count     00000000     <absolute>
 0000:00000000       ___hybrid_auxiliary_iat_copy 00000000     <absolute>
 0000:00000000       ___arm64x_extra_rfe_table  00000000     <absolute>
 0000:00000000       ___guard_check_icall_a64n_fptr 00000000     <absolute>
 0000:00000000       ___arm64x_redirection_metadata_count 00000000     <absolute>
 0000:00000100       ___guard_flags             00000100     <absolute>
 0000:00000000       ___ImageBase               10000000     <linker-defined>
 0001:00000000       _adler32_z@12              10001000 f   adler32.obj
 0001:00000280       _adler32@12                10001280 f   adler32.obj
 0001:000003c0       _adler32_combine@12        100013c0 f   adler32.obj
 0001:000003e0       _compress2@20              100013e0 f   compress.obj
 0001:000004c0       _compress@16               100014c0 f   compress.obj
 0001:000004e0       _compressBound@4           100014e0 f   compress.obj
 0001:00000500       _get_crc_table@0           10001500 f   crc32.obj
 0001:00000510       _crc32_z@12                10001510 f   crc32.obj
 0001:00000540       _crc32@12                  10001540 f   crc32.obj
 0001:00000c10       _crc32_combine@12          10001c10 f   crc32.obj
 0001:00000ca0       _deflateInit_@16           10001ca0 f   deflate.obj
 0001:00000cc0       _deflateInit2_@32          10001cc0 f   deflate.obj
 0001:00000f60       _deflateSetDictionary@12   10001f60 f   deflate.obj
 0001:00001100       _deflateGetDictionary@12   10002100 f   deflate.obj
 0001:00001160       _deflateResetKeep@4        10002160 f   deflate.obj
 0001:00001200       _deflateReset@4            10002200 f   deflate.obj
 0001:00001230       _deflateSetHeader@8        10002230 f   deflate.obj
 0001:00001260       _deflatePending@12         10002260 f   deflate.obj
 0001:000012a0       _deflatePrime@12           100022a0 f   deflate.obj
 0001:00001340       _deflateParams@12          10002340 f   deflate.obj
 0001:000014a0       _deflateTune@20            100024a0 f   deflate.obj
 0001:000014f0       _deflateBound@8            100024f0 f   deflate.obj
 0001:00001660       _deflate@8                 10002660 f   deflate.obj
 0001:00001f70       _deflateEnd@4              10002f70 f   deflate.obj
 0001:00002020       _deflateCopy@8             10003020 f   deflate.obj
 0001:000032f0       _gzclose@4                 100042f0 f   gzclose.obj
 0001:00003320       ___local_stdio_printf_options 10004320 f i gzlib.obj
 0001:00003330       _vsnprintf                 10004330 f i gzlib.obj
 0001:00003370       _snprintf                  10004370 f i gzlib.obj
 0001:00003720       _gzopen@8                  10004720 f   gzlib.obj
 0001:00003740       _gzdopen@8                 10004740 f   gzlib.obj
 0001:000037a0       _gzopen_w@8                100047a0 f   gzlib.obj
 0001:000037c0       _gzbuffer@8                100047c0 f   gzlib.obj
 0001:00003810       _gzrewind@4                10004810 f   gzlib.obj
 0001:00003870       _gzseek64@16               10004870 f   gzlib.obj
 0001:00003a20       _gzseek@12                 10004a20 f   gzlib.obj
 0001:00003a60       _gztell64@4                10004a60 f   gzlib.obj
 0001:00003ac0       _gztell@4                  10004ac0 f   gzlib.obj
 0001:00003af0       _gzoffset64@4              10004af0 f   gzlib.obj
 0001:00003b40       _gzoffset@4                10004b40 f   gzlib.obj
 0001:00003b70       _gzeof@4                   10004b70 f   gzlib.obj
 0001:00003ba0       _gzerror@8                 10004ba0 f   gzlib.obj
 0001:00003bf0       _gzclearerr@4              10004bf0 f   gzlib.obj
 0001:00003c40       _gz_error                  10004c40 f   gzlib.obj
 0001:00004310       _gzread@12                 10005310 f   gzread.obj
 0001:00004380       _gzfread@16                10005380 f   gzread.obj
 0001:00004400       _gzgetc@4                  10005400 f   gzread.obj
 0001:00004470       _gzgetc_@4                 10005470 f   gzread.obj
 0001:00004480       _gzungetc@8                10005480 f   gzread.obj
 0001:00004580       _gzgets@12                 10005580 f   gzread.obj
 0001:000046a0       _gzdirect@4                100056a0 f   gzread.obj
 0001:000046e0       _gzclose_r@4               100056e0 f   gzread.obj
 0001:00004b50       _gzwrite@12                10005b50 f   gzwrite.obj
 0001:00004ba0       _gzfwrite@16               10005ba0 f   gzwrite.obj
 0001:00004c10       _gzputc@8                  10005c10 f   gzwrite.obj
 0001:00004cd0       _gzputs@8                  10005cd0 f   gzwrite.obj
 0001:00004d20       _gzvprintf                 10005d20 f   gzwrite.obj
 0001:00004e50       _gzprintf                  10005e50 f   gzwrite.obj
 0001:00004e70       _gzflush@8                 10005e70 f   gzwrite.obj
 0001:00004ee0       _gzsetparams@12            10005ee0 f   gzwrite.obj
 0001:00004fa0       _gzclose_w@4               10005fa0 f   gzwrite.obj
 0001:00005070       _inflateBackInit_@20       10006070 f   infback.obj
 0001:00005170       _inflateBack@20            10006170 f   infback.obj
 0001:00005f20       _inflateBackEnd@4          10006f20 f   infback.obj
 0001:00005fa0       _inflateResetKeep@4        10006fa0 f   inflate.obj
 0001:00006040       _inflateReset@4            10007040 f   inflate.obj
 0001:00006080       _inflateReset2@8           10007080 f   inflate.obj
 0001:00006110       _inflateInit2_@16          10007110 f   inflate.obj
 0001:000061e0       _inflateInit_@12           100071e0 f   inflate.obj
 0001:00006200       _inflatePrime@12           10007200 f   inflate.obj
 0001:00006390       _inflate@8                 10007390 f   inflate.obj
 0001:00007b30       _inflateEnd@4              10008b30 f   inflate.obj
 0001:00007b90       _inflateGetDictionary@12   10008b90 f   inflate.obj
 0001:00007c00       _inflateSetDictionary@12   10008c00 f   inflate.obj
 0001:00007ca0       _inflateGetHeader@8        10008ca0 f   inflate.obj
 0001:00007d60       _inflateSync@4             10008d60 f   inflate.obj
 0001:00007e60       _inflateSyncPoint@4        10008e60 f   inflate.obj
 0001:00007ea0       _inflateCopy@8             10008ea0 f   inflate.obj
 0001:00008000       _inflateUndermine@8        10009000 f   inflate.obj
 0001:00008030       _inflateValidate@8         10009030 f   inflate.obj
 0001:00008070       _inflateMark@4             10009070 f   inflate.obj
 0001:000080e0       _inflateCodesUsed@4        100090e0 f   inflate.obj
 0001:00008110       _inflate_table             10009110 f   inftrees.obj
 0001:000085f0       _call_zopen64              100095f0 f   ioapi.obj
 0001:00008610       _call_zseek64              10009610 f   ioapi.obj
 0001:00008660       _call_ztell64              10009660 f   ioapi.obj
 0001:00008690       _fill_zlib_filefunc64_32_def_from_filefunc32 10009690 f   ioapi.obj
 0001:000088a0       _fill_fopen64_filefunc     100098a0 f   ioapi.obj
 0001:00008990       _win32_open64_file_func    10009990 f   iowin32.obj
 0001:000089f0       _win32_open64_file_funcA   100099f0 f   iowin32.obj
 0001:00008a50       _win32_open64_file_funcW   10009a50 f   iowin32.obj
 0001:00008ab0       _win32_open_file_func      10009ab0 f   iowin32.obj
 0001:00008b10       _win32_read_file_func      10009b10 f   iowin32.obj
 0001:00008b60       _win32_write_file_func     10009b60 f   iowin32.obj
 0001:00008c10       _win32_tell_file_func      10009c10 f   iowin32.obj
 0001:00008c60       _win32_tell64_file_func    10009c60 f   iowin32.obj
 0001:00008cc0       _win32_seek_file_func      10009cc0 f   iowin32.obj
 0001:00008d30       _win32_seek64_file_func    10009d30 f   iowin32.obj
 0001:00008db0       _win32_close_file_func     10009db0 f   iowin32.obj
 0001:00008de0       _win32_error_file_func     10009de0 f   iowin32.obj
 0001:00008e00       _fill_win32_filefunc       10009e00 f   iowin32.obj
 0001:00008e40       _fill_win32_filefunc64     10009e40 f   iowin32.obj
 0001:00008e80       _fill_win32_filefunc64A    10009e80 f   iowin32.obj
 0001:00008ec0       _fill_win32_filefunc64W    10009ec0 f   iowin32.obj
 0001:00008f10       __tr_init                  10009f10 f   trees.obj
 0001:00009ef0       __tr_stored_block          1000aef0 f   trees.obj
 0001:00009ff0       __tr_flush_bits            1000aff0 f   trees.obj
 0001:0000a000       __tr_align                 1000b000 f   trees.obj
 0001:0000a0e0       __tr_flush_block           1000b0e0 f   trees.obj
 0001:0000a8c0       _uncompress2@16            1000b8c0 f   uncompr.obj
 0001:0000a9f0       _uncompress@16             1000b9f0 f   uncompr.obj
 0001:0000ad70       _unzStringFileNameCompare@12 1000bd70 f   unzip.obj
 0001:0000b650       _unzOpen2@8                1000c650 f   unzip.obj
 0001:0000b6a0       _unzOpen2_64@8             1000c6a0 f   unzip.obj
 0001:0000b700       _unzOpen@4                 1000c700 f   unzip.obj
 0001:0000b720       _unzOpen64@4               1000c720 f   unzip.obj
 0001:0000b740       _unzClose@4                1000c740 f   unzip.obj
 0001:0000b780       _unzGetGlobalInfo64@8      1000c780 f   unzip.obj
 0001:0000b7b0       _unzGetGlobalInfo@8        1000c7b0 f   unzip.obj
 0001:0000be30       _unzGetCurrentFileInfo64@32 1000ce30 f   unzip.obj
 0001:0000be60       _unzGetCurrentFileInfo@32  1000ce60 f   unzip.obj
 0001:0000bf20       _unzGoToFirstFile@4        1000cf20 f   unzip.obj
 0001:0000bf90       _unzGoToNextFile@4         1000cf90 f   unzip.obj
 0001:0000c040       _unzLocateFile@12          1000d040 f   unzip.obj
 0001:0000c1f0       _unzGetFilePos64@8         1000d1f0 f   unzip.obj
 0001:0000c240       _unzGetFilePos@8           1000d240 f   unzip.obj
 0001:0000c270       _unzGoToFilePos64@8        1000d270 f   unzip.obj
 0001:0000c2e0       _unzGoToFilePos@8          1000d2e0 f   unzip.obj
 0001:0000c580       _unzOpenCurrentFile3@20    1000d580 f   unzip.obj
 0001:0000c800       _unzOpenCurrentFile@4      1000d800 f   unzip.obj
 0001:0000c820       _unzOpenCurrentFilePassword@8 1000d820 f   unzip.obj
 0001:0000c840       _unzOpenCurrentFile2@16    1000d840 f   unzip.obj
 0001:0000c860       _unzGetCurrentFileZStreamPos64@4 1000d860 f   unzip.obj
 0001:0000c8a0       _unzReadCurrentFile@12     1000d8a0 f   unzip.obj
 0001:0000cb60       _unztell@4                 1000db60 f   unzip.obj
 0001:0000cb90       _unztell64@4               1000db90 f   unzip.obj
 0001:0000cbc0       _unzeof@4                  1000dbc0 f   unzip.obj
 0001:0000cc00       _unzGetLocalExtrafield@12  1000dc00 f   unzip.obj
 0001:0000ccd0       _unzCloseCurrentFile@4     1000dcd0 f   unzip.obj
 0001:0000cd60       _unzGetGlobalComment@12    1000dd60 f   unzip.obj
 0001:0000d970       _LoadCentralDirectoryRecord 1000e970 f   zip.obj
 0001:0000de30       _zipOpen3@16               1000ee30 f   zip.obj
 0001:0000dfa0       _zipOpen2@16               1000efa0 f   zip.obj
 0001:0000dff0       _zipOpen2_64@16            1000eff0 f   zip.obj
 0001:0000e050       _zipOpen@8                 1000f050 f   zip.obj
 0001:0000e070       _zipOpen64@8               1000f070 f   zip.obj
 0001:0000e090       _Write_LocalFileHeader     1000f090 f   zip.obj
 0001:0000e2d0       _zipOpenNewFileInZip4_64@76 1000f2d0 f   zip.obj
 0001:0000e820       _zipOpenNewFileInZip3@64   1000f820 f   zip.obj
 0001:0000e870       _zipOpenNewFileInZip3_64@68 1000f870 f   zip.obj
 0001:0000e8c0       _zipOpenNewFileInZip2@44   1000f8c0 f   zip.obj
 0001:0000e900       _zipOpenNewFileInZip2_64@48 1000f900 f   zip.obj
 0001:0000e940       _zipOpenNewFileInZip64@44  1000f940 f   zip.obj
 0001:0000e980       _zipOpenNewFileInZip@40    1000f980 f   zip.obj
 0001:0000ea80       _zipWriteInFileInZip@12    1000fa80 f   zip.obj
 0001:0000ebd0       _zipCloseFileInZipRaw@12   1000fbd0 f   zip.obj
 0001:0000ebf0       _zipCloseFileInZipRaw64@16 1000fbf0 f   zip.obj
 0001:0000f140       _zipCloseFileInZip@4       10010140 f   zip.obj
 0001:0000f160       _Write_Zip64EndOfCentralDirectoryLocator 10010160 f   zip.obj
 0001:0000f1e0       _Write_Zip64EndOfCentralDirectoryRecord 100101e0 f   zip.obj
 0001:0000f300       _Write_EndOfCentralDirectoryRecord 10010300 f   zip.obj
 0001:0000f430       _Write_GlobalComment       10010430 f   zip.obj
 0001:0000f4a0       _zipClose@8                100104a0 f   zip.obj
 0001:0000f630       _zlibVersion@0             10010630 f   zutil.obj
 0001:0000f640       _zlibCompileFlags@0        10010640 f   zutil.obj
 0001:0000f650       _zError@4                  10010650 f   zutil.obj
 0001:0000f670       _zcalloc                   10010670 f   zutil.obj
 0001:0000f690       _zcfree                    10010690 f   zutil.obj
 0001:0000f6a0       _longest_match             100106a0 f   match686.obj
 0001:0000f884       _match_init                10010884 f   match686.obj
 0001:0000f990       _inflate_fast              10010990 f   inffas32.obj
 0001:00010023       _ReadFile@20               10011023 f   kernel32:KERNEL32.dll
 0001:00010029       _WriteFile@20              10011029 f   kernel32:KERNEL32.dll
 0001:0001002f       _SetFilePointer@16         1001102f f   kernel32:KERNEL32.dll
 0001:00010035       _CreateFileW@28            10011035 f   kernel32:KERNEL32.dll
 0001:0001003b       _GetLastError@0            1001103b f   kernel32:KERNEL32.dll
 0001:00010041       _CreateFileA@28            10011041 f   kernel32:KERNEL32.dll
 0001:00010047       _CloseHandle@4             10011047 f   kernel32:KERNEL32.dll
 0001:0001038d       __CRT_INIT@12              1001138d f   LIBCMT:dll_dllmain.obj
 0001:00010396       __DllMainCRTStartup@12     10011396 f   LIBCMT:dll_dllmain.obj
 0001:00010406       ___security_init_cookie    10011406 f   LIBCMT:gs_support.obj
 0001:00010451       _DllMain@12                10011451 f   LIBCMT:dll_dllmain_stub.obj
 0001:00010457       ?__scrt_initialize_type_info@@YAXXZ 10011457 f   LIBCMT:tncleanup.obj
 0001:00010463       ?__scrt_uninitialize_type_info@@YAXXZ 10011463 f   LIBCMT:tncleanup.obj
 0001:0001046f       ___local_stdio_scanf_options 1001146f f i LIBCMT:default_local_stdio_options.obj
 0001:00010475       ___scrt_initialize_default_local_stdio_options 10011475 f   LIBCMT:default_local_stdio_options.obj
 0001:00010492       ?configure_argv@__scrt_narrow_argv_policy@@SAHXZ 10011492 f i LIBCMT:utility.obj
 0001:000104e3       ?initialize_environment@__scrt_narrow_environment_policy@@SAHXZ 100114e3 f i LIBCMT:utility.obj
 0001:0001051b       _NtCurrentTeb              1001151b f i LIBCMT:utility.obj
 0001:00010522       ___scrt_acquire_startup_lock 10011522 f   LIBCMT:utility.obj
 0001:00010554       ___scrt_dllmain_after_initialize_c 10011554 f   LIBCMT:utility.obj
 0001:0001057f       ___scrt_dllmain_before_initialize_c 1001157f f   LIBCMT:utility.obj
 0001:0001058d       ___scrt_dllmain_crt_thread_attach 1001158d f   LIBCMT:utility.obj
 0001:000105ac       ___scrt_dllmain_crt_thread_detach 100115ac f   LIBCMT:utility.obj
 0001:000105b9       ___scrt_dllmain_exception_filter 100115b9 f   LIBCMT:utility.obj
 0001:000105ed       ___scrt_dllmain_uninitialize_c 100115ed f   LIBCMT:utility.obj
 0001:00010610       ___scrt_dllmain_uninitialize_critical 10011610 f   LIBCMT:utility.obj
 0001:0001061d       ___scrt_initialize_crt     1001161d f   LIBCMT:utility.obj
 0001:00010656       ___scrt_initialize_onexit_tables 10011656 f   LIBCMT:utility.obj
 0001:000106dd       ___scrt_is_nonwritable_in_current_image 100116dd f   LIBCMT:utility.obj
 0001:00010771       ___scrt_release_startup_lock 10011771 f   LIBCMT:utility.obj
 0001:0001078e       ___scrt_uninitialize_crt   1001178e f   LIBCMT:utility.obj
 0001:000107b6       __onexit                   100117b6 f   LIBCMT:utility.obj
 0001:000107e3       _at_quick_exit             100117e3 f   LIBCMT:utility.obj
 0001:00010806       _atexit                    10011806 f   LIBCMT:utility.obj
 0001:0001081b       ___scrt_get_dyn_tls_init_callback 1001181b f   LIBCMT:dyn_tls_init.obj
 0001:00010821       ___scrt_fastfail           10011821 f   LIBCMT:utility_desktop.obj
 0001:0001093c       ___scrt_get_show_window_mode 1001193c f   LIBCMT:utility_desktop.obj
 0001:0001096d       ___scrt_initialize_mta     1001196d f   LIBCMT:utility_desktop.obj
 0001:00010972       ___scrt_initialize_winrt   10011972 f   LIBCMT:utility_desktop.obj
 0001:00010975       ___scrt_is_managed_app     10011975 f   LIBCMT:utility_desktop.obj
 0001:000109b7       ___scrt_set_unhandled_exception_filter 100119b7 f   LIBCMT:utility_desktop.obj
 0001:000109c3       ___scrt_exe_initialize_mta 100119c3 f   LIBCMT:utility_desktop.obj
 0001:000109c3       ___scrt_stub_for_initialize_mta 100119c3 f   LIBCMT:utility_desktop.obj
 0001:000109c6       ___scrt_unhandled_exception_filter@4 100119c6 f   LIBCMT:utility_desktop.obj
 0001:00010a1c       __crt_debugger_hook        10011a1c f   LIBCMT:utility_desktop.obj
 0001:00010a24       __RTC_Initialize           10011a24 f   LIBCMT:initsect.obj
 0001:00010a50       __RTC_Terminate            10011a50 f   LIBCMT:initsect.obj
 0001:00010a80       __SEH_prolog4              10011a80 f   LIBCMT:sehprolg4.obj
 0001:00010ad0       __SEH_epilog4              10011ad0 f   LIBCMT:sehprolg4.obj
 0001:00010ae4       @_guard_check_icall_nop@4  10011ae4 f i LIBCMT:guard_support.obj
 0001:00010ae7       _ReadNoFence               10011ae7 f i LIBCMT:guard_support.obj
 0001:00010af1       _ReadPointerNoFence        10011af1 f i LIBCMT:guard_support.obj
 0001:00010afb       ___castguard_check_failure_debugbreak 10011afb f i LIBCMT:guard_support.obj
 0001:00010b16       ___castguard_check_failure_fastfail 10011b16 f i LIBCMT:guard_support.obj
 0001:00010b35       ___castguard_check_failure_nop 10011b35 f i LIBCMT:guard_support.obj
 0001:00010b38       ___castguard_check_failure_os_handled 10011b38 f i LIBCMT:guard_support.obj
 0001:00010b94       ___castguard_slow_path_check_debugbreak 10011b94 f i LIBCMT:guard_support.obj
 0001:00010bc1       ___castguard_slow_path_check_fastfail 10011bc1 f i LIBCMT:guard_support.obj
 0001:00010bf2       ___castguard_slow_path_check_nop 10011bf2 f i LIBCMT:guard_support.obj
 0001:00010bf5       ___castguard_slow_path_check_os_handled 10011bf5 f i LIBCMT:guard_support.obj
 0001:00010c50       __guard_icall_checks_enforced 10011c50 f i LIBCMT:guard_support.obj
 0001:00010c62       ___isa_available_init      10011c62 f   LIBCMT:cpu_disp.obj
 0001:00010e36       __get_startup_argv_mode    10011e36 f   LIBCMT:argv_mode.obj
 0001:00010e3a       ___scrt_is_ucrt_dll_in_use 10011e3a f   LIBCMT:ucrt_detection.obj
 0001:00010e46       @__security_check_cookie@4 10011e46 f   LIBCMT:secchk.obj
 0001:00010e54       ___raise_securityfailure   10011e54 f   LIBCMT:gs_report.obj
 0001:00010e7c       ___report_gsfailure        10011e7c f   LIBCMT:gs_report.obj
 0001:00010f76       ___report_rangecheckfailure 10011f76 f   LIBCMT:gs_report.obj
 0001:00010f82       ___report_securityfailure  10011f82 f   LIBCMT:gs_report.obj
 0001:00011051       ___report_securityfailureEx 10012051 f   LIBCMT:gs_report.obj
 0001:000111b0       __except_handler4          100121b0 f   libvcruntime:chandler4.obj
 0001:0001131c       ??$?RD@__crt_internal_free_policy@@QBEXQBD@Z 1001231c f i libvcruntime:std_type_info.obj
 0001:0001132c       ??$?RX@__crt_internal_free_policy@@QBEXQBX@Z 1001232c f i libvcruntime:std_type_info.obj
 0001:0001133c       ??$__crt_interlocked_compare_exchange_pointer@$$CBDPAD$$T@@YAPBDPDSBDQAD$$T@Z 1001233c f i libvcruntime:std_type_info.obj
 0001:0001134e       ??$__crt_interlocked_read_pointer@$$CBD@@YAPBDPDSBD@Z 1001234e f i libvcruntime:std_type_info.obj
 0001:00011359       ??0?$__crt_unique_heap_ptr@DU__crt_internal_free_policy@@@@QAE@QAD@Z 10012359 f i libvcruntime:std_type_info.obj
 0001:00011367       ??0?$__crt_unique_heap_ptr@XU__crt_internal_free_policy@@@@QAE@QAX@Z 10012367 f i libvcruntime:std_type_info.obj
 0001:00011375       ??1?$__crt_unique_heap_ptr@DU__crt_internal_free_policy@@@@QAE@XZ 10012375 f i libvcruntime:std_type_info.obj
 0001:00011385       ??1?$__crt_unique_heap_ptr@XU__crt_internal_free_policy@@@@QAE@XZ 10012385 f i libvcruntime:std_type_info.obj
 0001:00011395       ??B?$__crt_unique_heap_ptr@DU__crt_internal_free_policy@@@@QBE_NXZ 10012395 f i libvcruntime:std_type_info.obj
 0001:0001139c       ??B?$__crt_unique_heap_ptr@XU__crt_internal_free_policy@@@@QBE_NXZ 1001239c f i libvcruntime:std_type_info.obj
 0001:000113cf       ?__crt_interlocked_read_32@@YAHPDH@Z 100123cf f i libvcruntime:std_type_info.obj
 0001:000113da       ?detach@?$__crt_unique_heap_ptr@XU__crt_internal_free_policy@@@@QAEPAXXZ 100123da f i libvcruntime:std_type_info.obj
 0001:000113e0       ?get@?$__crt_unique_heap_ptr@DU__crt_internal_free_policy@@@@QBEPADXZ 100123e0 f i libvcruntime:std_type_info.obj
 0001:000113e3       ?get@?$__crt_unique_heap_ptr@XU__crt_internal_free_policy@@@@QBEPAXXZ 100123e3 f i libvcruntime:std_type_info.obj
 0001:000113e6       ?is_valid@?$__crt_unique_heap_ptr@DU__crt_internal_free_policy@@@@QBE_NXZ 100123e6 f i libvcruntime:std_type_info.obj
 0001:000113ed       ?is_valid@?$__crt_unique_heap_ptr@XU__crt_internal_free_policy@@@@QBE_NXZ 100123ed f i libvcruntime:std_type_info.obj
 0001:000113f4       ?release@?$__crt_unique_heap_ptr@DU__crt_internal_free_policy@@@@QAEXXZ 100123f4 f i libvcruntime:std_type_info.obj
 0001:00011404       ?release@?$__crt_unique_heap_ptr@XU__crt_internal_free_policy@@@@QAEXXZ 10012404 f i libvcruntime:std_type_info.obj
 0001:00011414       ___std_type_info_compare   10012414 f   libvcruntime:std_type_info.obj
 0001:00011450       ___std_type_info_destroy_list 10012450 f   libvcruntime:std_type_info.obj
 0001:00011473       ___std_type_info_hash      10012473 f   libvcruntime:std_type_info.obj
 0001:00011499       ___std_type_info_name      10012499 f   libvcruntime:std_type_info.obj
 0001:0001155f       ___vcrt_initialize         1001255f f   libvcruntime:initialization.obj
 0001:0001157e       ___vcrt_thread_attach      1001257e f   libvcruntime:initialization.obj
 0001:00011589       ___vcrt_thread_detach      10012589 f   libvcruntime:initialization.obj
 0001:00011594       ___vcrt_uninitialize       10012594 f   libvcruntime:initialization.obj
 0001:000115ab       ___vcrt_uninitialize_critical 100125ab f   libvcruntime:initialization.obj
 0001:000115b6       ___DestructExceptionObject 100125b6 f   libvcruntime:ehhelpers.obj
 0001:00011657       ?_CallMemberFunction0@@YGXQAX0@Z 10012657 f i libvcruntime:ehhelpers.obj
 0001:000116bc       ?raw_name@type_info@@QBEPBDXZ 100126bc f i libvcruntime:ehhelpers.obj
 0001:000116c0       __IsExceptionObjectToBeDestroyed 100126c0 f   libvcruntime:ehhelpers.obj
 0001:000116e6       __SetWinRTOutOfMemoryExceptionCallback 100126e6 f   libvcruntime:ehhelpers.obj
 0001:000116f3       ___AdjustPointer           100126f3 f   libvcruntime:ehhelpers.obj
 0001:00011718       ___FrameUnwindFilter       10012718 f   libvcruntime:ehhelpers.obj
 0001:0001176e       ___GetPlatformExceptionInfo 1001276e f   libvcruntime:ehhelpers.obj
 0001:000117ba       ___current_exception       100127ba f   libvcruntime:ehhelpers.obj
 0001:000117c3       ___current_exception_context 100127c3 f   libvcruntime:ehhelpers.obj
 0001:000117cc       ___processing_throw        100127cc f   libvcruntime:ehhelpers.obj
 0001:000117d5       ___std_terminate           100127d5 f   libvcruntime:ehhelpers.obj
 0001:000117da       __is_exception_typeof      100127da f   libvcruntime:ehhelpers.obj
 0001:00011880       _memset                    10012880 f   libvcruntime:memset.obj
 0001:000119e0       __local_unwind4            100129e0 f   libvcruntime:exsup4.obj
 0001:00011ad0       __seh_longjmp_unwind4@4    10012ad0 f   libvcruntime:exsup4.obj
 0001:00011b00       @_EH4_CallFilterFunc@8     10012b00 f   libvcruntime:exsup4.obj
 0001:00011b20       @_EH4_TransferToHandler@8  10012b20 f   libvcruntime:exsup4.obj
 0001:00011b40       @_EH4_GlobalUnwind2@8      10012b40 f   libvcruntime:exsup4.obj
 0001:00011b60       @_EH4_LocalUnwind@16       10012b60 f   libvcruntime:exsup4.obj
 0001:00011b82       ___except_validate_context_record 10012b82 f   libvcruntime:jbcxrval.obj
 0001:00011bb2       ___except_validate_jump_buffer 10012bb2 f   libvcruntime:jbcxrval.obj
 0001:00011bdf       ___except_validate_jump_buffer_common 10012bdf f i libvcruntime:jbcxrval.obj
 0001:00011c18       ??$?0$00@DName@@QAE@PBDU?$StringLifeSelector@$00@@@Z 10012c18 f i libvcruntime:undname.obj
 0001:00011c4b       ??$?0$00@pcharNode@@QAE@PBDHU?$StringLifeSelector@$00@@@Z 10012c4b f i libvcruntime:undname.obj
 0001:00011c66       ??$?0$01@DName@@QAE@PBDU?$StringLifeSelector@$01@@@Z 10012c66 f i libvcruntime:undname.obj
 0001:00011c99       ??$?0$01@pcharNode@@QAE@PBDHU?$StringLifeSelector@$01@@@Z 10012c99 f i libvcruntime:undname.obj
 0001:00011cd9       ??$?0$0A@@DName@@QAE@PBDU?$StringLifeSelector@$0A@@@@Z 10012cd9 f i libvcruntime:undname.obj
 0001:00011d0c       ??$?0$0A@@pcharNode@@QAE@PBDHU?$StringLifeSelector@$0A@@@@Z 10012d0c f i libvcruntime:undname.obj
 0001:00011d4c       ??$?0_K$0A@@?$optional@_K@std@@QAE@$$QA_K@Z 10012d4c f i libvcruntime:undname.obj
 0001:00011d66       ??$?0_K@?$_Optional_construct_base@_K@std@@QAE@Uin_place_t@1@$$QA_K@Z 10012d66 f i libvcruntime:undname.obj
 0001:00011d80       ??$?0_K@?$_Optional_destruct_base@_K$00@std@@QAE@Uin_place_t@1@$$QA_K@Z 10012d80 f i libvcruntime:undname.obj
 0001:00011d9a       ??$append@VDNameNode@@@DName@@AAEXPBVDNameNode@@@Z 10012d9a f i libvcruntime:undname.obj
 0001:00011ddb       ??$append@VDNameStatusNode@@@DName@@AAEXPBVDNameStatusNode@@@Z 10012ddb f i libvcruntime:undname.obj
 0001:00011e1c       ??$append@VcharNode@@@DName@@AAEXPBVcharNode@@@Z 10012e1c f i libvcruntime:undname.obj
 0001:00011e5d       ??$append@VpDNameNode@@@DName@@AAEXPBVpDNameNode@@@Z 10012e5d f i libvcruntime:undname.obj
 0001:00011e9e       ??$append@VpcharNode@@@DName@@AAEXPBVpcharNode@@@Z 10012e9e f i libvcruntime:undname.obj
 0001:00011edf       ??$doPchar@$00@DName@@AAEXPBDH@Z 10012edf f i libvcruntime:undname.obj
 0001:00011f4a       ??$doPchar@$01@DName@@AAEXPBDH@Z 10012f4a f i libvcruntime:undname.obj
 0001:00011fbb       ??$doPchar@$0A@@DName@@AAEXPBDH@Z 10012fbb f i libvcruntime:undname.obj
 0001:0001202c       ??$forward@_K@std@@YA$$QA_KAA_K@Z 1001302c f i libvcruntime:undname.obj
 0001:000120f0       ??$size@D$04@std@@YAIAAY04$$CBD@Z 100130f0 f i libvcruntime:undname.obj
 0001:000120f4       ??0?$_Optional_construct_base@_K@std@@QAE@XZ 100130f4 f i libvcruntime:undname.obj
 0001:000120fb       ??0?$_Optional_destruct_base@_K$00@std@@QAE@XZ 100130fb f i libvcruntime:undname.obj
 0001:00012102       ??0?$optional@_K@std@@QAE@XZ 10013102 f i libvcruntime:undname.obj
 0001:00012109       ??0Block@_HeapManager@@QAE@XZ 10013109 f i libvcruntime:undname.obj
 0001:0001210f       ??0DName@@QAE@AAPBDD@Z     1001310f f   libvcruntime:undname.obj
 0001:0001218f       ??0DName@@QAE@ABUStringLiteral@@@Z 1001318f f   libvcruntime:undname.obj
 0001:000121b6       ??0DName@@QAE@ABV0@@Z      100131b6 f i libvcruntime:undname.obj
 0001:000121cc       ??0DName@@QAE@D@Z          100131cc f   libvcruntime:undname.obj
 0001:000121e8       ??0DName@@QAE@PAV0@@Z      100131e8 f   libvcruntime:undname.obj
 0001:00012231       ??0DName@@QAE@W4DNameStatus@@@Z 10013231 f   libvcruntime:undname.obj
 0001:00012271       ??0DName@@QAE@XZ           10013271 f i libvcruntime:undname.obj
 0001:0001227b       ??0DName@@QAE@_J@Z         1001327b f   libvcruntime:undname.obj
 0001:0001230e       ??0DName@@QAE@_K@Z         1001330e f   libvcruntime:undname.obj
 0001:00012380       ??0DNameNode@@IAE@XZ       10013380 f i libvcruntime:undname.obj
 0001:00012389       ??0Replicator@@QAE@XZ      10013389 f i libvcruntime:undname.obj
 0001:00012398       ??0UnDecorator@@QAE@PBDP6APADJ@ZK@Z 10013398 f i libvcruntime:undname.obj
 0001:000123e4       ??0_Nontrivial_dummy_type@std@@QAE@XZ 100133e4 f i libvcruntime:undname.obj
 0001:000123e7       ??0charNode@@QAE@D@Z       100133e7 f i libvcruntime:undname.obj
 0001:000123fc       ??0pDNameNode@@QAE@PAVDName@@@Z 100133fc f   libvcruntime:undname.obj
 0001:00012424       ??0pairNode@@QAE@PBVDNameNode@@0@Z 10013424 f i libvcruntime:undname.obj
 0001:0001244a       ??2@YAPAXIAAV_HeapManager@@H@Z 1001344a f   libvcruntime:undname.obj
 0001:00012469       ??4DName@@QAEAAV0@ABUStringLiteral@@@Z 10013469 f   libvcruntime:undname.obj
 0001:0001248a       ??4DName@@QAEAAV0@ABV0@@Z  1001348a f   libvcruntime:undname.obj
 0001:000124a0       ??4DName@@QAEAAV0@D@Z      100134a0 f i libvcruntime:undname.obj
 0001:000124bc       ??4DName@@QAEAAV0@PAV0@@Z  100134bc f   libvcruntime:undname.obj
 0001:000124ff       ??4DName@@QAEAAV0@W4DNameStatus@@@Z 100134ff f   libvcruntime:undname.obj
 0001:00012531       ??AReplicator@@QBE?AVDName@@H@Z 10013531 f   libvcruntime:undname.obj
 0001:0001256d       ??B?$optional@_K@std@@QBE_NXZ 1001356d f i libvcruntime:undname.obj
 0001:00012571       ??D?$optional@_K@std@@QGAEAA_KXZ 10013571 f i libvcruntime:undname.obj
 0001:00012574       ??H@YA?AVDName@@ABUStringLiteral@@ABV0@@Z 10013574 f i libvcruntime:undname.obj
 0001:00012596       ??H@YA?AVDName@@DABV0@@Z   10013596 f i libvcruntime:undname.obj
 0001:000125c1       ??H@YA?AVDName@@W4DNameStatus@@ABV0@@Z 100135c1 f i libvcruntime:undname.obj
 0001:000125e3       ??HDName@@QBE?AV0@ABUStringLiteral@@@Z 100135e3 f   libvcruntime:undname.obj
 0001:00012605       ??HDName@@QBE?AV0@ABV0@@Z  10013605 f   libvcruntime:undname.obj
 0001:00012627       ??HDName@@QBE?AV0@D@Z      10013627 f   libvcruntime:undname.obj
 0001:00012649       ??HDName@@QBE?AV0@PAV0@@Z  10013649 f   libvcruntime:undname.obj
 0001:0001266b       ??HDName@@QBE?AV0@W4DNameStatus@@@Z 1001366b f   libvcruntime:undname.obj
 0001:0001268d       ??HStringLiteral@@QBE?AU0@H@Z 1001368d f i libvcruntime:undname.obj
 0001:000126a7       ??YDName@@QAEAAV0@ABUStringLiteral@@@Z 100136a7 f   libvcruntime:undname.obj
 0001:000126ff       ??YDName@@QAEAAV0@ABV0@@Z  100136ff f   libvcruntime:undname.obj
 0001:00012756       ??YDName@@QAEAAV0@D@Z      10013756 f   libvcruntime:undname.obj
 0001:000127ab       ??YDName@@QAEAAV0@PAV0@@Z  100137ab f   libvcruntime:undname.obj
 0001:0001280f       ??YDName@@QAEAAV0@W4DNameStatus@@@Z 1001380f f   libvcruntime:undname.obj
 0001:0001284f       ??YReplicator@@QAEAAV0@ABVDName@@@Z 1001384f f   libvcruntime:undname.obj
 0001:0001288f       ??_5DName@@QAEAAV0@ABV0@@Z 1001388f f   libvcruntime:undname.obj
 0001:000128ab       ??__K_l@@YA?AUStringLiteral@@PBDI@Z 100138ab f i libvcruntime:undname.obj
 0001:000128b6       ?Constructor@_HeapManager@@QAEXP6APAXI@ZP6AXPAX@Z@Z 100138b6 f i libvcruntime:undname.obj
 0001:000128d3       ?Destructor@_HeapManager@@QAEXXZ 100138d3 f i libvcruntime:undname.obj
 0001:00012917       ?UScore@UnDecorator@@SA?AUStringLiteral@@W4Tokens@@@Z 10013917 f   libvcruntime:undname.obj
 0001:0001293e       ?composeDeclaration@UnDecorator@@CA?AVDName@@ABV2@@Z 1001393e f i libvcruntime:undname.obj
 0001:00013636       ?doAccessSpecifiers@UnDecorator@@SAHXZ 10014636 f i libvcruntime:undname.obj
 0001:00013644       ?doAllocationLanguage@UnDecorator@@SAHXZ 10014644 f i libvcruntime:undname.obj
 0001:00013652       ?doAllocationModel@UnDecorator@@SAHXZ 10014652 f i libvcruntime:undname.obj
 0001:00013660       ?doEcsu@UnDecorator@@SAHXZ 10014660 f i libvcruntime:undname.obj
 0001:0001366e       ?doEllipsis@UnDecorator@@SAHXZ 1001466e f i libvcruntime:undname.obj
 0001:0001367c       ?doFunctionReturns@UnDecorator@@SAHXZ 1001467c f i libvcruntime:undname.obj
 0001:0001368a       ?doMSKeywords@UnDecorator@@SAHXZ 1001468a f i libvcruntime:undname.obj
 0001:00013697       ?doMemberTypes@UnDecorator@@SAHXZ 10014697 f i libvcruntime:undname.obj
 0001:000136a5       ?doNameOnly@UnDecorator@@SAHXZ 100146a5 f i libvcruntime:undname.obj
 0001:000136b0       ?doNoIdentCharCheck@UnDecorator@@SAHXZ 100146b0 f i libvcruntime:undname.obj
 0001:000136bb       ?doPchar@DName@@AAEXD@Z    100146bb f   libvcruntime:undname.obj
 0001:000136f3       ?doPtr64@UnDecorator@@SAHXZ 100146f3 f i libvcruntime:undname.obj
 0001:00013701       ?doRestrictionSpec@UnDecorator@@SAHXZ 10014701 f i libvcruntime:undname.obj
 0001:0001370f       ?doThisTypes@UnDecorator@@SAHXZ 1001470f f i libvcruntime:undname.obj
 0001:00013721       ?doThrowTypes@UnDecorator@@SAHXZ 10014721 f i libvcruntime:undname.obj
 0001:0001372f       ?doTypeOnly@UnDecorator@@SAHXZ 1001472f f i libvcruntime:undname.obj
 0001:0001373a       ?doUnderScore@UnDecorator@@SAHXZ 1001473a f i libvcruntime:undname.obj
 0001:00013745       ?getAddressOf@UnDecorator@@CA?AVDName@@XZ 10014745 f   libvcruntime:undname.obj
 0001:000137ad       ?getArgumentList@UnDecorator@@CA?AVDName@@XZ 100147ad f   libvcruntime:undname.obj
 0001:000138ba       ?getArgumentTypes@UnDecorator@@CA?AVDName@@XZ 100148ba f   libvcruntime:undname.obj
 0001:000139c2       ?getArrayAccess@UnDecorator@@CA?AVDName@@XZ 100149c2 f   libvcruntime:undname.obj
 0001:00013a36       ?getArrayObject@UnDecorator@@CA?AVDName@@XZ 10014a36 f   libvcruntime:undname.obj
 0001:00013ac1       ?getArrayType@UnDecorator@@CA?AVDName@@ABV2@@Z 10014ac1 f i libvcruntime:undname.obj
 0001:00013c5e       ?getBasedType@UnDecorator@@CA?AVDName@@XZ 10014c5e f   libvcruntime:undname.obj
 0001:00013d14       ?getBasicDataType@UnDecorator@@CA?AVDName@@ABV2@@Z 10014d14 f   libvcruntime:undname.obj
 0001:00014248       ?getCHPEName@UnDecorator@@QAEPADPADH@Z 10015248 f i libvcruntime:undname.obj
 0001:00014325       ?getCallIndex@UnDecorator@@CA?AVDName@@XZ 10015325 f i libvcruntime:undname.obj
 0001:00014339       ?getCallingConvention@UnDecorator@@CA?AVDName@@XZ 10015339 f   libvcruntime:undname.obj
 0001:0001440e       ?getDataIndirectType@UnDecorator@@CA?AVDName@@ABV2@W4IndirectionKind@@0H@Z 1001540e f   libvcruntime:undname.obj
 0001:00014aac       ?getDataIndirectType@UnDecorator@@CA?AVDName@@XZ 10015aac f i libvcruntime:undname.obj
 0001:00014ada       ?getDataType@UnDecorator@@CA?AVDName@@PAV2@@Z 10015ada f   libvcruntime:undname.obj
 0001:00014bb1       ?getDecoratedName@UnDecorator@@CA?AVDName@@XZ 10015bb1 f   libvcruntime:undname.obj
 0001:00014e05       ?getDimension@UnDecorator@@CA?AVDName@@_N@Z 10015e05 f   libvcruntime:undname.obj
 0001:00014f13       ?getDispatchTarget@UnDecorator@@CA?AVDName@@XZ 10015f13 f   libvcruntime:undname.obj
 0001:00014f66       ?getDisplacement@UnDecorator@@CA?AVDName@@XZ 10015f66 f i libvcruntime:undname.obj
 0001:00014f7a       ?getECSUDataType@UnDecorator@@CA?AVDName@@XZ 10015f7a f   libvcruntime:undname.obj
 0001:0001510c       ?getECSUName@UnDecorator@@CA?AVDName@@XZ 1001610c f i libvcruntime:undname.obj
 0001:0001511d       ?getEnumType@UnDecorator@@CA?AVDName@@XZ 1001611d f i libvcruntime:undname.obj
 0001:00015231       ?getExtendedDataIndirectType@UnDecorator@@CA?AVDName@@AAW4IndirectionKind@@AA_NH@Z 10016231 f   libvcruntime:undname.obj
 0001:000153dc       ?getExternalDataType@UnDecorator@@CA?AVDName@@ABV2@@Z 100163dc f i libvcruntime:undname.obj
 0001:00015441       ?getFloatingPoint@UnDecorator@@CA?AVDName@@H@Z 10016441 f   libvcruntime:undname.obj
 0001:000154ff       ?getFunctionIndirectType@UnDecorator@@CA?AVDName@@ABV2@@Z 100164ff f   libvcruntime:undname.obj
 0001:000158a9       ?getGuardNumber@UnDecorator@@CA?AVDName@@XZ 100168a9 f i libvcruntime:undname.obj
 0001:000158bd       ?getLastChar@DName@@QBEDXZ 100168bd f i libvcruntime:undname.obj
 0001:000158dd       ?getLastChar@DNameStatusNode@@UBEDXZ 100168dd f i libvcruntime:undname.obj
 0001:000158e9       ?getLastChar@charNode@@UBEDXZ 100168e9 f i libvcruntime:undname.obj
 0001:000158ed       ?getLastChar@pDNameNode@@UBEDXZ 100168ed f i libvcruntime:undname.obj
 0001:000158fb       ?getLastChar@pairNode@@UBEDXZ 100168fb f i libvcruntime:undname.obj
 0001:00015930       ?getLastChar@pcharNode@@UBEDXZ 10016930 f i libvcruntime:undname.obj
 0001:00015942       ?getLexicalFrame@UnDecorator@@CA?AVDName@@XZ 10016942 f i libvcruntime:undname.obj
 0001:00015973       ?getMemberAccess@UnDecorator@@CA?AVDName@@XZ 10016973 f   libvcruntime:undname.obj
 0001:000159e3       ?getMemoryWithBuffer@_HeapManager@@QAEPAXI@Z 100169e3 f   libvcruntime:undname.obj
 0001:00015a4d       ?getMemoryWithoutBuffer@_HeapManager@@QAEPAXI@Z 10016a4d f   libvcruntime:undname.obj
 0001:00015a6d       ?getNoexcept@UnDecorator@@CA?AVDName@@XZ 10016a6d f   libvcruntime:undname.obj
 0001:00015ac1       ?getNumberOfDimensions@UnDecorator@@CAHXZ 10016ac1 f   libvcruntime:undname.obj
 0001:00015b23       ?getOperatorName@UnDecorator@@CA?AVDName@@_NPA_N@Z 10016b23 f i libvcruntime:undname.obj
 0001:0001625d       ?getPointerToMember@UnDecorator@@CA?AVDName@@XZ 1001725d f   libvcruntime:undname.obj
 0001:00016319       ?getPointerType@UnDecorator@@CA?AVDName@@ABV2@0@Z 10017319 f i libvcruntime:undname.obj
 0001:00016334       ?getPointerTypeArray@UnDecorator@@CA?AVDName@@ABV2@0@Z 10017334 f i libvcruntime:undname.obj
 0001:0001634f       ?getPrimaryDataType@UnDecorator@@CA?AVDName@@ABV2@@Z 1001734f f   libvcruntime:undname.obj
 0001:0001659d       ?getPtrRefDataType@UnDecorator@@CA?AVDName@@ABV2@H@Z 1001759d f   libvcruntime:undname.obj
 0001:0001670a       ?getPtrRefType@UnDecorator@@CA?AVDName@@ABV2@0W4IndirectionKind@@@Z 1001770a f   libvcruntime:undname.obj
 0001:0001681b       ?getReferenceType@UnDecorator@@CA?AVDName@@ABV2@0W4IndirectionKind@@@Z 1001781b f i libvcruntime:undname.obj
 0001:00016837       ?getRestrictionSpec@UnDecorator@@CA?AVDName@@XZ 10017837 f   libvcruntime:undname.obj
 0001:0001695c       ?getReturnType@UnDecorator@@CA?AVDName@@PAV2@@Z 1001795c f   libvcruntime:undname.obj
 0001:0001698b       ?getScope@UnDecorator@@CA?AVDName@@XZ 1001798b f   libvcruntime:undname.obj
 0001:00016d49       ?getScopedName@UnDecorator@@CA?AVDName@@XZ 10017d49 f   libvcruntime:undname.obj
 0001:00016e3c       ?getSignedDimension@UnDecorator@@CA?AVDName@@XZ 10017e3c f   libvcruntime:undname.obj
 0001:00016e8d       ?getStorageConvention@UnDecorator@@CA?AVDName@@XZ 10017e8d f i libvcruntime:undname.obj
 0001:00016e9e       ?getString@DName@@QBEPADPAD0@Z 10017e9e f i libvcruntime:undname.obj
 0001:00016ecb       ?getString@DName@@QBEPADPADH@Z 10017ecb f i libvcruntime:undname.obj
 0001:00016f20       ?getString@DNameStatusNode@@UBEPADPAD0@Z 10017f20 f i libvcruntime:undname.obj
 0001:00016f67       ?getString@charNode@@UBEPADPAD0@Z 10017f67 f i libvcruntime:undname.obj
 0001:00016f7c       ?getString@pDNameNode@@UBEPADPAD0@Z 10017f7c f i libvcruntime:undname.obj
 0001:00016f93       ?getString@pairNode@@UBEPADPAD0@Z 10017f93 f i libvcruntime:undname.obj
 0001:00016fd9       ?getString@pcharNode@@UBEPADPAD0@Z 10017fd9 f i libvcruntime:undname.obj
 0001:00016ff4       ?getStringEncoding@UnDecorator@@CA?AVDName@@W4PrefixKind@@H@Z 10017ff4 f   libvcruntime:undname.obj
 0001:00017091       ?getStringHelper@@YAPADPADPBD1H@Z 10018091 f i libvcruntime:undname.obj
 0001:000170bb       ?getStringObject@UnDecorator@@CA?AVDName@@XZ 100180bb f   libvcruntime:undname.obj
 0001:00017106       ?getSymbolName@UnDecorator@@CA?AVDName@@XZ 10018106 f i libvcruntime:undname.obj
 0001:0001714e       ?getTemplateArgumentList@UnDecorator@@CA?AVDName@@XZ 1001814e f   libvcruntime:undname.obj
 0001:000172fe       ?getTemplateName@UnDecorator@@CA?AVDName@@_N@Z 100182fe f   libvcruntime:undname.obj
 0001:0001745e       ?getTemplateNonTypeArgument@UnDecorator@@CA?AVDName@@XZ 1001845e f   libvcruntime:undname.obj
 0001:0001782e       ?getTemplateTypeArgument@UnDecorator@@CA?AVDName@@XZ 1001882e f   libvcruntime:undname.obj
 0001:00017934       ?getThisType@UnDecorator@@CA?AVDName@@XZ 10018934 f i libvcruntime:undname.obj
 0001:00017963       ?getThrowTypes@UnDecorator@@CA?AVDName@@XZ 10018963 f   libvcruntime:undname.obj
 0001:00017986       ?getTypeEncoding@UnDecorator@@CAHXZ 10018986 f i libvcruntime:undname.obj
 0001:00017cbe       ?getUndecoratedName@UnDecorator@@QAEPADPADH@Z 10018cbe f i libvcruntime:undname.obj
 0001:00017ddd       ?getUnionObject@UnDecorator@@CA?AVDName@@XZ 10018ddd f   libvcruntime:undname.obj
 0001:00017e84       ?getVCallThunkType@UnDecorator@@CA?AVDName@@XZ 10018e84 f i libvcruntime:undname.obj
 0001:00017ece       ?getValue@UnDecorator@@CA?AV?$optional@_K@std@@XZ 10018ece f   libvcruntime:undname.obj
 0001:00017f56       ?getValueObject@UnDecorator@@CA?AVDName@@XZ 10018f56 f   libvcruntime:undname.obj
 0001:00018050       ?getVbTableType@UnDecorator@@CA?AVDName@@ABV2@@Z 10019050 f i libvcruntime:undname.obj
 0001:00018065       ?getVdispMapType@UnDecorator@@CA?AVDName@@ABV2@@Z 10019065 f i libvcruntime:undname.obj
 0001:000180c6       ?getVfTableType@UnDecorator@@CA?AVDName@@ABV2@@Z 100190c6 f i libvcruntime:undname.obj
 0001:0001821a       ?getZName@UnDecorator@@CA?AVDName@@_N0@Z 1001921a f   libvcruntime:undname.obj
 0001:0001842f       ?haveTemplateParameters@UnDecorator@@SAHXZ 1001942f f i libvcruntime:undname.obj
 0001:0001843a       ?isArray@DName@@QBEHXZ     1001943a f i libvcruntime:undname.obj
 0001:00018444       ?isComArray@DName@@QBEHXZ  10019444 f i libvcruntime:undname.obj
 0001:0001844e       ?isEmpty@DName@@QBEHXZ     1001944e f i libvcruntime:undname.obj
 0001:00018456       ?isFull@Replicator@@QBEHXZ 10019456 f i libvcruntime:undname.obj
 0001:0001845f       ?isNoTE@DName@@QBEHXZ      1001945f f i libvcruntime:undname.obj
 0001:00018469       ?isPinPtr@DName@@QBEHXZ    10019469 f i libvcruntime:undname.obj
 0001:00018473       ?isPtrRef@DName@@QBEHXZ    10019473 f i libvcruntime:undname.obj
 0001:0001847d       ?isUDC@DName@@QBEHXZ       1001947d f i libvcruntime:undname.obj
 0001:0001848e       ?isUDTThunk@DName@@QBEHXZ  1001948e f i libvcruntime:undname.obj
 0001:0001849f       ?isVCallThunk@DName@@QBEHXZ 1001949f f i libvcruntime:undname.obj
 0001:000184a9       ?isValid@DName@@QBEHXZ     100194a9 f i libvcruntime:undname.obj
 0001:000184b3       ?length@DName@@QBEHXZ      100194b3 f i libvcruntime:undname.obj
 0001:000184d2       ?length@DNameStatusNode@@UBEHXZ 100194d2 f i libvcruntime:undname.obj
 0001:000184d6       ?length@charNode@@UBEHXZ   100194d6 f i libvcruntime:undname.obj
 0001:000184da       ?length@pDNameNode@@UBEHXZ 100194da f i libvcruntime:undname.obj
 0001:000184e8       ?length@pairNode@@UBEHXZ   100194e8 f i libvcruntime:undname.obj
 0001:00018531       ?length@pcharNode@@UBEHXZ  10019531 f i libvcruntime:undname.obj
 0001:00018535       ?make@DNameStatusNode@@SAPBV1@W4DNameStatus@@@Z 10019535 f i libvcruntime:undname.obj
 0001:00018551       ?parseDecoratedName@UnDecorator@@CA?AVDName@@XZ 10019551 f   libvcruntime:undname.obj
 0001:0001864b       ?raw_length@DNameStatusNode@@UBEHXZ 1001964b f i libvcruntime:undname.obj
 0001:0001864f       ?raw_length@charNode@@UBEHXZ 1001964f f i libvcruntime:undname.obj
 0001:00018653       ?raw_length@pDNameNode@@UBEHXZ 10019653 f i libvcruntime:undname.obj
 0001:00018657       ?raw_length@pairNode@@UBEHXZ 10019657 f i libvcruntime:undname.obj
 0001:0001865b       ?raw_length@pcharNode@@UBEHXZ 1001965b f i libvcruntime:undname.obj
 0001:0001865f       ?setIsArray@DName@@QAEXXZ  1001965f f i libvcruntime:undname.obj
 0001:00018667       ?setIsComArray@DName@@QAEXXZ 10019667 f i libvcruntime:undname.obj
 0001:0001866f       ?setIsNoTE@DName@@QAEXXZ   1001966f f i libvcruntime:undname.obj
 0001:00018677       ?setIsPinPtr@DName@@QAEXXZ 10019677 f i libvcruntime:undname.obj
 0001:0001867f       ?setIsUDC@DName@@QAEXXZ    1001967f f i libvcruntime:undname.obj
 0001:0001868c       ?setIsVCallThunk@DName@@QAEXXZ 1001968c f i libvcruntime:undname.obj
 0001:00018694       ?setPtrRef@DName@@QAEAAV1@XZ 10019694 f i libvcruntime:undname.obj
 0001:0001869e       ?status@DName@@QBE?AW4DNameStatus@@XZ 1001969e f i libvcruntime:undname.obj
 0001:0001870a       ___unDName                 1001970a f   libvcruntime:undname.obj
 0001:0001872d       ___unDNameEx               1001972d f   libvcruntime:undname.obj
 0001:000187cc       __vsprintf_s_l             100197cc f i libvcruntime:undname.obj
 0001:000187f9       _sprintf_s                 100197f9 f i libvcruntime:undname.obj
 0001:00018815       _unDNameGenerateCHPE       10019815 f   libvcruntime:undname.obj
 0001:000188b2       ??$?RU__vcrt_ptd@@@__crt_internal_free_policy@@QBEXQBU__vcrt_ptd@@@Z 100198b2 f i libvcruntime:per_thread_data.obj
 0001:000188c2       ??0?$__crt_unique_heap_ptr@U__vcrt_ptd@@U__crt_internal_free_policy@@@@QAE@QAU__vcrt_ptd@@@Z 100198c2 f i libvcruntime:per_thread_data.obj
 0001:000188df       ??1?$__crt_unique_heap_ptr@U__vcrt_ptd@@U__crt_internal_free_policy@@@@QAE@XZ 100198df f i libvcruntime:per_thread_data.obj
 0001:000188f8       ??B?$__crt_unique_heap_ptr@U__vcrt_ptd@@U__crt_internal_free_policy@@@@QBE_NXZ 100198f8 f i libvcruntime:per_thread_data.obj
 0001:000188ff       ?detach@?$__crt_unique_heap_ptr@U__vcrt_ptd@@U__crt_internal_free_policy@@@@QAEPAU__vcrt_ptd@@XZ 100198ff f i libvcruntime:per_thread_data.obj
 0001:00018905       ?get@?$__crt_unique_heap_ptr@U__vcrt_ptd@@U__crt_internal_free_policy@@@@QBEPAU__vcrt_ptd@@XZ 10019905 f i libvcruntime:per_thread_data.obj
 0001:00018908       ?is_valid@?$__crt_unique_heap_ptr@U__vcrt_ptd@@U__crt_internal_free_policy@@@@QBE_NXZ 10019908 f i libvcruntime:per_thread_data.obj
 0001:0001890f       ?release@?$__crt_unique_heap_ptr@U__vcrt_ptd@@U__crt_internal_free_policy@@@@QAEXXZ 1001990f f i libvcruntime:per_thread_data.obj
 0001:00018939       ___vcrt_freefls@4          10019939 f   libvcruntime:per_thread_data.obj
 0001:00018955       ___vcrt_freeptd            10019955 f   libvcruntime:per_thread_data.obj
 0001:0001898b       ___vcrt_getptd             1001998b f   libvcruntime:per_thread_data.obj
 0001:00018999       ___vcrt_getptd_noexit      10019999 f   libvcruntime:per_thread_data.obj
 0001:00018a2b       ___vcrt_getptd_noinit      10019a2b f   libvcruntime:per_thread_data.obj
 0001:00018a62       ___vcrt_initialize_ptd     10019a62 f   libvcruntime:per_thread_data.obj
 0001:00018a95       ___vcrt_uninitialize_ptd   10019a95 f   libvcruntime:per_thread_data.obj
 0001:00018ab0       ___vcrt_initialize_locks   10019ab0 f   libvcruntime:locks.obj
 0001:00018aec       ___vcrt_lock               10019aec f   libvcruntime:locks.obj
 0001:00018b01       ___vcrt_uninitialize_locks 10019b01 f   libvcruntime:locks.obj
 0001:00018b30       ___vcrt_unlock             10019b30 f   libvcruntime:locks.obj
 0001:00018b50       __global_unwind2           10019b50 f   libvcruntime:exsup.obj
 0001:00018bd0       __local_unwind2            10019bd0 f   libvcruntime:exsup.obj
 0001:00018c70       __abnormal_termination     10019c70 f   libvcruntime:exsup.obj
 0001:00018ca0       __NLG_Notify1              10019ca0 f   libvcruntime:exsup.obj
 0001:00018cb0       __NLG_Notify               10019cb0 f   libvcruntime:exsup.obj
 0001:00018cc7       __NLG_Dispatch             10019cc7     libvcruntime:exsup.obj
 0001:00018cc7       __NLG_Dispatch2            10019cc7     libvcruntime:exsup.obj
 0001:00018cd0       __NLG_Call                 10019cd0 f   libvcruntime:exsup.obj
 0001:00018cd2       __NLG_Return2              10019cd2     libvcruntime:exsup.obj
 0001:00018cd3       ??$__crt_interlocked_exchange_pointer@$$A6AXXZP6AXXZ@@YAP6AXXZPDS6AXXZQ6AXXZ@Z 10019cd3 f i libvcruntime:purevirt.obj
 0001:00018ce0       ??$__crt_interlocked_read_pointer@$$A6AXXZ@@YAP6AXXZPDS6AXXZ@Z 10019ce0 f i libvcruntime:purevirt.obj
 0001:00018ceb       __get_purecall_handler     10019ceb f   libvcruntime:purevirt.obj
 0001:00018cf2       __purecall                 10019cf2 f   libvcruntime:purevirt.obj
 0001:00018d0e       __set_purecall_handler     10019d0e f   libvcruntime:purevirt.obj
 0001:00018d1d       ??$?0AAViterator@TryBlockMap@__FrameHandler3@@AAV012@$0A@@?$pair@Viterator@TryBlockMap@__FrameHandler3@@V123@@std@@QAE@AAViterator@TryBlockMap@__FrameHandler3@@0@Z 10019d1d f i libvcruntime:trnsctrl.obj
 0001:00018d41       ??$forward@AAViterator@TryBlockMap@__FrameHandler3@@@std@@YAAAViterator@TryBlockMap@__FrameHandler3@@AAV123@@Z 10019d41 f i libvcruntime:trnsctrl.obj
 0001:00018d49       ??0iterator@TryBlockMap@__FrameHandler3@@QAE@AAV12@I@Z 10019d49 f i libvcruntime:trnsctrl.obj
 0001:00018d5d       ?GetRangeOfTrysToCheck@__FrameHandler3@@SA?AU?$pair@Viterator@TryBlockMap@__FrameHandler3@@V123@@std@@AAVTryBlockMap@1@HPAXPBU_s_FuncInfo@@H@Z 10019d5d f   libvcruntime:trnsctrl.obj
 0001:00018dcd       ?_CallCatchBlock2@@YAPAXPAUEHRegistrationNode@@PBU_s_FuncInfo@@PAXHK@Z 10019dcd f   libvcruntime:trnsctrl.obj
 0001:00018e2a       ?_CallSETranslator@@YAHPAUEHExceptionRecord@@PAUEHRegistrationNode@@PAX2PBU_s_FuncInfo@@H1@Z 10019e2a f   libvcruntime:trnsctrl.obj
 0001:00018f20       ?_JumpToContinuation@@YGXPAXPAUEHRegistrationNode@@@Z 10019f20 f   libvcruntime:trnsctrl.obj
 0001:00018f50       ?_UnwindNestedFrames@@YGXPAUEHRegistrationNode@@PAUEHExceptionRecord@@@Z 10019f50 f   libvcruntime:trnsctrl.obj
 0001:00018fa3       __CatchGuardHandler        10019fa3 f   libvcruntime:trnsctrl.obj
 0001:00018fd4       __CreateFrameInfo          10019fd4 f   libvcruntime:trnsctrl.obj
 0001:00018ff8       __FindAndUnlinkFrame       10019ff8 f   libvcruntime:trnsctrl.obj
 0001:00019040       __TranslatorGuardHandler   1001a040 f   libvcruntime:trnsctrl.obj
 0001:000190dd       ___CxxFrameHandler         1001a0dd f   libvcruntime:trnsctrl.obj
 0001:00019113       ___CxxFrameHandler2        1001a113 f   libvcruntime:trnsctrl.obj
 0001:00019149       ___CxxFrameHandler3        1001a149 f   libvcruntime:trnsctrl.obj
 0001:0001917f       ___CxxLongjmpUnwind@4      1001a17f f   libvcruntime:trnsctrl.obj
 0001:000191b0       _memcpy                    1001a1b0 f   libvcruntime:memcpy.obj
 0001:00019724       ??$__crt_interlocked_exchange_pointer@UHINSTANCE__@@PAU1@@@YAPAUHINSTANCE__@@PDSAU0@QAU0@@Z 1001a724 f i libvcruntime:winapi_downlevel.obj
 0001:00019731       ??$__crt_interlocked_exchange_pointer@UHINSTANCE__@@PAX@@YAPAUHINSTANCE__@@PDSAU0@QAX@Z 1001a731 f i libvcruntime:winapi_downlevel.obj
 0001:0001973e       ??$__crt_interlocked_exchange_pointer@XPAX@@YAPAXPDSAXQAX@Z 1001a73e f i libvcruntime:winapi_downlevel.obj
 0001:0001974b       ??$__crt_interlocked_read_pointer@UHINSTANCE__@@@@YAPAUHINSTANCE__@@PDSAU0@@Z 1001a74b f i libvcruntime:winapi_downlevel.obj
 0001:00019756       ??$__crt_interlocked_read_pointer@X@@YAPAXPDSAX@Z 1001a756 f i libvcruntime:winapi_downlevel.obj
 0001:00019989       ___vcrt_FlsAlloc           1001a989 f   libvcruntime:winapi_downlevel.obj
 0001:000199c4       ___vcrt_FlsFree            1001a9c4 f   libvcruntime:winapi_downlevel.obj
 0001:000199ff       ___vcrt_FlsGetValue        1001a9ff f   libvcruntime:winapi_downlevel.obj
 0001:00019a3a       ___vcrt_FlsSetValue        1001aa3a f   libvcruntime:winapi_downlevel.obj
 0001:00019a78       ___vcrt_InitializeCriticalSectionEx 1001aa78 f   libvcruntime:winapi_downlevel.obj
 0001:0001a1f1       ??$TypeMatchHelper@V__FrameHandler3@@@@YAHPBU_s_HandlerType@@PBU_s_CatchableType@@PBU_s_ThrowInfo@@@Z 1001b1f1 f i libvcruntime:frame.obj
 0001:0001a27f       ??$__InternalCxxFrameHandler@V__FrameHandler3@@@@YA?AW4_EXCEPTION_DISPOSITION@@PAUEHExceptionRecord@@PAUEHRegistrationNode@@PAU_CONTEXT@@PAXPBU_s_FuncInfo@@H1E@Z 1001b27f f i libvcruntime:frame.obj
 0001:0001a381       ??0HandlerMap@__FrameHandler3@@QAE@PBU_s_TryBlockMapEntry@@II@Z 1001b381 f i libvcruntime:frame.obj
 0001:0001a398       ??0TryBlockMap@__FrameHandler3@@QAE@PBU_s_FuncInfo@@I@Z 1001b398 f i libvcruntime:frame.obj
 0001:0001a3ac       ??0bad_exception@std@@QAE@ABV01@@Z 1001b3ac f i libvcruntime:frame.obj
 0001:0001a3c7       ??0bad_exception@std@@QAE@XZ 1001b3c7 f i libvcruntime:frame.obj
 0001:0001a3df       ??0exception@std@@QAE@ABV01@@Z 1001b3df f i libvcruntime:frame.obj
 0001:0001a40b       ??0exception@std@@QAE@QBDH@Z 1001b40b f i libvcruntime:frame.obj
 0001:0001a428       ??0iterator@HandlerMap@__FrameHandler3@@QAE@AAV12@I@Z 1001b428 f i libvcruntime:frame.obj
 0001:0001a43c       ??1bad_exception@std@@UAE@XZ 1001b43c f i libvcruntime:frame.obj
 0001:0001a44d       ??1exception@std@@UAE@XZ   1001b44d f i libvcruntime:frame.obj
 0001:0001a45e       ??8iterator@HandlerMap@__FrameHandler3@@QBE_NABV012@@Z 1001b45e f i libvcruntime:frame.obj
 0001:0001a471       ??8type_info@@QBE_NABV0@@Z 1001b471 f i libvcruntime:frame.obj
 0001:0001a490       ??9iterator@HandlerMap@__FrameHandler3@@QBE_NABV012@@Z 1001b490 f i libvcruntime:frame.obj
 0001:0001a4a3       ??Diterator@HandlerMap@__FrameHandler3@@QAE?BU_s_HandlerType@@XZ 1001b4a3 f i libvcruntime:frame.obj
 0001:0001a4c2       ??Diterator@TryBlockMap@__FrameHandler3@@QAE?BU_s_TryBlockMapEntry@@XZ 1001b4c2 f i libvcruntime:frame.obj
 0001:0001a4e4       ??Eiterator@HandlerMap@__FrameHandler3@@QAEAAV012@XZ 1001b4e4 f i libvcruntime:frame.obj
 0001:0001a4ea       ??Eiterator@TryBlockMap@__FrameHandler3@@QAEAAV012@XZ 1001b4ea f i libvcruntime:frame.obj
 0001:0001a4f0       ??Miterator@TryBlockMap@__FrameHandler3@@QBE_NABV012@@Z 1001b4f0 f i libvcruntime:frame.obj
 0001:0001a503       ??_Ebad_exception@std@@UAEPAXI@Z 1001b503 f i libvcruntime:frame.obj
 0001:0001a503       ??_Gbad_exception@std@@UAEPAXI@Z 1001b503 f i libvcruntime:frame.obj
 0001:0001a530       ??_Gexception@std@@UAEPAXI@Z 1001b530 f i libvcruntime:frame.obj
 0001:0001a530       ??_Eexception@std@@UAEPAXI@Z 1001b530 f i libvcruntime:frame.obj
 0001:0001a55d       ?BuildCatchObject@__FrameHandler3@@SAXPAUEHExceptionRecord@@PAXPBU_s_HandlerType@@PBU_s_CatchableType@@@Z 1001b55d f   libvcruntime:frame.obj
 0001:0001a562       ?BuildCatchObjectHelper@__FrameHandler3@@SAHPAUEHExceptionRecord@@PAXPBU_s_HandlerType@@PBU_s_CatchableType@@@Z 1001b562 f   libvcruntime:frame.obj
 0001:0001a7c3       ?FrameUnwindToEmptyState@__FrameHandler3@@SAXPAUEHRegistrationNode@@PAXPBU_s_FuncInfo@@@Z 1001b7c3 f   libvcruntime:frame.obj
 0001:0001a7db       ?FrameUnwindToState@__FrameHandler3@@SAXPAUEHRegistrationNode@@PAXPBU_s_FuncInfo@@H@Z 1001b7db f   libvcruntime:frame.obj
 0001:0001a8c3       ?GetMaxState@__FrameHandler3@@SAHPAXPBU_s_FuncInfo@@@Z 1001b8c3 f i libvcruntime:frame.obj
 0001:0001a9a1       ?TypeMatch@__FrameHandler3@@SAHPBU_s_HandlerType@@PBU_s_CatchableType@@PBU_s_ThrowInfo@@@Z 1001b9a1 f   libvcruntime:frame.obj
 0001:0001a9aa       ?_CallMemberFunction1@@YGXQAX00@Z 1001b9aa f i libvcruntime:frame.obj
 0001:0001a9ba       ?_CallMemberFunction2@@YGXQAX00H@Z 1001b9ba f i libvcruntime:frame.obj
 0001:0001a9cd       ?begin@HandlerMap@__FrameHandler3@@QAE?AViterator@12@XZ 1001b9cd f i libvcruntime:frame.obj
 0001:0001a9dd       ?end@HandlerMap@__FrameHandler3@@QAE?AViterator@12@XZ 1001b9dd f i libvcruntime:frame.obj
 0001:0001a9ee       ?getESTypes@__FrameHandler3@@SAPBU_s_ESTypeList@@PBU_s_FuncInfo@@@Z 1001b9ee f i libvcruntime:frame.obj
 0001:0001a9f9       ?getLastEntry@HandlerMap@__FrameHandler3@@QAEPBU_s_HandlerType@@XZ 1001b9f9 f i libvcruntime:frame.obj
 0001:0001aa07       ?getMagicNum@__FrameHandler3@@SAIPBU_s_FuncInfo@@@Z 1001ba07 f i libvcruntime:frame.obj
 0001:0001aa16       ?getNumTryBlocks@TryBlockMap@__FrameHandler3@@QAEIXZ 1001ba16 f i libvcruntime:frame.obj
 0001:0001aa1c       ?isEHs@__FrameHandler3@@SA_NPBU_s_FuncInfo@@@Z 1001ba1c f i libvcruntime:frame.obj
 0001:0001aa29       ?isNoExcept@__FrameHandler3@@SA_NPBU_s_FuncInfo@@@Z 1001ba29 f i libvcruntime:frame.obj
 0001:0001aa39       ?what@exception@std@@UBEPBDXZ 1001ba39 f i libvcruntime:frame.obj
 0001:0001aa46       ___BuildCatchObject        1001ba46 f   libvcruntime:frame.obj
 0001:0001aa4b       ___BuildCatchObjectHelper  1001ba4b f   libvcruntime:frame.obj
 0001:0001aa54       ___TypeMatch               1001ba54 f   libvcruntime:frame.obj
 0001:0001aa5d       ___vcrt_EncodePointer      1001ba5d f i libvcruntime:frame.obj
 0001:0001aa70       __CallSettingFrame@12      1001ba70 f   libvcruntime:lowhelpr.obj
 0001:0001aa97       __NLG_Return               1001ba97     libvcruntime:lowhelpr.obj
 0001:0001aad0       __get_unexpected           1001bad0 f   libvcruntime:unexpected.obj
 0001:0001aae2       _set_unexpected            1001bae2 f   libvcruntime:unexpected.obj
 0001:0001ab00       _unexpected                1001bb00 f   libvcruntime:unexpected.obj
 0001:0001ab1d       ?GetCurrentState@__FrameHandler3@@SAHPAUEHRegistrationNode@@PAXPBU_s_FuncInfo@@@Z 1001bb1d f   libvcruntime:ehstate.obj
 0001:0001ab3a       ?SetState@__FrameHandler3@@SAXPAUEHRegistrationNode@@PBU_s_FuncInfo@@H@Z 1001bb3a f   libvcruntime:ehstate.obj
 0001:0001ab48       ??$?RD@__crt_public_free_policy@@QBEXQBD@Z 1001bb48 f i libvcruntime:std_exception.obj
 0001:0001ab58       ??0?$__crt_unique_heap_ptr@DU__crt_public_free_policy@@@@QAE@QAD@Z 1001bb58 f i libvcruntime:std_exception.obj
 0001:0001ab66       ??1?$__crt_unique_heap_ptr@DU__crt_public_free_policy@@@@QAE@XZ 1001bb66 f i libvcruntime:std_exception.obj
 0001:0001ab76       ??B?$__crt_unique_heap_ptr@DU__crt_public_free_policy@@@@QBE_NXZ 1001bb76 f i libvcruntime:std_exception.obj
 0001:0001ab7d       ?detach@?$__crt_unique_heap_ptr@DU__crt_public_free_policy@@@@QAEPADXZ 1001bb7d f i libvcruntime:std_exception.obj
 0001:0001ab83       ?get@?$__crt_unique_heap_ptr@DU__crt_public_free_policy@@@@QBEPADXZ 1001bb83 f i libvcruntime:std_exception.obj
 0001:0001ab86       ?is_valid@?$__crt_unique_heap_ptr@DU__crt_public_free_policy@@@@QBE_NXZ 1001bb86 f i libvcruntime:std_exception.obj
 0001:0001ab8d       ?release@?$__crt_unique_heap_ptr@DU__crt_public_free_policy@@@@QAEXXZ 1001bb8d f i libvcruntime:std_exception.obj
 0001:0001ab9d       ___std_exception_copy      1001bb9d f   libvcruntime:std_exception.obj
 0001:0001ac00       ___std_exception_destroy   1001bc00 f   libvcruntime:std_exception.obj
 0001:0001ac1f       __CxxThrowException@8      1001bc1f f   libvcruntime:throw.obj
 0001:0001ac90       _memmove                   1001bc90 f   libvcruntime:memmove.obj
 0001:0001b594       __lseek                    1001c594 f   libucrt:lseek.obj
 0001:0001b59f       __lseek_nolock             1001c59f f   libucrt:lseek.obj
 0001:0001b5aa       __lseeki64                 1001c5aa f   libucrt:lseek.obj
 0001:0001b5c5       __lseeki64_nolock          1001c5c5 f   libucrt:lseek.obj
 0001:0001b692       ??$__acrt_mbs_to_wcs_cp@U__crt_win32_buffer_internal_dynamic_resizing@@@@YAHQBDAAV?$__crt_win32_buffer@_WU__crt_win32_buffer_internal_dynamic_resizing@@@@I@Z 1001c692 f i libucrt:open.obj
 0001:0001b999       ??$tsopen_nolock@PAHABQAHABQBDABHABHABHABH@?$__crt_char_traits@D@@SAH$$QAPAHABQAHABQBDABH333@Z 1001c999 f i libucrt:open.obj
 0001:0001b9cb       ??$tsopen_nolock@PAHABQAHABQB_WABHABHABHABH@?$__crt_char_traits@_W@@SAH$$QAPAHABQAHABQB_WABH333@Z 1001c9cb f i libucrt:open.obj
 0001:0001b9fd       ??$tsopen_nolock@PAHPAHABQBDABHHABHH@?$__crt_char_traits@D@@SAH$$QAPAH0ABQBDABH$$QAH23@Z 1001c9fd f i libucrt:open.obj
 0001:0001ba2f       ??$tsopen_nolock@PAHPAHABQB_WABHHABHH@?$__crt_char_traits@_W@@SAH$$QAPAH0ABQB_WABH$$QAH23@Z 1001ca2f f i libucrt:open.obj
 0001:0001ba61       ??0?$__crt_win32_buffer@_WU__crt_win32_buffer_internal_dynamic_resizing@@@@QAE@XZ 1001ca61 f i libucrt:open.obj
 0001:0001ba77       ??0_LocaleUpdate@@QAE@QAU__crt_locale_pointers@@@Z 1001ca77 f i libucrt:open.obj
 0001:0001bafa       ??1?$__crt_win32_buffer@_WU__crt_win32_buffer_internal_dynamic_resizing@@@@QAE@XZ 1001cafa f i libucrt:open.obj
 0001:0001baff       ??1_LocaleUpdate@@QAE@XZ   1001caff f i libucrt:open.obj
 0001:0001bb30       ?GetLocaleT@_LocaleUpdate@@QAEPAU__crt_locale_pointers@@XZ 1001cb30 f i libucrt:open.obj
 0001:0001bb34       ?__acrt_get_utf8_acp_compatibility_codepage@@YAIXZ 1001cb34 f i libucrt:open.obj
 0001:0001bb73       ?_deallocate@?$__crt_win32_buffer@_WU__crt_win32_buffer_internal_dynamic_resizing@@@@AAEXXZ 1001cb73 f i libucrt:open.obj
 0001:0001bb8d       ?allocate@?$__crt_win32_buffer@_WU__crt_win32_buffer_internal_dynamic_resizing@@@@QAEHI@Z 1001cb8d f i libucrt:open.obj
 0001:0001bbcc       ?allocate@__crt_win32_buffer_internal_dynamic_resizing@@SAHQAPAXIABV__crt_win32_buffer_empty_debug_info@@@Z 1001cbcc f i libucrt:open.obj
 0001:0001bbeb       ?capacity@?$__crt_win32_buffer@_WU__crt_win32_buffer_internal_dynamic_resizing@@@@QBEIXZ 1001cbeb f i libucrt:open.obj
 0001:0001be67       ?data@?$__crt_win32_buffer@_WU__crt_win32_buffer_internal_dynamic_resizing@@@@QAEPA_WXZ 1001ce67 f i libucrt:open.obj
 0001:0001be6b       ?deallocate@__crt_win32_buffer_internal_dynamic_resizing@@SAXQAXABV__crt_win32_buffer_empty_debug_info@@@Z 1001ce6b f i libucrt:open.obj
 0001:0001be7b       ?debug_info@?$__crt_win32_buffer@_WU__crt_win32_buffer_internal_dynamic_resizing@@@@QBEABV__crt_win32_buffer_empty_debug_info@@XZ 1001ce7b f i libucrt:open.obj
 0001:0001c154       ?set_to_nullptr@?$__crt_win32_buffer@_WU__crt_win32_buffer_internal_dynamic_resizing@@@@QAEXXZ 1001d154 f i libucrt:open.obj
 0001:0001c16b       ?size@?$__crt_win32_buffer@_WU__crt_win32_buffer_internal_dynamic_resizing@@@@QAEXI@Z 1001d16b f i libucrt:open.obj
 0001:0001c224       ___acrt_disable_global_locale_sync 1001d224 f i libucrt:open.obj
 0001:0001c237       ___acrt_enable_global_locale_sync 1001d237 f i libucrt:open.obj
 0001:0001c24c       ___acrt_locale_changed     1001d24c f i libucrt:open.obj
 0001:0001c257       __invoke_watson_if_error   1001d257 f i libucrt:open.obj
 0001:0001c279       __open                     1001d279 f   libucrt:open.obj
 0001:0001c291       __sopen                    1001d291 f   libucrt:open.obj
 0001:0001c2c4       __sopen_dispatch           1001d2c4 f   libucrt:open.obj
 0001:0001c2cf       __sopen_nolock             1001d2cf f   libucrt:open.obj
 0001:0001c33d       __sopen_s                  1001d33d f   libucrt:open.obj
 0001:0001c35d       __wopen                    1001d35d f   libucrt:open.obj
 0001:0001c375       __wsopen                   1001d375 f   libucrt:open.obj
 0001:0001c3a8       __wsopen_dispatch          1001d3a8 f   libucrt:open.obj
 0001:0001c3b3       __wsopen_nolock            1001d3b3 f   libucrt:open.obj
 0001:0001c6dd       __wsopen_s                 1001d6dd f   libucrt:open.obj
 0001:0001c9d3       __wcstombs_l               1001d9d3 f   libucrt:wcstombs.obj
 0001:0001c9de       __wcstombs_s_l             1001d9de f   libucrt:wcstombs.obj
 0001:0001caa5       _wcstombs                  1001daa5 f   libucrt:wcstombs.obj
 0001:0001cabf       _wcstombs_s                1001dabf f   libucrt:wcstombs.obj
 0001:0001cadf       ??$?0ABV?$stream_output_adapter@D@__crt_stdio_output@@AB_KABQBDABQAU__crt_locale_pointers@@ABQAD@?$format_validation_base@DV?$stream_output_adapter@D@__crt_stdio_output@@@__crt_stdio_output@@IAE@ABV?$stream_output_adapter@D@1@AB_KABQBDABQAU__crt_locale_pointers@@ABQAD@Z 1001dadf f i libucrt:output.obj
 0001:0001cb02       ??$?0ABV?$stream_output_adapter@D@__crt_stdio_output@@AB_KABQBDABQAU__crt_locale_pointers@@ABQAD@?$positional_parameter_base@DV?$stream_output_adapter@D@__crt_stdio_output@@@__crt_stdio_output@@IAE@ABV?$stream_output_adapter@D@1@AB_KABQBDABQAU__crt_locale_pointers@@ABQAD@Z 1001db02 f i libucrt:output.obj
 0001:0001cb4a       ??$?0ABV?$stream_output_adapter@D@__crt_stdio_output@@AB_KABQBDABQAU__crt_locale_pointers@@ABQAD@?$standard_base@DV?$stream_output_adapter@D@__crt_stdio_output@@@__crt_stdio_output@@IAE@ABV?$stream_output_adapter@D@1@AB_KABQBDABQAU__crt_locale_pointers@@ABQAD@Z 1001db4a f i libucrt:output.obj
 0001:0001cb7f       ??$?0ABV?$stream_output_adapter@_W@__crt_stdio_output@@AB_KABQB_WABQAU__crt_locale_pointers@@ABQAD@?$format_validation_base@_WV?$stream_output_adapter@_W@__crt_stdio_output@@@__crt_stdio_output@@IAE@ABV?$stream_output_adapter@_W@1@AB_KABQB_WABQAU__crt_locale_pointers@@ABQAD@Z 1001db7f f i libucrt:output.obj
 0001:0001cba2       ??$?0ABV?$stream_output_adapter@_W@__crt_stdio_output@@AB_KABQB_WABQAU__crt_locale_pointers@@ABQAD@?$positional_parameter_base@_WV?$stream_output_adapter@_W@__crt_stdio_output@@@__crt_stdio_output@@IAE@ABV?$stream_output_adapter@_W@1@AB_KABQB_WABQAU__crt_locale_pointers@@ABQAD@Z 1001dba2 f i libucrt:output.obj
 0001:0001cbea       ??$?0ABV?$stream_output_adapter@_W@__crt_stdio_output@@AB_KABQB_WABQAU__crt_locale_pointers@@ABQAD@?$standard_base@_WV?$stream_output_adapter@_W@__crt_stdio_output@@@__crt_stdio_output@@IAE@ABV?$stream_output_adapter@_W@1@AB_KABQB_WABQAU__crt_locale_pointers@@ABQAD@Z 1001dbea f i libucrt:output.obj
 0001:0001cc1f       ??$?0ABV?$string_output_adapter@D@__crt_stdio_output@@AB_KABQBDABQAU__crt_locale_pointers@@ABQAD@?$format_validation_base@DV?$string_output_adapter@D@__crt_stdio_output@@@__crt_stdio_output@@IAE@ABV?$string_output_adapter@D@1@AB_KABQBDABQAU__crt_locale_pointers@@ABQAD@Z 1001dc1f f i libucrt:output.obj
 0001:0001cc42       ??$?0ABV?$string_output_adapter@D@__crt_stdio_output@@AB_KABQBDABQAU__crt_locale_pointers@@ABQAD@?$positional_parameter_base@DV?$string_output_adapter@D@__crt_stdio_output@@@__crt_stdio_output@@IAE@ABV?$string_output_adapter@D@1@AB_KABQBDABQAU__crt_locale_pointers@@ABQAD@Z 1001dc42 f i libucrt:output.obj
 0001:0001cc8a       ??$?0ABV?$string_output_adapter@D@__crt_stdio_output@@AB_KABQBDABQAU__crt_locale_pointers@@ABQAD@?$standard_base@DV?$string_output_adapter@D@__crt_stdio_output@@@__crt_stdio_output@@IAE@ABV?$string_output_adapter@D@1@AB_KABQBDABQAU__crt_locale_pointers@@ABQAD@Z 1001dc8a f i libucrt:output.obj
 0001:0001ccbf       ??$?0ABV?$string_output_adapter@_W@__crt_stdio_output@@AB_KABQB_WABQAU__crt_locale_pointers@@ABQAD@?$format_validation_base@_WV?$string_output_adapter@_W@__crt_stdio_output@@@__crt_stdio_output@@IAE@ABV?$string_output_adapter@_W@1@AB_KABQB_WABQAU__crt_locale_pointers@@ABQAD@Z 1001dcbf f i libucrt:output.obj
 0001:0001cce2       ??$?0ABV?$string_output_adapter@_W@__crt_stdio_output@@AB_KABQB_WABQAU__crt_locale_pointers@@ABQAD@?$positional_parameter_base@_WV?$string_output_adapter@_W@__crt_stdio_output@@@__crt_stdio_output@@IAE@ABV?$string_output_adapter@_W@1@AB_KABQB_WABQAU__crt_locale_pointers@@ABQAD@Z 1001dce2 f i libucrt:output.obj
 0001:0001cd2a       ??$?0ABV?$string_output_adapter@_W@__crt_stdio_output@@AB_KABQB_WABQAU__crt_locale_pointers@@ABQAD@?$standard_base@_WV?$string_output_adapter@_W@__crt_stdio_output@@@__crt_stdio_output@@IAE@ABV?$string_output_adapter@_W@1@AB_KABQB_WABQAU__crt_locale_pointers@@ABQAD@Z 1001dd2a f i libucrt:output.obj
 0001:0001d065       ??$__crt_interlocked_read@J@@YAJPDJ@Z 1001e065 f i libucrt:output.obj
 0001:0001df31       ??$count@D@formatting_buffer@__crt_stdio_output@@QBEIXZ 1001ef31 f i libucrt:output.obj
 0001:0001df49       ??$count@_W@formatting_buffer@__crt_stdio_output@@QBEIXZ 1001ef49 f i libucrt:output.obj
 0001:0001df62       ??$data@D@formatting_buffer@__crt_stdio_output@@QAEPADXZ 1001ef62 f i libucrt:output.obj
 0001:0001df6f       ??$data@_W@formatting_buffer@__crt_stdio_output@@QAEPA_WXZ 1001ef6f f i libucrt:output.obj
 0001:0001df7c       ??$ensure_buffer_is_big_enough@D@formatting_buffer@__crt_stdio_output@@QAE_NI@Z 1001ef7c f i libucrt:output.obj
 0001:0001dff9       ??$ensure_buffer_is_big_enough@_W@formatting_buffer@__crt_stdio_output@@QAE_NI@Z 1001eff9 f i libucrt:output.obj
 0001:0001e077       ??$extract_argument_from_va_list@C_J@?$positional_parameter_base@DV?$stream_output_adapter@D@__crt_stdio_output@@@__crt_stdio_output@@IAE_NAA_J@Z 1001f077 f i libucrt:output.obj
 0001:0001e0f0       ??$extract_argument_from_va_list@C_J@?$positional_parameter_base@DV?$string_output_adapter@D@__crt_stdio_output@@@__crt_stdio_output@@IAE_NAA_J@Z 1001f0f0 f i libucrt:output.obj
 0001:0001e169       ??$extract_argument_from_va_list@C_J@?$positional_parameter_base@_WV?$stream_output_adapter@_W@__crt_stdio_output@@@__crt_stdio_output@@IAE_NAA_J@Z 1001f169 f i libucrt:output.obj
 0001:0001e1e2       ??$extract_argument_from_va_list@C_J@?$positional_parameter_base@_WV?$string_output_adapter@_W@__crt_stdio_output@@@__crt_stdio_output@@IAE_NAA_J@Z 1001f1e2 f i libucrt:output.obj
 0001:0001e25b       ??$extract_argument_from_va_list@C_J@?$standard_base@DV?$stream_output_adapter@D@__crt_stdio_output@@@__crt_stdio_output@@IAE_NAA_J@Z 1001f25b f i libucrt:output.obj
 0001:0001e27a       ??$extract_argument_from_va_list@C_J@?$standard_base@DV?$string_output_adapter@D@__crt_stdio_output@@@__crt_stdio_output@@IAE_NAA_J@Z 1001f27a f i libucrt:output.obj
 0001:0001e299       ??$extract_argument_from_va_list@C_J@?$standard_base@_WV?$stream_output_adapter@_W@__crt_stdio_output@@@__crt_stdio_output@@IAE_NAA_J@Z 1001f299 f i libucrt:output.obj
 0001:0001e2b8       ??$extract_argument_from_va_list@C_J@?$standard_base@_WV?$string_output_adapter@_W@__crt_stdio_output@@@__crt_stdio_output@@IAE_NAA_J@Z 1001f2b8 f i libucrt:output.obj
 0001:0001e2d7       ??$extract_argument_from_va_list@E_J@?$positional_parameter_base@DV?$stream_output_adapter@D@__crt_stdio_output@@@__crt_stdio_output@@IAE_NAA_J@Z 1001f2d7 f i libucrt:output.obj
 0001:0001e350       ??$extract_argument_from_va_list@E_J@?$positional_parameter_base@DV?$string_output_adapter@D@__crt_stdio_output@@@__crt_stdio_output@@IAE_NAA_J@Z 1001f350 f i libucrt:output.obj
 0001:0001e3c9       ??$extract_argument_from_va_list@E_J@?$positional_parameter_base@_WV?$stream_output_adapter@_W@__crt_stdio_output@@@__crt_stdio_output@@IAE_NAA_J@Z 1001f3c9 f i libucrt:output.obj
 0001:0001e442       ??$extract_argument_from_va_list@E_J@?$positional_parameter_base@_WV?$string_output_adapter@_W@__crt_stdio_output@@@__crt_stdio_output@@IAE_NAA_J@Z 1001f442 f i libucrt:output.obj
 0001:0001e4bb       ??$extract_argument_from_va_list@E_J@?$standard_base@DV?$stream_output_adapter@D@__crt_stdio_output@@@__crt_stdio_output@@IAE_NAA_J@Z 1001f4bb f i libucrt:output.obj
 0001:0001e4da       ??$extract_argument_from_va_list@E_J@?$standard_base@DV?$string_output_adapter@D@__crt_stdio_output@@@__crt_stdio_output@@IAE_NAA_J@Z 1001f4da f i libucrt:output.obj
 0001:0001e4f9       ??$extract_argument_from_va_list@E_J@?$standard_base@_WV?$stream_output_adapter@_W@__crt_stdio_output@@@__crt_stdio_output@@IAE_NAA_J@Z 1001f4f9 f i libucrt:output.obj
 0001:0001e518       ??$extract_argument_from_va_list@E_J@?$standard_base@_WV?$string_output_adapter@_W@__crt_stdio_output@@@__crt_stdio_output@@IAE_NAA_J@Z 1001f518 f i libucrt:output.obj
 0001:0001e537       ??$extract_argument_from_va_list@F_J@?$positional_parameter_base@DV?$stream_output_adapter@D@__crt_stdio_output@@@__crt_stdio_output@@IAE_NAA_J@Z 1001f537 f i libucrt:output.obj
 0001:0001e5b0       ??$extract_argument_from_va_list@F_J@?$positional_parameter_base@DV?$string_output_adapter@D@__crt_stdio_output@@@__crt_stdio_output@@IAE_NAA_J@Z 1001f5b0 f i libucrt:output.obj
 0001:0001e629       ??$extract_argument_from_va_list@F_J@?$positional_parameter_base@_WV?$stream_output_adapter@_W@__crt_stdio_output@@@__crt_stdio_output@@IAE_NAA_J@Z 1001f629 f i libucrt:output.obj
 0001:0001e6a2       ??$extract_argument_from_va_list@F_J@?$positional_parameter_base@_WV?$string_output_adapter@_W@__crt_stdio_output@@@__crt_stdio_output@@IAE_NAA_J@Z 1001f6a2 f i libucrt:output.obj
 0001:0001e71b       ??$extract_argument_from_va_list@F_J@?$standard_base@DV?$stream_output_adapter@D@__crt_stdio_output@@@__crt_stdio_output@@IAE_NAA_J@Z 1001f71b f i libucrt:output.obj
 0001:0001e73a       ??$extract_argument_from_va_list@F_J@?$standard_base@DV?$string_output_adapter@D@__crt_stdio_output@@@__crt_stdio_output@@IAE_NAA_J@Z 1001f73a f i libucrt:output.obj
 0001:0001e759       ??$extract_argument_from_va_list@F_J@?$standard_base@_WV?$stream_output_adapter@_W@__crt_stdio_output@@@__crt_stdio_output@@IAE_NAA_J@Z 1001f759 f i libucrt:output.obj
 0001:0001e778       ??$extract_argument_from_va_list@F_J@?$standard_base@_WV?$string_output_adapter@_W@__crt_stdio_output@@@__crt_stdio_output@@IAE_NAA_J@Z 1001f778 f i libucrt:output.obj
 0001:0001e797       ??$extract_argument_from_va_list@GD@?$positional_parameter_base@DV?$stream_output_adapter@D@__crt_stdio_output@@@__crt_stdio_output@@IAE_NAAD@Z 1001f797 f i libucrt:output.obj
 0001:0001e80f       ??$extract_argument_from_va_list@GD@?$positional_parameter_base@DV?$string_output_adapter@D@__crt_stdio_output@@@__crt_stdio_output@@IAE_NAAD@Z 1001f80f f i libucrt:output.obj
 0001:0001e887       ??$extract_argument_from_va_list@GD@?$standard_base@DV?$stream_output_adapter@D@__crt_stdio_output@@@__crt_stdio_output@@IAE_NAAD@Z 1001f887 f i libucrt:output.obj
 0001:0001e8a1       ??$extract_argument_from_va_list@GD@?$standard_base@DV?$string_output_adapter@D@__crt_stdio_output@@@__crt_stdio_output@@IAE_NAAD@Z 1001f8a1 f i libucrt:output.obj
 0001:0001e8bb       ??$extract_argument_from_va_list@G_J@?$positional_parameter_base@DV?$stream_output_adapter@D@__crt_stdio_output@@@__crt_stdio_output@@IAE_NAA_J@Z 1001f8bb f i libucrt:output.obj
 0001:0001e934       ??$extract_argument_from_va_list@G_J@?$positional_parameter_base@DV?$string_output_adapter@D@__crt_stdio_output@@@__crt_stdio_output@@IAE_NAA_J@Z 1001f934 f i libucrt:output.obj
 0001:0001e9ad       ??$extract_argument_from_va_list@G_J@?$positional_parameter_base@_WV?$stream_output_adapter@_W@__crt_stdio_output@@@__crt_stdio_output@@IAE_NAA_J@Z 1001f9ad f i libucrt:output.obj
 0001:0001ea26       ??$extract_argument_from_va_list@G_J@?$positional_parameter_base@_WV?$string_output_adapter@_W@__crt_stdio_output@@@__crt_stdio_output@@IAE_NAA_J@Z 1001fa26 f i libucrt:output.obj
 0001:0001ea9f       ??$extract_argument_from_va_list@G_J@?$standard_base@DV?$stream_output_adapter@D@__crt_stdio_output@@@__crt_stdio_output@@IAE_NAA_J@Z 1001fa9f f i libucrt:output.obj
 0001:0001eabe       ??$extract_argument_from_va_list@G_J@?$standard_base@DV?$string_output_adapter@D@__crt_stdio_output@@@__crt_stdio_output@@IAE_NAA_J@Z 1001fabe f i libucrt:output.obj
 0001:0001eadd       ??$extract_argument_from_va_list@G_J@?$standard_base@_WV?$stream_output_adapter@_W@__crt_stdio_output@@@__crt_stdio_output@@IAE_NAA_J@Z 1001fadd f i libucrt:output.obj
 0001:0001eafc       ??$extract_argument_from_va_list@G_J@?$standard_base@_WV?$string_output_adapter@_W@__crt_stdio_output@@@__crt_stdio_output@@IAE_NAA_J@Z 1001fafc f i libucrt:output.obj
 0001:0001eb1b       ??$extract_argument_from_va_list@H_J@?$positional_parameter_base@DV?$stream_output_adapter@D@__crt_stdio_output@@@__crt_stdio_output@@IAE_NAA_J@Z 1001fb1b f i libucrt:output.obj
 0001:0001eb92       ??$extract_argument_from_va_list@H_J@?$positional_parameter_base@DV?$string_output_adapter@D@__crt_stdio_output@@@__crt_stdio_output@@IAE_NAA_J@Z 1001fb92 f i libucrt:output.obj
 0001:0001ec09       ??$extract_argument_from_va_list@H_J@?$positional_parameter_base@_WV?$stream_output_adapter@_W@__crt_stdio_output@@@__crt_stdio_output@@IAE_NAA_J@Z 1001fc09 f i libucrt:output.obj
 0001:0001ec80       ??$extract_argument_from_va_list@H_J@?$positional_parameter_base@_WV?$string_output_adapter@_W@__crt_stdio_output@@@__crt_stdio_output@@IAE_NAA_J@Z 1001fc80 f i libucrt:output.obj
 0001:0001ecf7       ??$extract_argument_from_va_list@H_J@?$standard_base@DV?$stream_output_adapter@D@__crt_stdio_output@@@__crt_stdio_output@@IAE_NAA_J@Z 1001fcf7 f i libucrt:output.obj
 0001:0001ed15       ??$extract_argument_from_va_list@H_J@?$standard_base@DV?$string_output_adapter@D@__crt_stdio_output@@@__crt_stdio_output@@IAE_NAA_J@Z 1001fd15 f i libucrt:output.obj
 0001:0001ed33       ??$extract_argument_from_va_list@H_J@?$standard_base@_WV?$stream_output_adapter@_W@__crt_stdio_output@@@__crt_stdio_output@@IAE_NAA_J@Z 1001fd33 f i libucrt:output.obj
 0001:0001ed51       ??$extract_argument_from_va_list@H_J@?$standard_base@_WV?$string_output_adapter@_W@__crt_stdio_output@@@__crt_stdio_output@@IAE_NAA_J@Z 1001fd51 f i libucrt:output.obj
 0001:0001ed6f       ??$extract_argument_from_va_list@I_J@?$positional_parameter_base@DV?$stream_output_adapter@D@__crt_stdio_output@@@__crt_stdio_output@@IAE_NAA_J@Z 1001fd6f f i libucrt:output.obj
 0001:0001edef       ??$extract_argument_from_va_list@I_J@?$positional_parameter_base@DV?$string_output_adapter@D@__crt_stdio_output@@@__crt_stdio_output@@IAE_NAA_J@Z 1001fdef f i libucrt:output.obj
 0001:0001ee6f       ??$extract_argument_from_va_list@I_J@?$positional_parameter_base@_WV?$stream_output_adapter@_W@__crt_stdio_output@@@__crt_stdio_output@@IAE_NAA_J@Z 1001fe6f f i libucrt:output.obj
 0001:0001eeef       ??$extract_argument_from_va_list@I_J@?$positional_parameter_base@_WV?$string_output_adapter@_W@__crt_stdio_output@@@__crt_stdio_output@@IAE_NAA_J@Z 1001feef f i libucrt:output.obj
 0001:0001ef6f       ??$extract_argument_from_va_list@I_J@?$standard_base@DV?$stream_output_adapter@D@__crt_stdio_output@@@__crt_stdio_output@@IAE_NAA_J@Z 1001ff6f f i libucrt:output.obj
 0001:0001ef8d       ??$extract_argument_from_va_list@I_J@?$standard_base@DV?$string_output_adapter@D@__crt_stdio_output@@@__crt_stdio_output@@IAE_NAA_J@Z 1001ff8d f i libucrt:output.obj
 0001:0001efab       ??$extract_argument_from_va_list@I_J@?$standard_base@_WV?$stream_output_adapter@_W@__crt_stdio_output@@@__crt_stdio_output@@IAE_NAA_J@Z 1001ffab f i libucrt:output.obj
 0001:0001efc9       ??$extract_argument_from_va_list@I_J@?$standard_base@_WV?$string_output_adapter@_W@__crt_stdio_output@@@__crt_stdio_output@@IAE_NAA_J@Z 1001ffc9 f i libucrt:output.obj
 0001:0001efe7       ??$extract_argument_from_va_list@PADPAD@?$positional_parameter_base@DV?$stream_output_adapter@D@__crt_stdio_output@@@__crt_stdio_output@@IAE_NAAPAD@Z 1001ffe7 f i libucrt:output.obj
 0001:0001f05f       ??$extract_argument_from_va_list@PADPAD@?$positional_parameter_base@DV?$string_output_adapter@D@__crt_stdio_output@@@__crt_stdio_output@@IAE_NAAPAD@Z 1002005f f i libucrt:output.obj
 0001:0001f0d7       ??$extract_argument_from_va_list@PADPAD@?$positional_parameter_base@_WV?$stream_output_adapter@_W@__crt_stdio_output@@@__crt_stdio_output@@IAE_NAAPAD@Z 100200d7 f i libucrt:output.obj
 0001:0001f14f       ??$extract_argument_from_va_list@PADPAD@?$positional_parameter_base@_WV?$string_output_adapter@_W@__crt_stdio_output@@@__crt_stdio_output@@IAE_NAAPAD@Z 1002014f f i libucrt:output.obj
 0001:0001f1c7       ??$extract_argument_from_va_list@PADPAD@?$standard_base@DV?$stream_output_adapter@D@__crt_stdio_output@@@__crt_stdio_output@@IAE_NAAPAD@Z 100201c7 f i libucrt:output.obj
 0001:0001f1e1       ??$extract_argument_from_va_list@PADPAD@?$standard_base@DV?$string_output_adapter@D@__crt_stdio_output@@@__crt_stdio_output@@IAE_NAAPAD@Z 100201e1 f i libucrt:output.obj
 0001:0001f1fb       ??$extract_argument_from_va_list@PADPAD@?$standard_base@_WV?$stream_output_adapter@_W@__crt_stdio_output@@@__crt_stdio_output@@IAE_NAAPAD@Z 100201fb f i libucrt:output.obj
 0001:0001f215       ??$extract_argument_from_va_list@PADPAD@?$standard_base@_WV?$string_output_adapter@_W@__crt_stdio_output@@@__crt_stdio_output@@IAE_NAAPAD@Z 10020215 f i libucrt:output.obj
 0001:0001f22f       ??$extract_argument_from_va_list@PAUansi_string@?1??type_case_Z@?$output_processor@DV?$stream_output_adapter@D@__crt_stdio_output@@V?$format_validation_base@DV?$stream_output_adapter@D@__crt_stdio_output@@@2@@__crt_stdio_output@@AAE_NXZ@PAU1?1??234@AAE_NXZ@@?$standard_base@DV?$stream_output_adapter@D@__crt_stdio_output@@@__crt_stdio_output@@IAE_NAAPAUansi_string@?1??type_case_Z@?$output_processor@DV?$stream_output_adapter@D@__crt_stdio_output@@V?$format_validation_base@DV?$stream_output_adapter@D@__crt_stdio_output@@@2@@1@AAE_NXZ@@Z 1002022f f i libucrt:output.obj
 0001:0001f249       ??$extract_argument_from_va_list@PAUansi_string@?1??type_case_Z@?$output_processor@DV?$stream_output_adapter@D@__crt_stdio_output@@V?$positional_parameter_base@DV?$stream_output_adapter@D@__crt_stdio_output@@@2@@__crt_stdio_output@@AAE_NXZ@PAU1?1??234@AAE_NXZ@@?$positional_parameter_base@DV?$stream_output_adapter@D@__crt_stdio_output@@@__crt_stdio_output@@IAE_NAAPAUansi_string@?1??type_case_Z@?$output_processor@DV?$stream_output_adapter@D@__crt_stdio_output@@V?$positional_parameter_base@DV?$stream_output_adapter@D@__crt_stdio_output@@@2@@1@AAE_NXZ@@Z 10020249 f i libucrt:output.obj
 0001:0001f2c1       ??$extract_argument_from_va_list@PAUansi_string@?1??type_case_Z@?$output_processor@DV?$stream_output_adapter@D@__crt_stdio_output@@V?$positional_parameter_base@DV?$stream_output_adapter@D@__crt_stdio_output@@@2@@__crt_stdio_output@@AAE_NXZ@PAU1?1??234@AAE_NXZ@@?$standard_base@DV?$stream_output_adapter@D@__crt_stdio_output@@@__crt_stdio_output@@IAE_NAAPAUansi_string@?1??type_case_Z@?$output_processor@DV?$stream_output_adapter@D@__crt_stdio_output@@V?$positional_parameter_base@DV?$stream_output_adapter@D@__crt_stdio_output@@@2@@1@AAE_NXZ@@Z 100202c1 f i libucrt:output.obj
 0001:0001f2db       ??$extract_argument_from_va_list@PAUansi_string@?1??type_case_Z@?$output_processor@DV?$stream_output_adapter@D@__crt_stdio_output@@V?$standard_base@DV?$stream_output_adapter@D@__crt_stdio_output@@@2@@__crt_stdio_output@@AAE_NXZ@PAU1?1??234@AAE_NXZ@@?$standard_base@DV?$stream_output_adapter@D@__crt_stdio_output@@@__crt_stdio_output@@IAE_NAAPAUansi_string@?1??type_case_Z@?$output_processor@DV?$stream_output_adapter@D@__crt_stdio_output@@V?$standard_base@DV?$stream_output_adapter@D@__crt_stdio_output@@@2@@1@AAE_NXZ@@Z 100202db f i libucrt:output.obj
 0001:0001f2f5       ??$extract_argument_from_va_list@PAUansi_string@?1??type_case_Z@?$output_processor@DV?$string_output_adapter@D@__crt_stdio_output@@V?$format_validation_base@DV?$string_output_adapter@D@__crt_stdio_output@@@2@@__crt_stdio_output@@AAE_NXZ@PAU1?1??234@AAE_NXZ@@?$standard_base@DV?$string_output_adapter@D@__crt_stdio_output@@@__crt_stdio_output@@IAE_NAAPAUansi_string@?1??type_case_Z@?$output_processor@DV?$string_output_adapter@D@__crt_stdio_output@@V?$format_validation_base@DV?$string_output_adapter@D@__crt_stdio_output@@@2@@1@AAE_NXZ@@Z 100202f5 f i libucrt:output.obj
 0001:0001f30f       ??$extract_argument_from_va_list@PAUansi_string@?1??type_case_Z@?$output_processor@DV?$string_output_adapter@D@__crt_stdio_output@@V?$positional_parameter_base@DV?$string_output_adapter@D@__crt_stdio_output@@@2@@__crt_stdio_output@@AAE_NXZ@PAU1?1??234@AAE_NXZ@@?$positional_parameter_base@DV?$string_output_adapter@D@__crt_stdio_output@@@__crt_stdio_output@@IAE_NAAPAUansi_string@?1??type_case_Z@?$output_processor@DV?$string_output_adapter@D@__crt_stdio_output@@V?$positional_parameter_base@DV?$string_output_adapter@D@__crt_stdio_output@@@2@@1@AAE_NXZ@@Z 1002030f f i libucrt:output.obj
 0001:0001f387       ??$extract_argument_from_va_list@PAUansi_string@?1??type_case_Z@?$output_processor@DV?$string_output_adapter@D@__crt_stdio_output@@V?$positional_parameter_base@DV?$string_output_adapter@D@__crt_stdio_output@@@2@@__crt_stdio_output@@AAE_NXZ@PAU1?1??234@AAE_NXZ@@?$standard_base@DV?$string_output_adapter@D@__crt_stdio_output@@@__crt_stdio_output@@IAE_NAAPAUansi_string@?1??type_case_Z@?$output_processor@DV?$string_output_adapter@D@__crt_stdio_output@@V?$positional_parameter_base@DV?$string_output_adapter@D@__crt_stdio_output@@@2@@1@AAE_NXZ@@Z 10020387 f i libucrt:output.obj
 0001:0001f3a1       ??$extract_argument_from_va_list@PAUansi_string@?1??type_case_Z@?$output_processor@DV?$string_output_adapter@D@__crt_stdio_output@@V?$standard_base@DV?$string_output_adapter@D@__crt_stdio_output@@@2@@__crt_stdio_output@@AAE_NXZ@PAU1?1??234@AAE_NXZ@@?$standard_base@DV?$string_output_adapter@D@__crt_stdio_output@@@__crt_stdio_output@@IAE_NAAPAUansi_string@?1??type_case_Z@?$output_processor@DV?$string_output_adapter@D@__crt_stdio_output@@V?$standard_base@DV?$string_output_adapter@D@__crt_stdio_output@@@2@@1@AAE_NXZ@@Z 100203a1 f i libucrt:output.obj
 0001:0001f3bb       ??$extract_argument_from_va_list@PAUansi_string@?1??type_case_Z@?$output_processor@_WV?$stream_output_adapter@_W@__crt_stdio_output@@V?$format_validation_base@_WV?$stream_output_adapter@_W@__crt_stdio_output@@@2@@__crt_stdio_output@@AAE_NXZ@PAU1?1??234@AAE_NXZ@@?$standard_base@_WV?$stream_output_adapter@_W@__crt_stdio_output@@@__crt_stdio_output@@IAE_NAAPAUansi_string@?1??type_case_Z@?$output_processor@_WV?$stream_output_adapter@_W@__crt_stdio_output@@V?$format_validation_base@_WV?$stream_output_adapter@_W@__crt_stdio_output@@@2@@1@AAE_NXZ@@Z 100203bb f i libucrt:output.obj
 0001:0001f3d5       ??$extract_argument_from_va_list@PAUansi_string@?1??type_case_Z@?$output_processor@_WV?$stream_output_adapter@_W@__crt_stdio_output@@V?$positional_parameter_base@_WV?$stream_output_adapter@_W@__crt_stdio_output@@@2@@__crt_stdio_output@@AAE_NXZ@PAU1?1??234@AAE_NXZ@@?$positional_parameter_base@_WV?$stream_output_adapter@_W@__crt_stdio_output@@@__crt_stdio_output@@IAE_NAAPAUansi_string@?1??type_case_Z@?$output_processor@_WV?$stream_output_adapter@_W@__crt_stdio_output@@V?$positional_parameter_base@_WV?$stream_output_adapter@_W@__crt_stdio_output@@@2@@1@AAE_NXZ@@Z 100203d5 f i libucrt:output.obj
 0001:0001f44d       ??$extract_argument_from_va_list@PAUansi_string@?1??type_case_Z@?$output_processor@_WV?$stream_output_adapter@_W@__crt_stdio_output@@V?$positional_parameter_base@_WV?$stream_output_adapter@_W@__crt_stdio_output@@@2@@__crt_stdio_output@@AAE_NXZ@PAU1?1??234@AAE_NXZ@@?$standard_base@_WV?$stream_output_adapter@_W@__crt_stdio_output@@@__crt_stdio_output@@IAE_NAAPAUansi_string@?1??type_case_Z@?$output_processor@_WV?$stream_output_adapter@_W@__crt_stdio_output@@V?$positional_parameter_base@_WV?$stream_output_adapter@_W@__crt_stdio_output@@@2@@1@AAE_NXZ@@Z 1002044d f i libucrt:output.obj
 0001:0001f467       ??$extract_argument_from_va_list@PAUansi_string@?1??type_case_Z@?$output_processor@_WV?$stream_output_adapter@_W@__crt_stdio_output@@V?$standard_base@_WV?$stream_output_adapter@_W@__crt_stdio_output@@@2@@__crt_stdio_output@@AAE_NXZ@PAU1?1??234@AAE_NXZ@@?$standard_base@_WV?$stream_output_adapter@_W@__crt_stdio_output@@@__crt_stdio_output@@IAE_NAAPAUansi_string@?1??type_case_Z@?$output_processor@_WV?$stream_output_adapter@_W@__crt_stdio_output@@V?$standard_base@_WV?$stream_output_adapter@_W@__crt_stdio_output@@@2@@1@AAE_NXZ@@Z 10020467 f i libucrt:output.obj
 0001:0001f481       ??$extract_argument_from_va_list@PAUansi_string@?1??type_case_Z@?$output_processor@_WV?$string_output_adapter@_W@__crt_stdio_output@@V?$format_validation_base@_WV?$string_output_adapter@_W@__crt_stdio_output@@@2@@__crt_stdio_output@@AAE_NXZ@PAU1?1??234@AAE_NXZ@@?$standard_base@_WV?$string_output_adapter@_W@__crt_stdio_output@@@__crt_stdio_output@@IAE_NAAPAUansi_string@?1??type_case_Z@?$output_processor@_WV?$string_output_adapter@_W@__crt_stdio_output@@V?$format_validation_base@_WV?$string_output_adapter@_W@__crt_stdio_output@@@2@@1@AAE_NXZ@@Z 10020481 f i libucrt:output.obj
 0001:0001f49b       ??$extract_argument_from_va_list@PAUansi_string@?1??type_case_Z@?$output_processor@_WV?$string_output_adapter@_W@__crt_stdio_output@@V?$positional_parameter_base@_WV?$string_output_adapter@_W@__crt_stdio_output@@@2@@__crt_stdio_output@@AAE_NXZ@PAU1?1??234@AAE_NXZ@@?$positional_parameter_base@_WV?$string_output_adapter@_W@__crt_stdio_output@@@__crt_stdio_output@@IAE_NAAPAUansi_string@?1??type_case_Z@?$output_processor@_WV?$string_output_adapter@_W@__crt_stdio_output@@V?$positional_parameter_base@_WV?$string_output_adapter@_W@__crt_stdio_output@@@2@@1@AAE_NXZ@@Z 1002049b f i libucrt:output.obj
 0001:0001f513       ??$extract_argument_from_va_list@PAUansi_string@?1??type_case_Z@?$output_processor@_WV?$string_output_adapter@_W@__crt_stdio_output@@V?$positional_parameter_base@_WV?$string_output_adapter@_W@__crt_stdio_output@@@2@@__crt_stdio_output@@AAE_NXZ@PAU1?1??234@AAE_NXZ@@?$standard_base@_WV?$string_output_adapter@_W@__crt_stdio_output@@@__crt_stdio_output@@IAE_NAAPAUansi_string@?1??type_case_Z@?$output_processor@_WV?$string_output_adapter@_W@__crt_stdio_output@@V?$positional_parameter_base@_WV?$string_output_adapter@_W@__crt_stdio_output@@@2@@1@AAE_NXZ@@Z 10020513 f i libucrt:output.obj
 0001:0001f52d       ??$extract_argument_from_va_list@PAUansi_string@?1??type_case_Z@?$output_processor@_WV?$string_output_adapter@_W@__crt_stdio_output@@V?$standard_base@_WV?$string_output_adapter@_W@__crt_stdio_output@@@2@@__crt_stdio_output@@AAE_NXZ@PAU1?1??234@AAE_NXZ@@?$standard_base@_WV?$string_output_adapter@_W@__crt_stdio_output@@@__crt_stdio_output@@IAE_NAAPAUansi_string@?1??type_case_Z@?$output_processor@_WV?$string_output_adapter@_W@__crt_stdio_output@@V?$standard_base@_WV?$string_output_adapter@_W@__crt_stdio_output@@@2@@1@AAE_NXZ@@Z 1002052d f i libucrt:output.obj
 0001:0001f547       ??$extract_argument_from_va_list@PAXPAX@?$positional_parameter_base@DV?$stream_output_adapter@D@__crt_stdio_output@@@__crt_stdio_output@@IAE_NAAPAX@Z 10020547 f i libucrt:output.obj
 0001:0001f5bf       ??$extract_argument_from_va_list@PAXPAX@?$positional_parameter_base@DV?$string_output_adapter@D@__crt_stdio_output@@@__crt_stdio_output@@IAE_NAAPAX@Z 100205bf f i libucrt:output.obj
 0001:0001f637       ??$extract_argument_from_va_list@PAXPAX@?$positional_parameter_base@_WV?$stream_output_adapter@_W@__crt_stdio_output@@@__crt_stdio_output@@IAE_NAAPAX@Z 10020637 f i libucrt:output.obj
 0001:0001f6af       ??$extract_argument_from_va_list@PAXPAX@?$positional_parameter_base@_WV?$string_output_adapter@_W@__crt_stdio_output@@@__crt_stdio_output@@IAE_NAAPAX@Z 100206af f i libucrt:output.obj
 0001:0001f727       ??$extract_argument_from_va_list@PAXPAX@?$standard_base@DV?$stream_output_adapter@D@__crt_stdio_output@@@__crt_stdio_output@@IAE_NAAPAX@Z 10020727 f i libucrt:output.obj
 0001:0001f741       ??$extract_argument_from_va_list@PAXPAX@?$standard_base@DV?$string_output_adapter@D@__crt_stdio_output@@@__crt_stdio_output@@IAE_NAAPAX@Z 10020741 f i libucrt:output.obj
 0001:0001f75b       ??$extract_argument_from_va_list@PAXPAX@?$standard_base@_WV?$stream_output_adapter@_W@__crt_stdio_output@@@__crt_stdio_output@@IAE_NAAPAX@Z 1002075b f i libucrt:output.obj
 0001:0001f775       ??$extract_argument_from_va_list@PAXPAX@?$standard_base@_WV?$string_output_adapter@_W@__crt_stdio_output@@@__crt_stdio_output@@IAE_NAAPAX@Z 10020775 f i libucrt:output.obj
 0001:0001f78f       ??$extract_argument_from_va_list@U_CRT_DOUBLE@@U1@@?$positional_parameter_base@DV?$stream_output_adapter@D@__crt_stdio_output@@@__crt_stdio_output@@IAE_NAAU_CRT_DOUBLE@@@Z 1002078f f i libucrt:output.obj
 0001:0001f815       ??$extract_argument_from_va_list@U_CRT_DOUBLE@@U1@@?$positional_parameter_base@DV?$string_output_adapter@D@__crt_stdio_output@@@__crt_stdio_output@@IAE_NAAU_CRT_DOUBLE@@@Z 10020815 f i libucrt:output.obj
 0001:0001f89b       ??$extract_argument_from_va_list@U_CRT_DOUBLE@@U1@@?$positional_parameter_base@_WV?$stream_output_adapter@_W@__crt_stdio_output@@@__crt_stdio_output@@IAE_NAAU_CRT_DOUBLE@@@Z 1002089b f i libucrt:output.obj
 0001:0001f921       ??$extract_argument_from_va_list@U_CRT_DOUBLE@@U1@@?$positional_parameter_base@_WV?$string_output_adapter@_W@__crt_stdio_output@@@__crt_stdio_output@@IAE_NAAU_CRT_DOUBLE@@@Z 10020921 f i libucrt:output.obj
 0001:0001f9a7       ??$extract_argument_from_va_list@U_CRT_DOUBLE@@U1@@?$standard_base@DV?$stream_output_adapter@D@__crt_stdio_output@@@__crt_stdio_output@@IAE_NAAU_CRT_DOUBLE@@@Z 100209a7 f i libucrt:output.obj
 0001:0001f9c7       ??$extract_argument_from_va_list@U_CRT_DOUBLE@@U1@@?$standard_base@DV?$string_output_adapter@D@__crt_stdio_output@@@__crt_stdio_output@@IAE_NAAU_CRT_DOUBLE@@@Z 100209c7 f i libucrt:output.obj
 0001:0001f9e7       ??$extract_argument_from_va_list@U_CRT_DOUBLE@@U1@@?$standard_base@_WV?$stream_output_adapter@_W@__crt_stdio_output@@@__crt_stdio_output@@IAE_NAAU_CRT_DOUBLE@@@Z 100209e7 f i libucrt:output.obj
 0001:0001fa07       ??$extract_argument_from_va_list@U_CRT_DOUBLE@@U1@@?$standard_base@_WV?$string_output_adapter@_W@__crt_stdio_output@@@__crt_stdio_output@@IAE_NAAU_CRT_DOUBLE@@@Z 10020a07 f i libucrt:output.obj
 0001:0001fa27       ??$extract_argument_from_va_list@_J_J@?$positional_parameter_base@DV?$stream_output_adapter@D@__crt_stdio_output@@@__crt_stdio_output@@IAE_NAA_J@Z 10020a27 f i libucrt:output.obj
 0001:0001faad       ??$extract_argument_from_va_list@_J_J@?$positional_parameter_base@DV?$string_output_adapter@D@__crt_stdio_output@@@__crt_stdio_output@@IAE_NAA_J@Z 10020aad f i libucrt:output.obj
 0001:0001fb33       ??$extract_argument_from_va_list@_J_J@?$positional_parameter_base@_WV?$stream_output_adapter@_W@__crt_stdio_output@@@__crt_stdio_output@@IAE_NAA_J@Z 10020b33 f i libucrt:output.obj
 0001:0001fbb9       ??$extract_argument_from_va_list@_J_J@?$positional_parameter_base@_WV?$string_output_adapter@_W@__crt_stdio_output@@@__crt_stdio_output@@IAE_NAA_J@Z 10020bb9 f i libucrt:output.obj
 0001:0001fc3f       ??$extract_argument_from_va_list@_J_J@?$standard_base@DV?$stream_output_adapter@D@__crt_stdio_output@@@__crt_stdio_output@@IAE_NAA_J@Z 10020c3f f i libucrt:output.obj
 0001:0001fc5f       ??$extract_argument_from_va_list@_J_J@?$standard_base@DV?$string_output_adapter@D@__crt_stdio_output@@@__crt_stdio_output@@IAE_NAA_J@Z 10020c5f f i libucrt:output.obj
 0001:0001fc7f       ??$extract_argument_from_va_list@_J_J@?$standard_base@_WV?$stream_output_adapter@_W@__crt_stdio_output@@@__crt_stdio_output@@IAE_NAA_J@Z 10020c7f f i libucrt:output.obj
 0001:0001fc9f       ??$extract_argument_from_va_list@_J_J@?$standard_base@_WV?$string_output_adapter@_W@__crt_stdio_output@@@__crt_stdio_output@@IAE_NAA_J@Z 10020c9f f i libucrt:output.obj
 0001:0001fcbf       ??$extract_argument_from_va_list@_K_J@?$positional_parameter_base@DV?$stream_output_adapter@D@__crt_stdio_output@@@__crt_stdio_output@@IAE_NAA_J@Z 10020cbf f i libucrt:output.obj
 0001:0001fd45       ??$extract_argument_from_va_list@_K_J@?$positional_parameter_base@DV?$string_output_adapter@D@__crt_stdio_output@@@__crt_stdio_output@@IAE_NAA_J@Z 10020d45 f i libucrt:output.obj
 0001:0001fdcb       ??$extract_argument_from_va_list@_K_J@?$positional_parameter_base@_WV?$stream_output_adapter@_W@__crt_stdio_output@@@__crt_stdio_output@@IAE_NAA_J@Z 10020dcb f i libucrt:output.obj
 0001:0001fe51       ??$extract_argument_from_va_list@_K_J@?$positional_parameter_base@_WV?$string_output_adapter@_W@__crt_stdio_output@@@__crt_stdio_output@@IAE_NAA_J@Z 10020e51 f i libucrt:output.obj
 0001:0001fed7       ??$extract_argument_from_va_list@_K_J@?$standard_base@DV?$stream_output_adapter@D@__crt_stdio_output@@@__crt_stdio_output@@IAE_NAA_J@Z 10020ed7 f i libucrt:output.obj
 0001:0001fef7       ??$extract_argument_from_va_list@_K_J@?$standard_base@DV?$string_output_adapter@D@__crt_stdio_output@@@__crt_stdio_output@@IAE_NAA_J@Z 10020ef7 f i libucrt:output.obj
 0001:0001ff17       ??$extract_argument_from_va_list@_K_J@?$standard_base@_WV?$stream_output_adapter@_W@__crt_stdio_output@@@__crt_stdio_output@@IAE_NAA_J@Z 10020f17 f i libucrt:output.obj
 0001:0001ff37       ??$extract_argument_from_va_list@_K_J@?$standard_base@_WV?$string_output_adapter@_W@__crt_stdio_output@@@__crt_stdio_output@@IAE_NAA_J@Z 10020f37 f i libucrt:output.obj
 0001:0001ff57       ??$extract_argument_from_va_list@_W_W@?$positional_parameter_base@DV?$stream_output_adapter@D@__crt_stdio_output@@@__crt_stdio_output@@IAE_NAA_W@Z 10020f57 f i libucrt:output.obj
 0001:0001ffd3       ??$extract_argument_from_va_list@_W_W@?$positional_parameter_base@DV?$string_output_adapter@D@__crt_stdio_output@@@__crt_stdio_output@@IAE_NAA_W@Z 10020fd3 f i libucrt:output.obj
 0001:0002004f       ??$extract_argument_from_va_list@_W_W@?$positional_parameter_base@_WV?$stream_output_adapter@_W@__crt_stdio_output@@@__crt_stdio_output@@IAE_NAA_W@Z 1002104f f i libucrt:output.obj
 0001:000200cb       ??$extract_argument_from_va_list@_W_W@?$positional_parameter_base@_WV?$string_output_adapter@_W@__crt_stdio_output@@@__crt_stdio_output@@IAE_NAA_W@Z 100210cb f i libucrt:output.obj
 0001:00020147       ??$extract_argument_from_va_list@_W_W@?$standard_base@DV?$stream_output_adapter@D@__crt_stdio_output@@@__crt_stdio_output@@IAE_NAA_W@Z 10021147 f i libucrt:output.obj
 0001:00020163       ??$extract_argument_from_va_list@_W_W@?$standard_base@DV?$string_output_adapter@D@__crt_stdio_output@@@__crt_stdio_output@@IAE_NAA_W@Z 10021163 f i libucrt:output.obj
 0001:0002017f       ??$extract_argument_from_va_list@_W_W@?$standard_base@_WV?$stream_output_adapter@_W@__crt_stdio_output@@@__crt_stdio_output@@IAE_NAA_W@Z 1002117f f i libucrt:output.obj
 0001:0002019b       ??$extract_argument_from_va_list@_W_W@?$standard_base@_WV?$string_output_adapter@_W@__crt_stdio_output@@@__crt_stdio_output@@IAE_NAA_W@Z 1002119b f i libucrt:output.obj
 0001:000201b7       ??$get_parameter_type@D@?$positional_parameter_base@DV?$stream_output_adapter@D@__crt_stdio_output@@@__crt_stdio_output@@CA?AW4parameter_type@01@PAD@Z 100211b7 f i libucrt:output.obj
 0001:000201bb       ??$get_parameter_type@D@?$positional_parameter_base@DV?$string_output_adapter@D@__crt_stdio_output@@@__crt_stdio_output@@CA?AW4parameter_type@01@PAD@Z 100211bb f i libucrt:output.obj
 0001:000201bf       ??$get_parameter_type@D@?$positional_parameter_base@_WV?$stream_output_adapter@_W@__crt_stdio_output@@@__crt_stdio_output@@CA?AW4parameter_type@01@PAD@Z 100211bf f i libucrt:output.obj
 0001:000201c3       ??$get_parameter_type@D@?$positional_parameter_base@_WV?$string_output_adapter@_W@__crt_stdio_output@@@__crt_stdio_output@@CA?AW4parameter_type@01@PAD@Z 100211c3 f i libucrt:output.obj
 0001:000201c7       ??$get_parameter_type@Uansi_string@?1??type_case_Z@?$output_processor@DV?$stream_output_adapter@D@__crt_stdio_output@@V?$positional_parameter_base@DV?$stream_output_adapter@D@__crt_stdio_output@@@2@@__crt_stdio_output@@AAE_NXZ@@?$positional_parameter_base@DV?$stream_output_adapter@D@__crt_stdio_output@@@__crt_stdio_output@@CA?AW4parameter_type@01@PAUansi_string@?1??type_case_Z@?$output_processor@DV?$stream_output_adapter@D@__crt_stdio_output@@V?$positional_parameter_base@DV?$stream_output_adapter@D@__crt_stdio_output@@@2@@1@AAE_NXZ@@Z 100211c7 f i libucrt:output.obj
 0001:000201cb       ??$get_parameter_type@Uansi_string@?1??type_case_Z@?$output_processor@DV?$string_output_adapter@D@__crt_stdio_output@@V?$positional_parameter_base@DV?$string_output_adapter@D@__crt_stdio_output@@@2@@__crt_stdio_output@@AAE_NXZ@@?$positional_parameter_base@DV?$string_output_adapter@D@__crt_stdio_output@@@__crt_stdio_output@@CA?AW4parameter_type@01@PAUansi_string@?1??type_case_Z@?$output_processor@DV?$string_output_adapter@D@__crt_stdio_output@@V?$positional_parameter_base@DV?$string_output_adapter@D@__crt_stdio_output@@@2@@1@AAE_NXZ@@Z 100211cb f i libucrt:output.obj
 0001:000201cf       ??$get_parameter_type@Uansi_string@?1??type_case_Z@?$output_processor@_WV?$stream_output_adapter@_W@__crt_stdio_output@@V?$positional_parameter_base@_WV?$stream_output_adapter@_W@__crt_stdio_output@@@2@@__crt_stdio_output@@AAE_NXZ@@?$positional_parameter_base@_WV?$stream_output_adapter@_W@__crt_stdio_output@@@__crt_stdio_output@@CA?AW4parameter_type@01@PAUansi_string@?1??type_case_Z@?$output_processor@_WV?$stream_output_adapter@_W@__crt_stdio_output@@V?$positional_parameter_base@_WV?$stream_output_adapter@_W@__crt_stdio_output@@@2@@1@AAE_NXZ@@Z 100211cf f i libucrt:output.obj
 0001:000201d3       ??$get_parameter_type@Uansi_string@?1??type_case_Z@?$output_processor@_WV?$string_output_adapter@_W@__crt_stdio_output@@V?$positional_parameter_base@_WV?$string_output_adapter@_W@__crt_stdio_output@@@2@@__crt_stdio_output@@AAE_NXZ@@?$positional_parameter_base@_WV?$string_output_adapter@_W@__crt_stdio_output@@@__crt_stdio_output@@CA?AW4parameter_type@01@PAUansi_string@?1??type_case_Z@?$output_processor@_WV?$string_output_adapter@_W@__crt_stdio_output@@V?$positional_parameter_base@_WV?$string_output_adapter@_W@__crt_stdio_output@@@2@@1@AAE_NXZ@@Z 100211d3 f i libucrt:output.obj
 0001:000201d7       ??$get_parameter_type@X@?$positional_parameter_base@DV?$stream_output_adapter@D@__crt_stdio_output@@@__crt_stdio_output@@CA?AW4parameter_type@01@PAX@Z 100211d7 f i libucrt:output.obj
 0001:000201db       ??$get_parameter_type@X@?$positional_parameter_base@DV?$string_output_adapter@D@__crt_stdio_output@@@__crt_stdio_output@@CA?AW4parameter_type@01@PAX@Z 100211db f i libucrt:output.obj
 0001:000201df       ??$get_parameter_type@X@?$positional_parameter_base@_WV?$stream_output_adapter@_W@__crt_stdio_output@@@__crt_stdio_output@@CA?AW4parameter_type@01@PAX@Z 100211df f i libucrt:output.obj
 0001:000201e3       ??$get_parameter_type@X@?$positional_parameter_base@_WV?$string_output_adapter@_W@__crt_stdio_output@@@__crt_stdio_output@@CA?AW4parameter_type@01@PAX@Z 100211e3 f i libucrt:output.obj
 0001:000201e7       ??$is_character_specifier@D@?$positional_parameter_base@DV?$stream_output_adapter@D@__crt_stdio_output@@@__crt_stdio_output@@CA_ND@Z 100211e7 f i libucrt:output.obj
 0001:000201ff       ??$is_character_specifier@D@?$positional_parameter_base@DV?$string_output_adapter@D@__crt_stdio_output@@@__crt_stdio_output@@CA_ND@Z 100211ff f i libucrt:output.obj
 0001:00020217       ??$is_character_specifier@_W@?$positional_parameter_base@_WV?$stream_output_adapter@_W@__crt_stdio_output@@@__crt_stdio_output@@CA_N_W@Z 10021217 f i libucrt:output.obj
 0001:00020232       ??$is_character_specifier@_W@?$positional_parameter_base@_WV?$string_output_adapter@_W@__crt_stdio_output@@@__crt_stdio_output@@CA_N_W@Z 10021232 f i libucrt:output.obj
 0001:0002024d       ??$is_integral_specifier@D@?$positional_parameter_base@DV?$stream_output_adapter@D@__crt_stdio_output@@@__crt_stdio_output@@CA_ND@Z 1002124d f i libucrt:output.obj
 0001:00020279       ??$is_integral_specifier@D@?$positional_parameter_base@DV?$string_output_adapter@D@__crt_stdio_output@@@__crt_stdio_output@@CA_ND@Z 10021279 f i libucrt:output.obj
 0001:000202a5       ??$is_integral_specifier@_W@?$positional_parameter_base@_WV?$stream_output_adapter@_W@__crt_stdio_output@@@__crt_stdio_output@@CA_N_W@Z 100212a5 f i libucrt:output.obj
 0001:000202e0       ??$is_integral_specifier@_W@?$positional_parameter_base@_WV?$string_output_adapter@_W@__crt_stdio_output@@@__crt_stdio_output@@CA_N_W@Z 100212e0 f i libucrt:output.obj
 0001:0002031b       ??$is_pointer_specifier@D@?$positional_parameter_base@DV?$stream_output_adapter@D@__crt_stdio_output@@@__crt_stdio_output@@CA_ND@Z 1002131b f i libucrt:output.obj
 0001:00020329       ??$is_pointer_specifier@D@?$positional_parameter_base@DV?$string_output_adapter@D@__crt_stdio_output@@@__crt_stdio_output@@CA_ND@Z 10021329 f i libucrt:output.obj
 0001:00020337       ??$is_pointer_specifier@_W@?$positional_parameter_base@_WV?$stream_output_adapter@_W@__crt_stdio_output@@@__crt_stdio_output@@CA_N_W@Z 10021337 f i libucrt:output.obj
 0001:00020346       ??$is_pointer_specifier@_W@?$positional_parameter_base@_WV?$string_output_adapter@_W@__crt_stdio_output@@@__crt_stdio_output@@CA_N_W@Z 10021346 f i libucrt:output.obj
 0001:00020355       ??$is_string_specifier@D@?$positional_parameter_base@DV?$stream_output_adapter@D@__crt_stdio_output@@@__crt_stdio_output@@CA_ND@Z 10021355 f i libucrt:output.obj
 0001:0002036d       ??$is_string_specifier@D@?$positional_parameter_base@DV?$string_output_adapter@D@__crt_stdio_output@@@__crt_stdio_output@@CA_ND@Z 1002136d f i libucrt:output.obj
 0001:00020385       ??$is_string_specifier@_W@?$positional_parameter_base@_WV?$stream_output_adapter@_W@__crt_stdio_output@@@__crt_stdio_output@@CA_N_W@Z 10021385 f i libucrt:output.obj
 0001:000203a0       ??$is_string_specifier@_W@?$positional_parameter_base@_WV?$string_output_adapter@_W@__crt_stdio_output@@@__crt_stdio_output@@CA_N_W@Z 100213a0 f i libucrt:output.obj
 0001:000203bb       ??$is_wide_character_specifier@D@__crt_stdio_output@@YA_N_KDW4length_modifier@0@@Z 100213bb f i libucrt:output.obj
 0001:000203ec       ??$is_wide_character_specifier@_W@__crt_stdio_output@@YA_N_K_WW4length_modifier@0@@Z 100213ec f i libucrt:output.obj
 0001:0002043a       ??$peek_va_arg@C@__crt_stdio_output@@YACPAD@Z 1002143a f i libucrt:output.obj
 0001:00020446       ??$peek_va_arg@E@__crt_stdio_output@@YAEPAD@Z 10021446 f i libucrt:output.obj
 0001:00020452       ??$peek_va_arg@F@__crt_stdio_output@@YAFPAD@Z 10021452 f i libucrt:output.obj
 0001:0002045f       ??$peek_va_arg@G@__crt_stdio_output@@YAGPAD@Z 1002145f f i libucrt:output.obj
 0001:0002046c       ??$peek_va_arg@H@__crt_stdio_output@@YAHPAD@Z 1002146c f i libucrt:output.obj
 0001:00020478       ??$peek_va_arg@I@__crt_stdio_output@@YAIPAD@Z 10021478 f i libucrt:output.obj
 0001:00020484       ??$peek_va_arg@PAD@__crt_stdio_output@@YAPADPAD@Z 10021484 f i libucrt:output.obj
 0001:00020490       ??$peek_va_arg@PAUansi_string@?1??type_case_Z@?$output_processor@DV?$stream_output_adapter@D@__crt_stdio_output@@V?$positional_parameter_base@DV?$stream_output_adapter@D@__crt_stdio_output@@@2@@__crt_stdio_output@@AAE_NXZ@@__crt_stdio_output@@YAPAUansi_string@?1??type_case_Z@?$output_processor@DV?$stream_output_adapter@D@__crt_stdio_output@@V?$positional_parameter_base@DV?$stream_output_adapter@D@__crt_stdio_output@@@2@@0@AAE_NXZ@PAD@Z 10021490 f i libucrt:output.obj
 0001:0002049c       ??$peek_va_arg@PAUansi_string@?1??type_case_Z@?$output_processor@DV?$string_output_adapter@D@__crt_stdio_output@@V?$positional_parameter_base@DV?$string_output_adapter@D@__crt_stdio_output@@@2@@__crt_stdio_output@@AAE_NXZ@@__crt_stdio_output@@YAPAUansi_string@?1??type_case_Z@?$output_processor@DV?$string_output_adapter@D@__crt_stdio_output@@V?$positional_parameter_base@DV?$string_output_adapter@D@__crt_stdio_output@@@2@@0@AAE_NXZ@PAD@Z 1002149c f i libucrt:output.obj
 0001:000204a8       ??$peek_va_arg@PAUansi_string@?1??type_case_Z@?$output_processor@_WV?$stream_output_adapter@_W@__crt_stdio_output@@V?$positional_parameter_base@_WV?$stream_output_adapter@_W@__crt_stdio_output@@@2@@__crt_stdio_output@@AAE_NXZ@@__crt_stdio_output@@YAPAUansi_string@?1??type_case_Z@?$output_processor@_WV?$stream_output_adapter@_W@__crt_stdio_output@@V?$positional_parameter_base@_WV?$stream_output_adapter@_W@__crt_stdio_output@@@2@@0@AAE_NXZ@PAD@Z 100214a8 f i libucrt:output.obj
 0001:000204b4       ??$peek_va_arg@PAUansi_string@?1??type_case_Z@?$output_processor@_WV?$string_output_adapter@_W@__crt_stdio_output@@V?$positional_parameter_base@_WV?$string_output_adapter@_W@__crt_stdio_output@@@2@@__crt_stdio_output@@AAE_NXZ@@__crt_stdio_output@@YAPAUansi_string@?1??type_case_Z@?$output_processor@_WV?$string_output_adapter@_W@__crt_stdio_output@@V?$positional_parameter_base@_WV?$string_output_adapter@_W@__crt_stdio_output@@@2@@0@AAE_NXZ@PAD@Z 100214b4 f i libucrt:output.obj
 0001:000204c0       ??$peek_va_arg@PAX@__crt_stdio_output@@YAPAXPAD@Z 100214c0 f i libucrt:output.obj
 0001:000204cc       ??$peek_va_arg@U_CRT_DOUBLE@@@__crt_stdio_output@@YA?AU_CRT_DOUBLE@@PAD@Z 100214cc f i libucrt:output.obj
 0001:000204db       ??$peek_va_arg@_J@__crt_stdio_output@@YA_JPAD@Z 100214db f i libucrt:output.obj
 0001:000204ea       ??$peek_va_arg@_K@__crt_stdio_output@@YA_KPAD@Z 100214ea f i libucrt:output.obj
 0001:000204f9       ??$peek_va_arg@_W@__crt_stdio_output@@YA_WPAD@Z 100214f9 f i libucrt:output.obj
 0001:00020506       ??$puttc_nolock@ABDPAU_iobuf@@@?$__crt_char_traits@D@@SAHABD$$QAPAU_iobuf@@@Z 10021506 f i libucrt:output.obj
 0001:00020520       ??$puttc_nolock@AB_WPAU_iobuf@@@?$__crt_char_traits@_W@@SAGAB_W$$QAPAU_iobuf@@@Z 10021520 f i libucrt:output.obj
 0001:0002053a       ??$read_va_arg@C@__crt_stdio_output@@YACAAPAD@Z 1002153a f i libucrt:output.obj
 0001:0002054c       ??$read_va_arg@E@__crt_stdio_output@@YAEAAPAD@Z 1002154c f i libucrt:output.obj
 0001:0002055e       ??$read_va_arg@F@__crt_stdio_output@@YAFAAPAD@Z 1002155e f i libucrt:output.obj
 0001:00020571       ??$read_va_arg@G@__crt_stdio_output@@YAGAAPAD@Z 10021571 f i libucrt:output.obj
 0001:00020584       ??$read_va_arg@H@__crt_stdio_output@@YAHAAPAD@Z 10021584 f i libucrt:output.obj
 0001:00020596       ??$read_va_arg@I@__crt_stdio_output@@YAIAAPAD@Z 10021596 f i libucrt:output.obj
 0001:000205a8       ??$read_va_arg@PAD@__crt_stdio_output@@YAPADAAPAD@Z 100215a8 f i libucrt:output.obj
 0001:000205ba       ??$read_va_arg@PAUansi_string@?1??type_case_Z@?$output_processor@DV?$stream_output_adapter@D@__crt_stdio_output@@V?$format_validation_base@DV?$stream_output_adapter@D@__crt_stdio_output@@@2@@__crt_stdio_output@@AAE_NXZ@@__crt_stdio_output@@YAPAUansi_string@?1??type_case_Z@?$output_processor@DV?$stream_output_adapter@D@__crt_stdio_output@@V?$format_validation_base@DV?$stream_output_adapter@D@__crt_stdio_output@@@2@@0@AAE_NXZ@AAPAD@Z 100215ba f i libucrt:output.obj
 0001:000205cc       ??$read_va_arg@PAUansi_string@?1??type_case_Z@?$output_processor@DV?$stream_output_adapter@D@__crt_stdio_output@@V?$positional_parameter_base@DV?$stream_output_adapter@D@__crt_stdio_output@@@2@@__crt_stdio_output@@AAE_NXZ@@__crt_stdio_output@@YAPAUansi_string@?1??type_case_Z@?$output_processor@DV?$stream_output_adapter@D@__crt_stdio_output@@V?$positional_parameter_base@DV?$stream_output_adapter@D@__crt_stdio_output@@@2@@0@AAE_NXZ@AAPAD@Z 100215cc f i libucrt:output.obj
 0001:000205de       ??$read_va_arg@PAUansi_string@?1??type_case_Z@?$output_processor@DV?$stream_output_adapter@D@__crt_stdio_output@@V?$standard_base@DV?$stream_output_adapter@D@__crt_stdio_output@@@2@@__crt_stdio_output@@AAE_NXZ@@__crt_stdio_output@@YAPAUansi_string@?1??type_case_Z@?$output_processor@DV?$stream_output_adapter@D@__crt_stdio_output@@V?$standard_base@DV?$stream_output_adapter@D@__crt_stdio_output@@@2@@0@AAE_NXZ@AAPAD@Z 100215de f i libucrt:output.obj
 0001:000205f0       ??$read_va_arg@PAUansi_string@?1??type_case_Z@?$output_processor@DV?$string_output_adapter@D@__crt_stdio_output@@V?$format_validation_base@DV?$string_output_adapter@D@__crt_stdio_output@@@2@@__crt_stdio_output@@AAE_NXZ@@__crt_stdio_output@@YAPAUansi_string@?1??type_case_Z@?$output_processor@DV?$string_output_adapter@D@__crt_stdio_output@@V?$format_validation_base@DV?$string_output_adapter@D@__crt_stdio_output@@@2@@0@AAE_NXZ@AAPAD@Z 100215f0 f i libucrt:output.obj
 0001:00020602       ??$read_va_arg@PAUansi_string@?1??type_case_Z@?$output_processor@DV?$string_output_adapter@D@__crt_stdio_output@@V?$positional_parameter_base@DV?$string_output_adapter@D@__crt_stdio_output@@@2@@__crt_stdio_output@@AAE_NXZ@@__crt_stdio_output@@YAPAUansi_string@?1??type_case_Z@?$output_processor@DV?$string_output_adapter@D@__crt_stdio_output@@V?$positional_parameter_base@DV?$string_output_adapter@D@__crt_stdio_output@@@2@@0@AAE_NXZ@AAPAD@Z 10021602 f i libucrt:output.obj
 0001:00020614       ??$read_va_arg@PAUansi_string@?1??type_case_Z@?$output_processor@DV?$string_output_adapter@D@__crt_stdio_output@@V?$standard_base@DV?$string_output_adapter@D@__crt_stdio_output@@@2@@__crt_stdio_output@@AAE_NXZ@@__crt_stdio_output@@YAPAUansi_string@?1??type_case_Z@?$output_processor@DV?$string_output_adapter@D@__crt_stdio_output@@V?$standard_base@DV?$string_output_adapter@D@__crt_stdio_output@@@2@@0@AAE_NXZ@AAPAD@Z 10021614 f i libucrt:output.obj
 0001:00020626       ??$read_va_arg@PAUansi_string@?1??type_case_Z@?$output_processor@_WV?$stream_output_adapter@_W@__crt_stdio_output@@V?$format_validation_base@_WV?$stream_output_adapter@_W@__crt_stdio_output@@@2@@__crt_stdio_output@@AAE_NXZ@@__crt_stdio_output@@YAPAUansi_string@?1??type_case_Z@?$output_processor@_WV?$stream_output_adapter@_W@__crt_stdio_output@@V?$format_validation_base@_WV?$stream_output_adapter@_W@__crt_stdio_output@@@2@@0@AAE_NXZ@AAPAD@Z 10021626 f i libucrt:output.obj
 0001:00020638       ??$read_va_arg@PAUansi_string@?1??type_case_Z@?$output_processor@_WV?$stream_output_adapter@_W@__crt_stdio_output@@V?$positional_parameter_base@_WV?$stream_output_adapter@_W@__crt_stdio_output@@@2@@__crt_stdio_output@@AAE_NXZ@@__crt_stdio_output@@YAPAUansi_string@?1??type_case_Z@?$output_processor@_WV?$stream_output_adapter@_W@__crt_stdio_output@@V?$positional_parameter_base@_WV?$stream_output_adapter@_W@__crt_stdio_output@@@2@@0@AAE_NXZ@AAPAD@Z 10021638 f i libucrt:output.obj
 0001:0002064a       ??$read_va_arg@PAUansi_string@?1??type_case_Z@?$output_processor@_WV?$stream_output_adapter@_W@__crt_stdio_output@@V?$standard_base@_WV?$stream_output_adapter@_W@__crt_stdio_output@@@2@@__crt_stdio_output@@AAE_NXZ@@__crt_stdio_output@@YAPAUansi_string@?1??type_case_Z@?$output_processor@_WV?$stream_output_adapter@_W@__crt_stdio_output@@V?$standard_base@_WV?$stream_output_adapter@_W@__crt_stdio_output@@@2@@0@AAE_NXZ@AAPAD@Z 1002164a f i libucrt:output.obj
 0001:0002065c       ??$read_va_arg@PAUansi_string@?1??type_case_Z@?$output_processor@_WV?$string_output_adapter@_W@__crt_stdio_output@@V?$format_validation_base@_WV?$string_output_adapter@_W@__crt_stdio_output@@@2@@__crt_stdio_output@@AAE_NXZ@@__crt_stdio_output@@YAPAUansi_string@?1??type_case_Z@?$output_processor@_WV?$string_output_adapter@_W@__crt_stdio_output@@V?$format_validation_base@_WV?$string_output_adapter@_W@__crt_stdio_output@@@2@@0@AAE_NXZ@AAPAD@Z 1002165c f i libucrt:output.obj
 0001:0002066e       ??$read_va_arg@PAUansi_string@?1??type_case_Z@?$output_processor@_WV?$string_output_adapter@_W@__crt_stdio_output@@V?$positional_parameter_base@_WV?$string_output_adapter@_W@__crt_stdio_output@@@2@@__crt_stdio_output@@AAE_NXZ@@__crt_stdio_output@@YAPAUansi_string@?1??type_case_Z@?$output_processor@_WV?$string_output_adapter@_W@__crt_stdio_output@@V?$positional_parameter_base@_WV?$string_output_adapter@_W@__crt_stdio_output@@@2@@0@AAE_NXZ@AAPAD@Z 1002166e f i libucrt:output.obj
 0001:00020680       ??$read_va_arg@PAUansi_string@?1??type_case_Z@?$output_processor@_WV?$string_output_adapter@_W@__crt_stdio_output@@V?$standard_base@_WV?$string_output_adapter@_W@__crt_stdio_output@@@2@@__crt_stdio_output@@AAE_NXZ@@__crt_stdio_output@@YAPAUansi_string@?1??type_case_Z@?$output_processor@_WV?$string_output_adapter@_W@__crt_stdio_output@@V?$standard_base@_WV?$string_output_adapter@_W@__crt_stdio_output@@@2@@0@AAE_NXZ@AAPAD@Z 10021680 f i libucrt:output.obj
 0001:00020692       ??$read_va_arg@PAX@__crt_stdio_output@@YAPAXAAPAD@Z 10021692 f i libucrt:output.obj
 0001:000206a4       ??$read_va_arg@U_CRT_DOUBLE@@@__crt_stdio_output@@YA?AU_CRT_DOUBLE@@AAPAD@Z 100216a4 f i libucrt:output.obj
 0001:000206ba       ??$read_va_arg@_J@__crt_stdio_output@@YA_JAAPAD@Z 100216ba f i libucrt:output.obj
 0001:000206cf       ??$read_va_arg@_K@__crt_stdio_output@@YA_KAAPAD@Z 100216cf f i libucrt:output.obj
 0001:000206e4       ??$read_va_arg@_W@__crt_stdio_output@@YA_WAAPAD@Z 100216e4 f i libucrt:output.obj
 0001:000206f7       ??$scratch_count@D@formatting_buffer@__crt_stdio_output@@QBEIXZ 100216f7 f i libucrt:output.obj
 0001:000206fc       ??$scratch_data@D@formatting_buffer@__crt_stdio_output@@QAEPADXZ 100216fc f i libucrt:output.obj
 0001:0002071a       ??$tcstol@AAPBDPAPADH@?$__crt_char_traits@D@@SAJAAPBD$$QAPAPAD$$QAH@Z 1002171a f i libucrt:output.obj
 0001:00020738       ??$tcstol@AAPB_WPAPA_WH@?$__crt_char_traits@_W@@SAJAAPB_W$$QAPAPA_W$$QAH@Z 10021738 f i libucrt:output.obj
 0001:00020756       ??$tcstol@PBDPAPADH@?$__crt_char_traits@D@@SAJ$$QAPBD$$QAPAPAD$$QAH@Z 10021756 f i libucrt:output.obj
 0001:00020774       ??$tcstol@PB_WPAPA_WH@?$__crt_char_traits@_W@@SAJ$$QAPB_W$$QAPAPA_W$$QAH@Z 10021774 f i libucrt:output.obj
 0001:00020792       ??$type_case_integer_parse_into_buffer@I@?$output_processor@DV?$stream_output_adapter@D@__crt_stdio_output@@V?$format_validation_base@DV?$stream_output_adapter@D@__crt_stdio_output@@@2@@__crt_stdio_output@@AAEXII_N@Z 10021792 f i libucrt:output.obj
 0001:00020805       ??$type_case_integer_parse_into_buffer@I@?$output_processor@DV?$stream_output_adapter@D@__crt_stdio_output@@V?$positional_parameter_base@DV?$stream_output_adapter@D@__crt_stdio_output@@@2@@__crt_stdio_output@@AAEXII_N@Z 10021805 f i libucrt:output.obj
 0001:00020878       ??$type_case_integer_parse_into_buffer@I@?$output_processor@DV?$stream_output_adapter@D@__crt_stdio_output@@V?$standard_base@DV?$stream_output_adapter@D@__crt_stdio_output@@@2@@__crt_stdio_output@@AAEXII_N@Z 10021878 f i libucrt:output.obj
 0001:000208eb       ??$type_case_integer_parse_into_buffer@I@?$output_processor@DV?$string_output_adapter@D@__crt_stdio_output@@V?$format_validation_base@DV?$string_output_adapter@D@__crt_stdio_output@@@2@@__crt_stdio_output@@AAEXII_N@Z 100218eb f i libucrt:output.obj
 0001:0002095e       ??$type_case_integer_parse_into_buffer@I@?$output_processor@DV?$string_output_adapter@D@__crt_stdio_output@@V?$positional_parameter_base@DV?$string_output_adapter@D@__crt_stdio_output@@@2@@__crt_stdio_output@@AAEXII_N@Z 1002195e f i libucrt:output.obj
 0001:000209d1       ??$type_case_integer_parse_into_buffer@I@?$output_processor@DV?$string_output_adapter@D@__crt_stdio_output@@V?$standard_base@DV?$string_output_adapter@D@__crt_stdio_output@@@2@@__crt_stdio_output@@AAEXII_N@Z 100219d1 f i libucrt:output.obj
 0001:00020a44       ??$type_case_integer_parse_into_buffer@I@?$output_processor@_WV?$stream_output_adapter@_W@__crt_stdio_output@@V?$format_validation_base@_WV?$stream_output_adapter@_W@__crt_stdio_output@@@2@@__crt_stdio_output@@AAEXII_N@Z 10021a44 f i libucrt:output.obj
 0001:00020acb       ??$type_case_integer_parse_into_buffer@I@?$output_processor@_WV?$stream_output_adapter@_W@__crt_stdio_output@@V?$positional_parameter_base@_WV?$stream_output_adapter@_W@__crt_stdio_output@@@2@@__crt_stdio_output@@AAEXII_N@Z 10021acb f i libucrt:output.obj
 0001:00020b52       ??$type_case_integer_parse_into_buffer@I@?$output_processor@_WV?$stream_output_adapter@_W@__crt_stdio_output@@V?$standard_base@_WV?$stream_output_adapter@_W@__crt_stdio_output@@@2@@__crt_stdio_output@@AAEXII_N@Z 10021b52 f i libucrt:output.obj
 0001:00020bd9       ??$type_case_integer_parse_into_buffer@I@?$output_processor@_WV?$string_output_adapter@_W@__crt_stdio_output@@V?$format_validation_base@_WV?$string_output_adapter@_W@__crt_stdio_output@@@2@@__crt_stdio_output@@AAEXII_N@Z 10021bd9 f i libucrt:output.obj
 0001:00020c60       ??$type_case_integer_parse_into_buffer@I@?$output_processor@_WV?$string_output_adapter@_W@__crt_stdio_output@@V?$positional_parameter_base@_WV?$string_output_adapter@_W@__crt_stdio_output@@@2@@__crt_stdio_output@@AAEXII_N@Z 10021c60 f i libucrt:output.obj
 0001:00020ce7       ??$type_case_integer_parse_into_buffer@I@?$output_processor@_WV?$string_output_adapter@_W@__crt_stdio_output@@V?$standard_base@_WV?$string_output_adapter@_W@__crt_stdio_output@@@2@@__crt_stdio_output@@AAEXII_N@Z 10021ce7 f i libucrt:output.obj
 0001:00020d6e       ??$type_case_integer_parse_into_buffer@_K@?$output_processor@DV?$stream_output_adapter@D@__crt_stdio_output@@V?$format_validation_base@DV?$stream_output_adapter@D@__crt_stdio_output@@@2@@__crt_stdio_output@@AAEX_KI_N@Z 10021d6e f i libucrt:output.obj
 0001:00020dfc       ??$type_case_integer_parse_into_buffer@_K@?$output_processor@DV?$stream_output_adapter@D@__crt_stdio_output@@V?$positional_parameter_base@DV?$stream_output_adapter@D@__crt_stdio_output@@@2@@__crt_stdio_output@@AAEX_KI_N@Z 10021dfc f i libucrt:output.obj
 0001:00020e8a       ??$type_case_integer_parse_into_buffer@_K@?$output_processor@DV?$stream_output_adapter@D@__crt_stdio_output@@V?$standard_base@DV?$stream_output_adapter@D@__crt_stdio_output@@@2@@__crt_stdio_output@@AAEX_KI_N@Z 10021e8a f i libucrt:output.obj
 0001:00020f18       ??$type_case_integer_parse_into_buffer@_K@?$output_processor@DV?$string_output_adapter@D@__crt_stdio_output@@V?$format_validation_base@DV?$string_output_adapter@D@__crt_stdio_output@@@2@@__crt_stdio_output@@AAEX_KI_N@Z 10021f18 f i libucrt:output.obj
 0001:00020fa6       ??$type_case_integer_parse_into_buffer@_K@?$output_processor@DV?$string_output_adapter@D@__crt_stdio_output@@V?$positional_parameter_base@DV?$string_output_adapter@D@__crt_stdio_output@@@2@@__crt_stdio_output@@AAEX_KI_N@Z 10021fa6 f i libucrt:output.obj
 0001:00021034       ??$type_case_integer_parse_into_buffer@_K@?$output_processor@DV?$string_output_adapter@D@__crt_stdio_output@@V?$standard_base@DV?$string_output_adapter@D@__crt_stdio_output@@@2@@__crt_stdio_output@@AAEX_KI_N@Z 10022034 f i libucrt:output.obj
 0001:000210c2       ??$type_case_integer_parse_into_buffer@_K@?$output_processor@_WV?$stream_output_adapter@_W@__crt_stdio_output@@V?$format_validation_base@_WV?$stream_output_adapter@_W@__crt_stdio_output@@@2@@__crt_stdio_output@@AAEX_KI_N@Z 100220c2 f i libucrt:output.obj
 0001:00021164       ??$type_case_integer_parse_into_buffer@_K@?$output_processor@_WV?$stream_output_adapter@_W@__crt_stdio_output@@V?$positional_parameter_base@_WV?$stream_output_adapter@_W@__crt_stdio_output@@@2@@__crt_stdio_output@@AAEX_KI_N@Z 10022164 f i libucrt:output.obj
 0001:00021206       ??$type_case_integer_parse_into_buffer@_K@?$output_processor@_WV?$stream_output_adapter@_W@__crt_stdio_output@@V?$standard_base@_WV?$stream_output_adapter@_W@__crt_stdio_output@@@2@@__crt_stdio_output@@AAEX_KI_N@Z 10022206 f i libucrt:output.obj
 0001:000212a8       ??$type_case_integer_parse_into_buffer@_K@?$output_processor@_WV?$string_output_adapter@_W@__crt_stdio_output@@V?$format_validation_base@_WV?$string_output_adapter@_W@__crt_stdio_output@@@2@@__crt_stdio_output@@AAEX_KI_N@Z 100222a8 f i libucrt:output.obj
 0001:0002134a       ??$type_case_integer_parse_into_buffer@_K@?$output_processor@_WV?$string_output_adapter@_W@__crt_stdio_output@@V?$positional_parameter_base@_WV?$string_output_adapter@_W@__crt_stdio_output@@@2@@__crt_stdio_output@@AAEX_KI_N@Z 1002234a f i libucrt:output.obj
 0001:000213ec       ??$type_case_integer_parse_into_buffer@_K@?$output_processor@_WV?$string_output_adapter@_W@__crt_stdio_output@@V?$standard_base@_WV?$string_output_adapter@_W@__crt_stdio_output@@@2@@__crt_stdio_output@@AAEX_KI_N@Z 100223ec f i libucrt:output.obj
 0001:0002148e       ??$write_multiple_characters@V?$stream_output_adapter@D@__crt_stdio_output@@D@__crt_stdio_output@@YAXABV?$stream_output_adapter@D@0@DHQAH@Z 1002248e f i libucrt:output.obj
 0001:000214c9       ??$write_multiple_characters@V?$stream_output_adapter@_W@__crt_stdio_output@@D@__crt_stdio_output@@YAXABV?$stream_output_adapter@_W@0@DHQAH@Z 100224c9 f i libucrt:output.obj
 0001:00021509       ??$write_multiple_characters@V?$string_output_adapter@D@__crt_stdio_output@@D@__crt_stdio_output@@YAXABV?$string_output_adapter@D@0@DHQAH@Z 10022509 f i libucrt:output.obj
 0001:00021535       ??$write_multiple_characters@V?$string_output_adapter@_W@__crt_stdio_output@@D@__crt_stdio_output@@YAXABV?$string_output_adapter@_W@0@DHQAH@Z 10022535 f i libucrt:output.obj
 0001:0002172e       ??0?$common_data@D@__crt_stdio_output@@IAE@XZ 1002272e f i libucrt:output.obj
 0001:00021773       ??0?$common_data@_W@__crt_stdio_output@@IAE@XZ 10022773 f i libucrt:output.obj
 0001:000217bd       ??0?$output_adapter_data@DV?$stream_output_adapter@D@__crt_stdio_output@@@__crt_stdio_output@@IAE@ABV?$stream_output_adapter@D@1@_KQBDQAU__crt_locale_pointers@@QAD@Z 100227bd f i libucrt:output.obj
 0001:000217f9       ??0?$output_adapter_data@DV?$string_output_adapter@D@__crt_stdio_output@@@__crt_stdio_output@@IAE@ABV?$string_output_adapter@D@1@_KQBDQAU__crt_locale_pointers@@QAD@Z 100227f9 f i libucrt:output.obj
 0001:00021835       ??0?$output_adapter_data@_WV?$stream_output_adapter@_W@__crt_stdio_output@@@__crt_stdio_output@@IAE@ABV?$stream_output_adapter@_W@1@_KQB_WQAU__crt_locale_pointers@@QAD@Z 10022835 f i libucrt:output.obj
 0001:00021871       ??0?$output_adapter_data@_WV?$string_output_adapter@_W@__crt_stdio_output@@@__crt_stdio_output@@IAE@ABV?$string_output_adapter@_W@1@_KQB_WQAU__crt_locale_pointers@@QAD@Z 10022871 f i libucrt:output.obj
 0001:000218ad       ??0?$output_processor@DV?$stream_output_adapter@D@__crt_stdio_output@@V?$format_validation_base@DV?$stream_output_adapter@D@__crt_stdio_output@@@2@@__crt_stdio_output@@QAE@ABV?$stream_output_adapter@D@1@_KQBDQAU__crt_locale_pointers@@QAD@Z 100228ad f i libucrt:output.obj
 0001:000218da       ??0?$output_processor@DV?$stream_output_adapter@D@__crt_stdio_output@@V?$positional_parameter_base@DV?$stream_output_adapter@D@__crt_stdio_output@@@2@@__crt_stdio_output@@QAE@ABV?$stream_output_adapter@D@1@_KQBDQAU__crt_locale_pointers@@QAD@Z 100228da f i libucrt:output.obj
 0001:00021901       ??0?$output_processor@DV?$stream_output_adapter@D@__crt_stdio_output@@V?$standard_base@DV?$stream_output_adapter@D@__crt_stdio_output@@@2@@__crt_stdio_output@@QAE@ABV?$stream_output_adapter@D@1@_KQBDQAU__crt_locale_pointers@@QAD@Z 10022901 f i libucrt:output.obj
 0001:0002192e       ??0?$output_processor@DV?$string_output_adapter@D@__crt_stdio_output@@V?$format_validation_base@DV?$string_output_adapter@D@__crt_stdio_output@@@2@@__crt_stdio_output@@QAE@ABV?$string_output_adapter@D@1@_KQBDQAU__crt_locale_pointers@@QAD@Z 1002292e f i libucrt:output.obj
 0001:0002195b       ??0?$output_processor@DV?$string_output_adapter@D@__crt_stdio_output@@V?$positional_parameter_base@DV?$string_output_adapter@D@__crt_stdio_output@@@2@@__crt_stdio_output@@QAE@ABV?$string_output_adapter@D@1@_KQBDQAU__crt_locale_pointers@@QAD@Z 1002295b f i libucrt:output.obj
 0001:00021982       ??0?$output_processor@DV?$string_output_adapter@D@__crt_stdio_output@@V?$standard_base@DV?$string_output_adapter@D@__crt_stdio_output@@@2@@__crt_stdio_output@@QAE@ABV?$string_output_adapter@D@1@_KQBDQAU__crt_locale_pointers@@QAD@Z 10022982 f i libucrt:output.obj
 0001:000219af       ??0?$output_processor@_WV?$stream_output_adapter@_W@__crt_stdio_output@@V?$format_validation_base@_WV?$stream_output_adapter@_W@__crt_stdio_output@@@2@@__crt_stdio_output@@QAE@ABV?$stream_output_adapter@_W@1@_KQB_WQAU__crt_locale_pointers@@QAD@Z 100229af f i libucrt:output.obj
 0001:000219dc       ??0?$output_processor@_WV?$stream_output_adapter@_W@__crt_stdio_output@@V?$positional_parameter_base@_WV?$stream_output_adapter@_W@__crt_stdio_output@@@2@@__crt_stdio_output@@QAE@ABV?$stream_output_adapter@_W@1@_KQB_WQAU__crt_locale_pointers@@QAD@Z 100229dc f i libucrt:output.obj
 0001:00021a03       ??0?$output_processor@_WV?$stream_output_adapter@_W@__crt_stdio_output@@V?$standard_base@_WV?$stream_output_adapter@_W@__crt_stdio_output@@@2@@__crt_stdio_output@@QAE@ABV?$stream_output_adapter@_W@1@_KQB_WQAU__crt_locale_pointers@@QAD@Z 10022a03 f i libucrt:output.obj
 0001:00021a30       ??0?$output_processor@_WV?$string_output_adapter@_W@__crt_stdio_output@@V?$format_validation_base@_WV?$string_output_adapter@_W@__crt_stdio_output@@@2@@__crt_stdio_output@@QAE@ABV?$string_output_adapter@_W@1@_KQB_WQAU__crt_locale_pointers@@QAD@Z 10022a30 f i libucrt:output.obj
 0001:00021a5d       ??0?$output_processor@_WV?$string_output_adapter@_W@__crt_stdio_output@@V?$positional_parameter_base@_WV?$string_output_adapter@_W@__crt_stdio_output@@@2@@__crt_stdio_output@@QAE@ABV?$string_output_adapter@_W@1@_KQB_WQAU__crt_locale_pointers@@QAD@Z 10022a5d f i libucrt:output.obj
 0001:00021a84       ??0?$output_processor@_WV?$string_output_adapter@_W@__crt_stdio_output@@V?$standard_base@_WV?$string_output_adapter@_W@__crt_stdio_output@@@2@@__crt_stdio_output@@QAE@ABV?$string_output_adapter@_W@1@_KQB_WQAU__crt_locale_pointers@@QAD@Z 10022a84 f i libucrt:output.obj
 0001:00021ab1       ??0?$stream_output_adapter@D@__crt_stdio_output@@QAE@QAU_iobuf@@@Z 10022ab1 f i libucrt:output.obj
 0001:00021ac1       ??0?$stream_output_adapter@_W@__crt_stdio_output@@QAE@QAU_iobuf@@@Z 10022ac1 f i libucrt:output.obj
 0001:00021ad1       ??0?$string_output_adapter@D@__crt_stdio_output@@QAE@QAU?$string_output_adapter_context@D@1@@Z 10022ad1 f i libucrt:output.obj
 0001:00021ae1       ??0?$string_output_adapter@_W@__crt_stdio_output@@QAE@QAU?$string_output_adapter_context@_W@1@@Z 10022ae1 f i libucrt:output.obj
 0001:00021af1       ??0__acrt_stdio_temporary_buffering_guard@@QAE@QAU_iobuf@@@Z 10022af1 f i libucrt:output.obj
 0001:00021b0f       ??0__crt_deferred_errno_cache@@QAE@XZ 10022b0f f i libucrt:output.obj
 0001:00021b15       ??0__crt_errno_guard@@QAE@QAH@Z 10022b15 f i libucrt:output.obj
 0001:00021b2d       ??0__crt_stdio_stream@@QAE@QAU_iobuf@@@Z 10022b2d f i libucrt:output.obj
 0001:00021b40       ??0formatting_buffer@__crt_stdio_output@@QAE@XZ 10022b40 f i libucrt:output.obj
 0001:00021b57       ??1?$common_data@D@__crt_stdio_output@@QAE@XZ 10022b57 f i libucrt:output.obj
 0001:00021b5f       ??1?$common_data@_W@__crt_stdio_output@@QAE@XZ 10022b5f f i libucrt:output.obj
 0001:00021b67       ??1?$format_validation_base@DV?$stream_output_adapter@D@__crt_stdio_output@@@__crt_stdio_output@@QAE@XZ 10022b67 f i libucrt:output.obj
 0001:00021b6f       ??1?$format_validation_base@DV?$string_output_adapter@D@__crt_stdio_output@@@__crt_stdio_output@@QAE@XZ 10022b6f f i libucrt:output.obj
 0001:00021b77       ??1?$format_validation_base@_WV?$stream_output_adapter@_W@__crt_stdio_output@@@__crt_stdio_output@@QAE@XZ 10022b77 f i libucrt:output.obj
 0001:00021b7f       ??1?$format_validation_base@_WV?$string_output_adapter@_W@__crt_stdio_output@@@__crt_stdio_output@@QAE@XZ 10022b7f f i libucrt:output.obj
 0001:00021b87       ??1?$output_adapter_data@DV?$stream_output_adapter@D@__crt_stdio_output@@@__crt_stdio_output@@QAE@XZ 10022b87 f i libucrt:output.obj
 0001:00021b8f       ??1?$output_adapter_data@DV?$string_output_adapter@D@__crt_stdio_output@@@__crt_stdio_output@@QAE@XZ 10022b8f f i libucrt:output.obj
 0001:00021b97       ??1?$output_adapter_data@_WV?$stream_output_adapter@_W@__crt_stdio_output@@@__crt_stdio_output@@QAE@XZ 10022b97 f i libucrt:output.obj
 0001:00021b9f       ??1?$output_adapter_data@_WV?$string_output_adapter@_W@__crt_stdio_output@@@__crt_stdio_output@@QAE@XZ 10022b9f f i libucrt:output.obj
 0001:00021ba7       ??1?$output_processor@DV?$stream_output_adapter@D@__crt_stdio_output@@V?$format_validation_base@DV?$stream_output_adapter@D@__crt_stdio_output@@@2@@__crt_stdio_output@@QAE@XZ 10022ba7 f i libucrt:output.obj
 0001:00021baf       ??1?$output_processor@DV?$stream_output_adapter@D@__crt_stdio_output@@V?$positional_parameter_base@DV?$stream_output_adapter@D@__crt_stdio_output@@@2@@__crt_stdio_output@@QAE@XZ 10022baf f i libucrt:output.obj
 0001:00021bb7       ??1?$output_processor@DV?$stream_output_adapter@D@__crt_stdio_output@@V?$standard_base@DV?$stream_output_adapter@D@__crt_stdio_output@@@2@@__crt_stdio_output@@QAE@XZ 10022bb7 f i libucrt:output.obj
 0001:00021bbf       ??1?$output_processor@DV?$string_output_adapter@D@__crt_stdio_output@@V?$format_validation_base@DV?$string_output_adapter@D@__crt_stdio_output@@@2@@__crt_stdio_output@@QAE@XZ 10022bbf f i libucrt:output.obj
 0001:00021bc7       ??1?$output_processor@DV?$string_output_adapter@D@__crt_stdio_output@@V?$positional_parameter_base@DV?$string_output_adapter@D@__crt_stdio_output@@@2@@__crt_stdio_output@@QAE@XZ 10022bc7 f i libucrt:output.obj
 0001:00021bcf       ??1?$output_processor@DV?$string_output_adapter@D@__crt_stdio_output@@V?$standard_base@DV?$string_output_adapter@D@__crt_stdio_output@@@2@@__crt_stdio_output@@QAE@XZ 10022bcf f i libucrt:output.obj
 0001:00021bd7       ??1?$output_processor@_WV?$stream_output_adapter@_W@__crt_stdio_output@@V?$format_validation_base@_WV?$stream_output_adapter@_W@__crt_stdio_output@@@2@@__crt_stdio_output@@QAE@XZ 10022bd7 f i libucrt:output.obj
 0001:00021bdf       ??1?$output_processor@_WV?$stream_output_adapter@_W@__crt_stdio_output@@V?$positional_parameter_base@_WV?$stream_output_adapter@_W@__crt_stdio_output@@@2@@__crt_stdio_output@@QAE@XZ 10022bdf f i libucrt:output.obj
 0001:00021be7       ??1?$output_processor@_WV?$stream_output_adapter@_W@__crt_stdio_output@@V?$standard_base@_WV?$stream_output_adapter@_W@__crt_stdio_output@@@2@@__crt_stdio_output@@QAE@XZ 10022be7 f i libucrt:output.obj
 0001:00021bef       ??1?$output_processor@_WV?$string_output_adapter@_W@__crt_stdio_output@@V?$format_validation_base@_WV?$string_output_adapter@_W@__crt_stdio_output@@@2@@__crt_stdio_output@@QAE@XZ 10022bef f i libucrt:output.obj
 0001:00021bf7       ??1?$output_processor@_WV?$string_output_adapter@_W@__crt_stdio_output@@V?$positional_parameter_base@_WV?$string_output_adapter@_W@__crt_stdio_output@@@2@@__crt_stdio_output@@QAE@XZ 10022bf7 f i libucrt:output.obj
 0001:00021bff       ??1?$output_processor@_WV?$string_output_adapter@_W@__crt_stdio_output@@V?$standard_base@_WV?$string_output_adapter@_W@__crt_stdio_output@@@2@@__crt_stdio_output@@QAE@XZ 10022bff f i libucrt:output.obj
 0001:00021c07       ??1?$positional_parameter_base@DV?$stream_output_adapter@D@__crt_stdio_output@@@__crt_stdio_output@@QAE@XZ 10022c07 f i libucrt:output.obj
 0001:00021c0f       ??1?$positional_parameter_base@DV?$string_output_adapter@D@__crt_stdio_output@@@__crt_stdio_output@@QAE@XZ 10022c0f f i libucrt:output.obj
 0001:00021c17       ??1?$positional_parameter_base@_WV?$stream_output_adapter@_W@__crt_stdio_output@@@__crt_stdio_output@@QAE@XZ 10022c17 f i libucrt:output.obj
 0001:00021c1f       ??1?$positional_parameter_base@_WV?$string_output_adapter@_W@__crt_stdio_output@@@__crt_stdio_output@@QAE@XZ 10022c1f f i libucrt:output.obj
 0001:00021c27       ??1?$standard_base@DV?$stream_output_adapter@D@__crt_stdio_output@@@__crt_stdio_output@@QAE@XZ 10022c27 f i libucrt:output.obj
 0001:00021c2f       ??1?$standard_base@DV?$string_output_adapter@D@__crt_stdio_output@@@__crt_stdio_output@@QAE@XZ 10022c2f f i libucrt:output.obj
 0001:00021c37       ??1?$standard_base@_WV?$stream_output_adapter@_W@__crt_stdio_output@@@__crt_stdio_output@@QAE@XZ 10022c37 f i libucrt:output.obj
 0001:00021c3f       ??1?$standard_base@_WV?$string_output_adapter@_W@__crt_stdio_output@@@__crt_stdio_output@@QAE@XZ 10022c3f f i libucrt:output.obj
 0001:00021c47       ??1__acrt_stdio_temporary_buffering_guard@@QAE@XZ 10022c47 f i libucrt:output.obj
 0001:00021c56       ??1__crt_errno_guard@@QAE@XZ 10022c56 f i libucrt:output.obj
 0001:00021c67       ??1formatting_buffer@__crt_stdio_output@@QAE@XZ 10022c67 f i libucrt:output.obj
 0001:00021c81       ??4?$__crt_unique_heap_ptr@DU__crt_internal_free_policy@@@@QAEAAV0@$$QAV0@@Z 10022c81 f i libucrt:output.obj
 0001:00021ca5       ??A?$spectre_mitigated_lookup_table@Ustate_transition_pair@__crt_stdio_output@@$0IA@@__crt_stdio_output@@QBEABUstate_transition_pair@1@I@Z 10022ca5 f i libucrt:output.obj
 0001:00021cb7       ??C__crt_stdio_stream@@QBEPAU__crt_stdio_stream_data@@XZ 10022cb7 f i libucrt:output.obj
 0001:0002220a       ?adjust_hexit@?$output_processor@DV?$stream_output_adapter@D@__crt_stdio_output@@V?$format_validation_base@DV?$stream_output_adapter@D@__crt_stdio_output@@@2@@__crt_stdio_output@@CADH_N@Z 1002320a f i libucrt:output.obj
 0001:0002221e       ?adjust_hexit@?$output_processor@DV?$stream_output_adapter@D@__crt_stdio_output@@V?$positional_parameter_base@DV?$stream_output_adapter@D@__crt_stdio_output@@@2@@__crt_stdio_output@@CADH_N@Z 1002321e f i libucrt:output.obj
 0001:00022232       ?adjust_hexit@?$output_processor@DV?$stream_output_adapter@D@__crt_stdio_output@@V?$standard_base@DV?$stream_output_adapter@D@__crt_stdio_output@@@2@@__crt_stdio_output@@CADH_N@Z 10023232 f i libucrt:output.obj
 0001:00022246       ?adjust_hexit@?$output_processor@DV?$string_output_adapter@D@__crt_stdio_output@@V?$format_validation_base@DV?$string_output_adapter@D@__crt_stdio_output@@@2@@__crt_stdio_output@@CADH_N@Z 10023246 f i libucrt:output.obj
 0001:0002225a       ?adjust_hexit@?$output_processor@DV?$string_output_adapter@D@__crt_stdio_output@@V?$positional_parameter_base@DV?$string_output_adapter@D@__crt_stdio_output@@@2@@__crt_stdio_output@@CADH_N@Z 1002325a f i libucrt:output.obj
 0001:0002226e       ?adjust_hexit@?$output_processor@DV?$string_output_adapter@D@__crt_stdio_output@@V?$standard_base@DV?$string_output_adapter@D@__crt_stdio_output@@@2@@__crt_stdio_output@@CADH_N@Z 1002326e f i libucrt:output.obj
 0001:00022282       ?adjust_hexit@?$output_processor@_WV?$stream_output_adapter@_W@__crt_stdio_output@@V?$format_validation_base@_WV?$stream_output_adapter@_W@__crt_stdio_output@@@2@@__crt_stdio_output@@CADH_N@Z 10023282 f i libucrt:output.obj
 0001:00022296       ?adjust_hexit@?$output_processor@_WV?$stream_output_adapter@_W@__crt_stdio_output@@V?$positional_parameter_base@_WV?$stream_output_adapter@_W@__crt_stdio_output@@@2@@__crt_stdio_output@@CADH_N@Z 10023296 f i libucrt:output.obj
 0001:000222aa       ?adjust_hexit@?$output_processor@_WV?$stream_output_adapter@_W@__crt_stdio_output@@V?$standard_base@_WV?$stream_output_adapter@_W@__crt_stdio_output@@@2@@__crt_stdio_output@@CADH_N@Z 100232aa f i libucrt:output.obj
 0001:000222be       ?adjust_hexit@?$output_processor@_WV?$string_output_adapter@_W@__crt_stdio_output@@V?$format_validation_base@_WV?$string_output_adapter@_W@__crt_stdio_output@@@2@@__crt_stdio_output@@CADH_N@Z 100232be f i libucrt:output.obj
 0001:000222d2       ?adjust_hexit@?$output_processor@_WV?$string_output_adapter@_W@__crt_stdio_output@@V?$positional_parameter_base@_WV?$string_output_adapter@_W@__crt_stdio_output@@@2@@__crt_stdio_output@@CADH_N@Z 100232d2 f i libucrt:output.obj
 0001:000222e6       ?adjust_hexit@?$output_processor@_WV?$string_output_adapter@_W@__crt_stdio_output@@V?$standard_base@_WV?$string_output_adapter@_W@__crt_stdio_output@@@2@@__crt_stdio_output@@CADH_N@Z 100232e6 f i libucrt:output.obj
 0001:000222fa       ?advance_to_next_pass@?$positional_parameter_base@DV?$stream_output_adapter@D@__crt_stdio_output@@@__crt_stdio_output@@IAE_NXZ 100232fa f i libucrt:output.obj
 0001:00022346       ?advance_to_next_pass@?$positional_parameter_base@DV?$string_output_adapter@D@__crt_stdio_output@@@__crt_stdio_output@@IAE_NXZ 10023346 f i libucrt:output.obj
 0001:00022392       ?advance_to_next_pass@?$positional_parameter_base@_WV?$stream_output_adapter@_W@__crt_stdio_output@@@__crt_stdio_output@@IAE_NXZ 10023392 f i libucrt:output.obj
 0001:000223de       ?advance_to_next_pass@?$positional_parameter_base@_WV?$string_output_adapter@_W@__crt_stdio_output@@@__crt_stdio_output@@IAE_NXZ 100233de f i libucrt:output.obj
 0001:0002242a       ?advance_to_next_pass@?$standard_base@DV?$stream_output_adapter@D@__crt_stdio_output@@@__crt_stdio_output@@IAE_NXZ 1002342a f i libucrt:output.obj
 0001:0002243b       ?advance_to_next_pass@?$standard_base@DV?$string_output_adapter@D@__crt_stdio_output@@@__crt_stdio_output@@IAE_NXZ 1002343b f i libucrt:output.obj
 0001:0002244c       ?advance_to_next_pass@?$standard_base@_WV?$stream_output_adapter@_W@__crt_stdio_output@@@__crt_stdio_output@@IAE_NXZ 1002344c f i libucrt:output.obj
 0001:0002245d       ?advance_to_next_pass@?$standard_base@_WV?$string_output_adapter@_W@__crt_stdio_output@@@__crt_stdio_output@@IAE_NXZ 1002345d f i libucrt:output.obj
 0001:00022470       ?crop_zeroes@__crt_stdio_output@@YAXPADQAU__crt_locale_pointers@@@Z 10023470 f i libucrt:output.obj
 0001:000224f1       ?find_next_state@?$output_processor@DV?$stream_output_adapter@D@__crt_stdio_output@@V?$format_validation_base@DV?$stream_output_adapter@D@__crt_stdio_output@@@2@@__crt_stdio_output@@ABE?AW4state@2@DW432@@Z 100234f1 f i libucrt:output.obj
 0001:00022528       ?find_next_state@?$output_processor@DV?$stream_output_adapter@D@__crt_stdio_output@@V?$positional_parameter_base@DV?$stream_output_adapter@D@__crt_stdio_output@@@2@@__crt_stdio_output@@ABE?AW4state@2@DW432@@Z 10023528 f i libucrt:output.obj
 0001:0002255f       ?find_next_state@?$output_processor@DV?$stream_output_adapter@D@__crt_stdio_output@@V?$standard_base@DV?$stream_output_adapter@D@__crt_stdio_output@@@2@@__crt_stdio_output@@ABE?AW4state@2@DW432@@Z 1002355f f i libucrt:output.obj
 0001:00022596       ?find_next_state@?$output_processor@DV?$string_output_adapter@D@__crt_stdio_output@@V?$format_validation_base@DV?$string_output_adapter@D@__crt_stdio_output@@@2@@__crt_stdio_output@@ABE?AW4state@2@DW432@@Z 10023596 f i libucrt:output.obj
 0001:000225cd       ?find_next_state@?$output_processor@DV?$string_output_adapter@D@__crt_stdio_output@@V?$positional_parameter_base@DV?$string_output_adapter@D@__crt_stdio_output@@@2@@__crt_stdio_output@@ABE?AW4state@2@DW432@@Z 100235cd f i libucrt:output.obj
 0001:00022604       ?find_next_state@?$output_processor@DV?$string_output_adapter@D@__crt_stdio_output@@V?$standard_base@DV?$string_output_adapter@D@__crt_stdio_output@@@2@@__crt_stdio_output@@ABE?AW4state@2@DW432@@Z 10023604 f i libucrt:output.obj
 0001:0002263b       ?find_next_state@?$output_processor@_WV?$stream_output_adapter@_W@__crt_stdio_output@@V?$format_validation_base@_WV?$stream_output_adapter@_W@__crt_stdio_output@@@2@@__crt_stdio_output@@ABE?AW4state@2@_WW432@@Z 1002363b f i libucrt:output.obj
 0001:00022671       ?find_next_state@?$output_processor@_WV?$stream_output_adapter@_W@__crt_stdio_output@@V?$positional_parameter_base@_WV?$stream_output_adapter@_W@__crt_stdio_output@@@2@@__crt_stdio_output@@ABE?AW4state@2@_WW432@@Z 10023671 f i libucrt:output.obj
 0001:000226a7       ?find_next_state@?$output_processor@_WV?$stream_output_adapter@_W@__crt_stdio_output@@V?$standard_base@_WV?$stream_output_adapter@_W@__crt_stdio_output@@@2@@__crt_stdio_output@@ABE?AW4state@2@_WW432@@Z 100236a7 f i libucrt:output.obj
 0001:000226dd       ?find_next_state@?$output_processor@_WV?$string_output_adapter@_W@__crt_stdio_output@@V?$format_validation_base@_WV?$string_output_adapter@_W@__crt_stdio_output@@@2@@__crt_stdio_output@@ABE?AW4state@2@_WW432@@Z 100236dd f i libucrt:output.obj
 0001:00022713       ?find_next_state@?$output_processor@_WV?$string_output_adapter@_W@__crt_stdio_output@@V?$positional_parameter_base@_WV?$string_output_adapter@_W@__crt_stdio_output@@@2@@__crt_stdio_output@@ABE?AW4state@2@_WW432@@Z 10023713 f i libucrt:output.obj
 0001:00022749       ?find_next_state@?$output_processor@_WV?$string_output_adapter@_W@__crt_stdio_output@@V?$standard_base@_WV?$string_output_adapter@_W@__crt_stdio_output@@@2@@__crt_stdio_output@@ABE?AW4state@2@_WW432@@Z 10023749 f i libucrt:output.obj
 0001:00022780       ?force_decimal_point@__crt_stdio_output@@YAXPADQAU__crt_locale_pointers@@@Z 10023780 f i libucrt:output.obj
 0001:000227e5       ?get@__crt_deferred_errno_cache@@QAEAAHXZ 100237e5 f i libucrt:output.obj
 0001:000227f9       ?get_flags@__crt_stdio_stream@@QBEJXZ 100237f9 f i libucrt:output.obj
 0001:00022800       ?get_parameter_type@?$positional_parameter_base@DV?$stream_output_adapter@D@__crt_stdio_output@@@__crt_stdio_output@@CA?AW4parameter_type@12@F@Z 10023800 f i libucrt:output.obj
 0001:00022804       ?get_parameter_type@?$positional_parameter_base@DV?$stream_output_adapter@D@__crt_stdio_output@@@__crt_stdio_output@@CA?AW4parameter_type@12@G@Z 10023804 f i libucrt:output.obj
 0001:00022808       ?get_parameter_type@?$positional_parameter_base@DV?$stream_output_adapter@D@__crt_stdio_output@@@__crt_stdio_output@@CA?AW4parameter_type@12@H@Z 10023808 f i libucrt:output.obj
 0001:0002280c       ?get_parameter_type@?$positional_parameter_base@DV?$stream_output_adapter@D@__crt_stdio_output@@@__crt_stdio_output@@CA?AW4parameter_type@12@I@Z 1002380c f i libucrt:output.obj
 0001:00022810       ?get_parameter_type@?$positional_parameter_base@DV?$stream_output_adapter@D@__crt_stdio_output@@@__crt_stdio_output@@CA?AW4parameter_type@12@U_CRT_DOUBLE@@@Z 10023810 f i libucrt:output.obj
 0001:00022814       ?get_parameter_type@?$positional_parameter_base@DV?$stream_output_adapter@D@__crt_stdio_output@@@__crt_stdio_output@@CA?AW4parameter_type@12@_J@Z 10023814 f i libucrt:output.obj
 0001:00022818       ?get_parameter_type@?$positional_parameter_base@DV?$stream_output_adapter@D@__crt_stdio_output@@@__crt_stdio_output@@CA?AW4parameter_type@12@_K@Z 10023818 f i libucrt:output.obj
 0001:0002281c       ?get_parameter_type@?$positional_parameter_base@DV?$stream_output_adapter@D@__crt_stdio_output@@@__crt_stdio_output@@CA?AW4parameter_type@12@_W@Z 1002381c f i libucrt:output.obj
 0001:00022820       ?get_parameter_type@?$positional_parameter_base@DV?$string_output_adapter@D@__crt_stdio_output@@@__crt_stdio_output@@CA?AW4parameter_type@12@F@Z 10023820 f i libucrt:output.obj
 0001:00022824       ?get_parameter_type@?$positional_parameter_base@DV?$string_output_adapter@D@__crt_stdio_output@@@__crt_stdio_output@@CA?AW4parameter_type@12@G@Z 10023824 f i libucrt:output.obj
 0001:00022828       ?get_parameter_type@?$positional_parameter_base@DV?$string_output_adapter@D@__crt_stdio_output@@@__crt_stdio_output@@CA?AW4parameter_type@12@H@Z 10023828 f i libucrt:output.obj
 0001:0002282c       ?get_parameter_type@?$positional_parameter_base@DV?$string_output_adapter@D@__crt_stdio_output@@@__crt_stdio_output@@CA?AW4parameter_type@12@I@Z 1002382c f i libucrt:output.obj
 0001:00022830       ?get_parameter_type@?$positional_parameter_base@DV?$string_output_adapter@D@__crt_stdio_output@@@__crt_stdio_output@@CA?AW4parameter_type@12@U_CRT_DOUBLE@@@Z 10023830 f i libucrt:output.obj
 0001:00022834       ?get_parameter_type@?$positional_parameter_base@DV?$string_output_adapter@D@__crt_stdio_output@@@__crt_stdio_output@@CA?AW4parameter_type@12@_J@Z 10023834 f i libucrt:output.obj
 0001:00022838       ?get_parameter_type@?$positional_parameter_base@DV?$string_output_adapter@D@__crt_stdio_output@@@__crt_stdio_output@@CA?AW4parameter_type@12@_K@Z 10023838 f i libucrt:output.obj
 0001:0002283c       ?get_parameter_type@?$positional_parameter_base@DV?$string_output_adapter@D@__crt_stdio_output@@@__crt_stdio_output@@CA?AW4parameter_type@12@_W@Z 1002383c f i libucrt:output.obj
 0001:00022840       ?get_parameter_type@?$positional_parameter_base@_WV?$stream_output_adapter@_W@__crt_stdio_output@@@__crt_stdio_output@@CA?AW4parameter_type@12@F@Z 10023840 f i libucrt:output.obj
 0001:00022844       ?get_parameter_type@?$positional_parameter_base@_WV?$stream_output_adapter@_W@__crt_stdio_output@@@__crt_stdio_output@@CA?AW4parameter_type@12@G@Z 10023844 f i libucrt:output.obj
 0001:00022848       ?get_parameter_type@?$positional_parameter_base@_WV?$stream_output_adapter@_W@__crt_stdio_output@@@__crt_stdio_output@@CA?AW4parameter_type@12@H@Z 10023848 f i libucrt:output.obj
 0001:0002284c       ?get_parameter_type@?$positional_parameter_base@_WV?$stream_output_adapter@_W@__crt_stdio_output@@@__crt_stdio_output@@CA?AW4parameter_type@12@I@Z 1002384c f i libucrt:output.obj
 0001:00022850       ?get_parameter_type@?$positional_parameter_base@_WV?$stream_output_adapter@_W@__crt_stdio_output@@@__crt_stdio_output@@CA?AW4parameter_type@12@U_CRT_DOUBLE@@@Z 10023850 f i libucrt:output.obj
 0001:00022854       ?get_parameter_type@?$positional_parameter_base@_WV?$stream_output_adapter@_W@__crt_stdio_output@@@__crt_stdio_output@@CA?AW4parameter_type@12@_J@Z 10023854 f i libucrt:output.obj
 0001:00022858       ?get_parameter_type@?$positional_parameter_base@_WV?$stream_output_adapter@_W@__crt_stdio_output@@@__crt_stdio_output@@CA?AW4parameter_type@12@_K@Z 10023858 f i libucrt:output.obj
 0001:0002285c       ?get_parameter_type@?$positional_parameter_base@_WV?$stream_output_adapter@_W@__crt_stdio_output@@@__crt_stdio_output@@CA?AW4parameter_type@12@_W@Z 1002385c f i libucrt:output.obj
 0001:00022860       ?get_parameter_type@?$positional_parameter_base@_WV?$string_output_adapter@_W@__crt_stdio_output@@@__crt_stdio_output@@CA?AW4parameter_type@12@F@Z 10023860 f i libucrt:output.obj
 0001:00022864       ?get_parameter_type@?$positional_parameter_base@_WV?$string_output_adapter@_W@__crt_stdio_output@@@__crt_stdio_output@@CA?AW4parameter_type@12@G@Z 10023864 f i libucrt:output.obj
 0001:00022868       ?get_parameter_type@?$positional_parameter_base@_WV?$string_output_adapter@_W@__crt_stdio_output@@@__crt_stdio_output@@CA?AW4parameter_type@12@H@Z 10023868 f i libucrt:output.obj
 0001:0002286c       ?get_parameter_type@?$positional_parameter_base@_WV?$string_output_adapter@_W@__crt_stdio_output@@@__crt_stdio_output@@CA?AW4parameter_type@12@I@Z 1002386c f i libucrt:output.obj
 0001:00022870       ?get_parameter_type@?$positional_parameter_base@_WV?$string_output_adapter@_W@__crt_stdio_output@@@__crt_stdio_output@@CA?AW4parameter_type@12@U_CRT_DOUBLE@@@Z 10023870 f i libucrt:output.obj
 0001:00022874       ?get_parameter_type@?$positional_parameter_base@_WV?$string_output_adapter@_W@__crt_stdio_output@@@__crt_stdio_output@@CA?AW4parameter_type@12@_J@Z 10023874 f i libucrt:output.obj
 0001:00022878       ?get_parameter_type@?$positional_parameter_base@_WV?$string_output_adapter@_W@__crt_stdio_output@@@__crt_stdio_output@@CA?AW4parameter_type@12@_K@Z 10023878 f i libucrt:output.obj
 0001:0002287c       ?get_parameter_type@?$positional_parameter_base@_WV?$string_output_adapter@_W@__crt_stdio_output@@@__crt_stdio_output@@CA?AW4parameter_type@12@_W@Z 1002387c f i libucrt:output.obj
 0001:00022880       ?has_flag@?$output_processor@DV?$stream_output_adapter@D@__crt_stdio_output@@V?$format_validation_base@DV?$stream_output_adapter@D@__crt_stdio_output@@@2@@__crt_stdio_output@@ABE_NI@Z 10023880 f i libucrt:output.obj
 0001:00022892       ?has_flag@?$output_processor@DV?$stream_output_adapter@D@__crt_stdio_output@@V?$positional_parameter_base@DV?$stream_output_adapter@D@__crt_stdio_output@@@2@@__crt_stdio_output@@ABE_NI@Z 10023892 f i libucrt:output.obj
 0001:000228a4       ?has_flag@?$output_processor@DV?$stream_output_adapter@D@__crt_stdio_output@@V?$standard_base@DV?$stream_output_adapter@D@__crt_stdio_output@@@2@@__crt_stdio_output@@ABE_NI@Z 100238a4 f i libucrt:output.obj
 0001:000228b6       ?has_flag@?$output_processor@DV?$string_output_adapter@D@__crt_stdio_output@@V?$format_validation_base@DV?$string_output_adapter@D@__crt_stdio_output@@@2@@__crt_stdio_output@@ABE_NI@Z 100238b6 f i libucrt:output.obj
 0001:000228c8       ?has_flag@?$output_processor@DV?$string_output_adapter@D@__crt_stdio_output@@V?$positional_parameter_base@DV?$string_output_adapter@D@__crt_stdio_output@@@2@@__crt_stdio_output@@ABE_NI@Z 100238c8 f i libucrt:output.obj
 0001:000228da       ?has_flag@?$output_processor@DV?$string_output_adapter@D@__crt_stdio_output@@V?$standard_base@DV?$string_output_adapter@D@__crt_stdio_output@@@2@@__crt_stdio_output@@ABE_NI@Z 100238da f i libucrt:output.obj
 0001:000228ec       ?has_flag@?$output_processor@_WV?$stream_output_adapter@_W@__crt_stdio_output@@V?$format_validation_base@_WV?$stream_output_adapter@_W@__crt_stdio_output@@@2@@__crt_stdio_output@@ABE_NI@Z 100238ec f i libucrt:output.obj
 0001:000228fe       ?has_flag@?$output_processor@_WV?$stream_output_adapter@_W@__crt_stdio_output@@V?$positional_parameter_base@_WV?$stream_output_adapter@_W@__crt_stdio_output@@@2@@__crt_stdio_output@@ABE_NI@Z 100238fe f i libucrt:output.obj
 0001:00022910       ?has_flag@?$output_processor@_WV?$stream_output_adapter@_W@__crt_stdio_output@@V?$standard_base@_WV?$stream_output_adapter@_W@__crt_stdio_output@@@2@@__crt_stdio_output@@ABE_NI@Z 10023910 f i libucrt:output.obj
 0001:00022922       ?has_flag@?$output_processor@_WV?$string_output_adapter@_W@__crt_stdio_output@@V?$format_validation_base@_WV?$string_output_adapter@_W@__crt_stdio_output@@@2@@__crt_stdio_output@@ABE_NI@Z 10023922 f i libucrt:output.obj
 0001:00022934       ?has_flag@?$output_processor@_WV?$string_output_adapter@_W@__crt_stdio_output@@V?$positional_parameter_base@_WV?$string_output_adapter@_W@__crt_stdio_output@@@2@@__crt_stdio_output@@ABE_NI@Z 10023934 f i libucrt:output.obj
 0001:00022946       ?has_flag@?$output_processor@_WV?$string_output_adapter@_W@__crt_stdio_output@@V?$standard_base@_WV?$string_output_adapter@_W@__crt_stdio_output@@@2@@__crt_stdio_output@@ABE_NI@Z 10023946 f i libucrt:output.obj
 0001:00022958       ?is_positional_parameter_reappearance_consistent@?$positional_parameter_base@DV?$stream_output_adapter@D@__crt_stdio_output@@@__crt_stdio_output@@AAE_NABUparameter_data@12@W4parameter_type@12@DW4length_modifier@2@@Z 10023958 f i libucrt:output.obj
 0001:00022a72       ?is_positional_parameter_reappearance_consistent@?$positional_parameter_base@DV?$string_output_adapter@D@__crt_stdio_output@@@__crt_stdio_output@@AAE_NABUparameter_data@12@W4parameter_type@12@DW4length_modifier@2@@Z 10023a72 f i libucrt:output.obj
 0001:00022b8c       ?is_positional_parameter_reappearance_consistent@?$positional_parameter_base@_WV?$stream_output_adapter@_W@__crt_stdio_output@@@__crt_stdio_output@@AAE_NABUparameter_data@12@W4parameter_type@12@_WW4length_modifier@2@@Z 10023b8c f i libucrt:output.obj
 0001:00022ca7       ?is_positional_parameter_reappearance_consistent@?$positional_parameter_base@_WV?$string_output_adapter@_W@__crt_stdio_output@@@__crt_stdio_output@@AAE_NABUparameter_data@12@W4parameter_type@12@_WW4length_modifier@2@@Z 10023ca7 f i libucrt:output.obj
 0001:00022dc2       ?is_string_backed@__crt_stdio_stream@@QBE_NXZ 10023dc2 f i libucrt:output.obj
 0001:00022dce       ?narrow_null_string@?$output_processor@DV?$stream_output_adapter@D@__crt_stdio_output@@V?$format_validation_base@DV?$stream_output_adapter@D@__crt_stdio_output@@@2@@__crt_stdio_output@@CAPADXZ 10023dce f i libucrt:output.obj
 0001:00022dd4       ?narrow_null_string@?$output_processor@DV?$stream_output_adapter@D@__crt_stdio_output@@V?$positional_parameter_base@DV?$stream_output_adapter@D@__crt_stdio_output@@@2@@__crt_stdio_output@@CAPADXZ 10023dd4 f i libucrt:output.obj
 0001:00022dda       ?narrow_null_string@?$output_processor@DV?$stream_output_adapter@D@__crt_stdio_output@@V?$standard_base@DV?$stream_output_adapter@D@__crt_stdio_output@@@2@@__crt_stdio_output@@CAPADXZ 10023dda f i libucrt:output.obj
 0001:00022de0       ?narrow_null_string@?$output_processor@DV?$string_output_adapter@D@__crt_stdio_output@@V?$format_validation_base@DV?$string_output_adapter@D@__crt_stdio_output@@@2@@__crt_stdio_output@@CAPADXZ 10023de0 f i libucrt:output.obj
 0001:00022de6       ?narrow_null_string@?$output_processor@DV?$string_output_adapter@D@__crt_stdio_output@@V?$positional_parameter_base@DV?$string_output_adapter@D@__crt_stdio_output@@@2@@__crt_stdio_output@@CAPADXZ 10023de6 f i libucrt:output.obj
 0001:00022dec       ?narrow_null_string@?$output_processor@DV?$string_output_adapter@D@__crt_stdio_output@@V?$standard_base@DV?$string_output_adapter@D@__crt_stdio_output@@@2@@__crt_stdio_output@@CAPADXZ 10023dec f i libucrt:output.obj
 0001:00022df2       ?narrow_null_string@?$output_processor@_WV?$stream_output_adapter@_W@__crt_stdio_output@@V?$format_validation_base@_WV?$stream_output_adapter@_W@__crt_stdio_output@@@2@@__crt_stdio_output@@CAPADXZ 10023df2 f i libucrt:output.obj
 0001:00022df8       ?narrow_null_string@?$output_processor@_WV?$stream_output_adapter@_W@__crt_stdio_output@@V?$positional_parameter_base@_WV?$stream_output_adapter@_W@__crt_stdio_output@@@2@@__crt_stdio_output@@CAPADXZ 10023df8 f i libucrt:output.obj
 0001:00022dfe       ?narrow_null_string@?$output_processor@_WV?$stream_output_adapter@_W@__crt_stdio_output@@V?$standard_base@_WV?$stream_output_adapter@_W@__crt_stdio_output@@@2@@__crt_stdio_output@@CAPADXZ 10023dfe f i libucrt:output.obj
 0001:00022e04       ?narrow_null_string@?$output_processor@_WV?$string_output_adapter@_W@__crt_stdio_output@@V?$format_validation_base@_WV?$string_output_adapter@_W@__crt_stdio_output@@@2@@__crt_stdio_output@@CAPADXZ 10023e04 f i libucrt:output.obj
 0001:00022e0a       ?narrow_null_string@?$output_processor@_WV?$string_output_adapter@_W@__crt_stdio_output@@V?$positional_parameter_base@_WV?$string_output_adapter@_W@__crt_stdio_output@@@2@@__crt_stdio_output@@CAPADXZ 10023e0a f i libucrt:output.obj
 0001:00022e10       ?narrow_null_string@?$output_processor@_WV?$string_output_adapter@_W@__crt_stdio_output@@V?$standard_base@_WV?$string_output_adapter@_W@__crt_stdio_output@@@2@@__crt_stdio_output@@CAPADXZ 10023e10 f i libucrt:output.obj
 0001:00022e16       ?parse_int_from_format_string@?$output_processor@DV?$stream_output_adapter@D@__crt_stdio_output@@V?$format_validation_base@DV?$stream_output_adapter@D@__crt_stdio_output@@@2@@__crt_stdio_output@@AAE_NQAH@Z 10023e16 f i libucrt:output.obj
 0001:00022e8a       ?parse_int_from_format_string@?$output_processor@DV?$stream_output_adapter@D@__crt_stdio_output@@V?$positional_parameter_base@DV?$stream_output_adapter@D@__crt_stdio_output@@@2@@__crt_stdio_output@@AAE_NQAH@Z 10023e8a f i libucrt:output.obj
 0001:00022efe       ?parse_int_from_format_string@?$output_processor@DV?$stream_output_adapter@D@__crt_stdio_output@@V?$standard_base@DV?$stream_output_adapter@D@__crt_stdio_output@@@2@@__crt_stdio_output@@AAE_NQAH@Z 10023efe f i libucrt:output.obj
 0001:00022f72       ?parse_int_from_format_string@?$output_processor@DV?$string_output_adapter@D@__crt_stdio_output@@V?$format_validation_base@DV?$string_output_adapter@D@__crt_stdio_output@@@2@@__crt_stdio_output@@AAE_NQAH@Z 10023f72 f i libucrt:output.obj
 0001:00022fe6       ?parse_int_from_format_string@?$output_processor@DV?$string_output_adapter@D@__crt_stdio_output@@V?$positional_parameter_base@DV?$string_output_adapter@D@__crt_stdio_output@@@2@@__crt_stdio_output@@AAE_NQAH@Z 10023fe6 f i libucrt:output.obj
 0001:0002305a       ?parse_int_from_format_string@?$output_processor@DV?$string_output_adapter@D@__crt_stdio_output@@V?$standard_base@DV?$string_output_adapter@D@__crt_stdio_output@@@2@@__crt_stdio_output@@AAE_NQAH@Z 1002405a f i libucrt:output.obj
 0001:000230ce       ?parse_int_from_format_string@?$output_processor@_WV?$stream_output_adapter@_W@__crt_stdio_output@@V?$format_validation_base@_WV?$stream_output_adapter@_W@__crt_stdio_output@@@2@@__crt_stdio_output@@AAE_NQAH@Z 100240ce f i libucrt:output.obj
 0001:00023144       ?parse_int_from_format_string@?$output_processor@_WV?$stream_output_adapter@_W@__crt_stdio_output@@V?$positional_parameter_base@_WV?$stream_output_adapter@_W@__crt_stdio_output@@@2@@__crt_stdio_output@@AAE_NQAH@Z 10024144 f i libucrt:output.obj
 0001:000231ba       ?parse_int_from_format_string@?$output_processor@_WV?$stream_output_adapter@_W@__crt_stdio_output@@V?$standard_base@_WV?$stream_output_adapter@_W@__crt_stdio_output@@@2@@__crt_stdio_output@@AAE_NQAH@Z 100241ba f i libucrt:output.obj
 0001:00023230       ?parse_int_from_format_string@?$output_processor@_WV?$string_output_adapter@_W@__crt_stdio_output@@V?$format_validation_base@_WV?$string_output_adapter@_W@__crt_stdio_output@@@2@@__crt_stdio_output@@AAE_NQAH@Z 10024230 f i libucrt:output.obj
 0001:000232a6       ?parse_int_from_format_string@?$output_processor@_WV?$string_output_adapter@_W@__crt_stdio_output@@V?$positional_parameter_base@_WV?$string_output_adapter@_W@__crt_stdio_output@@@2@@__crt_stdio_output@@AAE_NQAH@Z 100242a6 f i libucrt:output.obj
 0001:0002331c       ?parse_int_from_format_string@?$output_processor@_WV?$string_output_adapter@_W@__crt_stdio_output@@V?$standard_base@_WV?$string_output_adapter@_W@__crt_stdio_output@@@2@@__crt_stdio_output@@AAE_NQAH@Z 1002431c f i libucrt:output.obj
 0001:00023392       ?process@?$output_processor@DV?$stream_output_adapter@D@__crt_stdio_output@@V?$format_validation_base@DV?$stream_output_adapter@D@__crt_stdio_output@@@2@@__crt_stdio_output@@QAEHXZ 10024392 f i libucrt:output.obj
 0001:000234b6       ?process@?$output_processor@DV?$stream_output_adapter@D@__crt_stdio_output@@V?$positional_parameter_base@DV?$stream_output_adapter@D@__crt_stdio_output@@@2@@__crt_stdio_output@@QAEHXZ 100244b6 f i libucrt:output.obj
 0001:000235e6       ?process@?$output_processor@DV?$stream_output_adapter@D@__crt_stdio_output@@V?$standard_base@DV?$stream_output_adapter@D@__crt_stdio_output@@@2@@__crt_stdio_output@@QAEHXZ 100245e6 f i libucrt:output.obj
 0001:000236fa       ?process@?$output_processor@DV?$string_output_adapter@D@__crt_stdio_output@@V?$format_validation_base@DV?$string_output_adapter@D@__crt_stdio_output@@@2@@__crt_stdio_output@@QAEHXZ 100246fa f i libucrt:output.obj
 0001:0002381e       ?process@?$output_processor@DV?$string_output_adapter@D@__crt_stdio_output@@V?$positional_parameter_base@DV?$string_output_adapter@D@__crt_stdio_output@@@2@@__crt_stdio_output@@QAEHXZ 1002481e f i libucrt:output.obj
 0001:0002394e       ?process@?$output_processor@DV?$string_output_adapter@D@__crt_stdio_output@@V?$standard_base@DV?$string_output_adapter@D@__crt_stdio_output@@@2@@__crt_stdio_output@@QAEHXZ 1002494e f i libucrt:output.obj
 0001:00023a62       ?process@?$output_processor@_WV?$stream_output_adapter@_W@__crt_stdio_output@@V?$format_validation_base@_WV?$stream_output_adapter@_W@__crt_stdio_output@@@2@@__crt_stdio_output@@QAEHXZ 10024a62 f i libucrt:output.obj
 0001:00023b8a       ?process@?$output_processor@_WV?$stream_output_adapter@_W@__crt_stdio_output@@V?$positional_parameter_base@_WV?$stream_output_adapter@_W@__crt_stdio_output@@@2@@__crt_stdio_output@@QAEHXZ 10024b8a f i libucrt:output.obj
 0001:00023cbe       ?process@?$output_processor@_WV?$stream_output_adapter@_W@__crt_stdio_output@@V?$standard_base@_WV?$stream_output_adapter@_W@__crt_stdio_output@@@2@@__crt_stdio_output@@QAEHXZ 10024cbe f i libucrt:output.obj
 0001:00023dda       ?process@?$output_processor@_WV?$string_output_adapter@_W@__crt_stdio_output@@V?$format_validation_base@_WV?$string_output_adapter@_W@__crt_stdio_output@@@2@@__crt_stdio_output@@QAEHXZ 10024dda f i libucrt:output.obj
 0001:00023f02       ?process@?$output_processor@_WV?$string_output_adapter@_W@__crt_stdio_output@@V?$positional_parameter_base@_WV?$string_output_adapter@_W@__crt_stdio_output@@@2@@__crt_stdio_output@@QAEHXZ 10024f02 f i libucrt:output.obj
 0001:00024036       ?process@?$output_processor@_WV?$string_output_adapter@_W@__crt_stdio_output@@V?$standard_base@_WV?$string_output_adapter@_W@__crt_stdio_output@@@2@@__crt_stdio_output@@QAEHXZ 10025036 f i libucrt:output.obj
 0001:00024152       ?public_stream@__crt_stdio_stream@@QBEPAU_iobuf@@XZ 10025152 f i libucrt:output.obj
 0001:00024155       ?set_flag@?$output_processor@DV?$stream_output_adapter@D@__crt_stdio_output@@V?$format_validation_base@DV?$stream_output_adapter@D@__crt_stdio_output@@@2@@__crt_stdio_output@@AAEXI@Z 10025155 f i libucrt:output.obj
 0001:00024164       ?set_flag@?$output_processor@DV?$stream_output_adapter@D@__crt_stdio_output@@V?$positional_parameter_base@DV?$stream_output_adapter@D@__crt_stdio_output@@@2@@__crt_stdio_output@@AAEXI@Z 10025164 f i libucrt:output.obj
 0001:00024173       ?set_flag@?$output_processor@DV?$stream_output_adapter@D@__crt_stdio_output@@V?$standard_base@DV?$stream_output_adapter@D@__crt_stdio_output@@@2@@__crt_stdio_output@@AAEXI@Z 10025173 f i libucrt:output.obj
 0001:00024182       ?set_flag@?$output_processor@DV?$string_output_adapter@D@__crt_stdio_output@@V?$format_validation_base@DV?$string_output_adapter@D@__crt_stdio_output@@@2@@__crt_stdio_output@@AAEXI@Z 10025182 f i libucrt:output.obj
 0001:00024191       ?set_flag@?$output_processor@DV?$string_output_adapter@D@__crt_stdio_output@@V?$positional_parameter_base@DV?$string_output_adapter@D@__crt_stdio_output@@@2@@__crt_stdio_output@@AAEXI@Z 10025191 f i libucrt:output.obj
 0001:000241a0       ?set_flag@?$output_processor@DV?$string_output_adapter@D@__crt_stdio_output@@V?$standard_base@DV?$string_output_adapter@D@__crt_stdio_output@@@2@@__crt_stdio_output@@AAEXI@Z 100251a0 f i libucrt:output.obj
 0001:000241af       ?set_flag@?$output_processor@_WV?$stream_output_adapter@_W@__crt_stdio_output@@V?$format_validation_base@_WV?$stream_output_adapter@_W@__crt_stdio_output@@@2@@__crt_stdio_output@@AAEXI@Z 100251af f i libucrt:output.obj
 0001:000241be       ?set_flag@?$output_processor@_WV?$stream_output_adapter@_W@__crt_stdio_output@@V?$positional_parameter_base@_WV?$stream_output_adapter@_W@__crt_stdio_output@@@2@@__crt_stdio_output@@AAEXI@Z 100251be f i libucrt:output.obj
 0001:000241cd       ?set_flag@?$output_processor@_WV?$stream_output_adapter@_W@__crt_stdio_output@@V?$standard_base@_WV?$stream_output_adapter@_W@__crt_stdio_output@@@2@@__crt_stdio_output@@AAEXI@Z 100251cd f i libucrt:output.obj
 0001:000241dc       ?set_flag@?$output_processor@_WV?$string_output_adapter@_W@__crt_stdio_output@@V?$format_validation_base@_WV?$string_output_adapter@_W@__crt_stdio_output@@@2@@__crt_stdio_output@@AAEXI@Z 100251dc f i libucrt:output.obj
 0001:000241eb       ?set_flag@?$output_processor@_WV?$string_output_adapter@_W@__crt_stdio_output@@V?$positional_parameter_base@_WV?$string_output_adapter@_W@__crt_stdio_output@@@2@@__crt_stdio_output@@AAEXI@Z 100251eb f i libucrt:output.obj
 0001:000241fa       ?set_flag@?$output_processor@_WV?$string_output_adapter@_W@__crt_stdio_output@@V?$standard_base@_WV?$string_output_adapter@_W@__crt_stdio_output@@@2@@__crt_stdio_output@@AAEXI@Z 100251fa f i libucrt:output.obj
 0001:00024209       ?should_format@?$positional_parameter_base@DV?$stream_output_adapter@D@__crt_stdio_output@@@__crt_stdio_output@@IAE_NXZ 10025209 f i libucrt:output.obj
 0001:0002421f       ?should_format@?$positional_parameter_base@DV?$string_output_adapter@D@__crt_stdio_output@@@__crt_stdio_output@@IAE_NXZ 1002521f f i libucrt:output.obj
 0001:00024235       ?should_format@?$positional_parameter_base@_WV?$stream_output_adapter@_W@__crt_stdio_output@@@__crt_stdio_output@@IAE_NXZ 10025235 f i libucrt:output.obj
 0001:0002424b       ?should_format@?$positional_parameter_base@_WV?$string_output_adapter@_W@__crt_stdio_output@@@__crt_stdio_output@@IAE_NXZ 1002524b f i libucrt:output.obj
 0001:00024261       ?should_format@?$standard_base@DV?$stream_output_adapter@D@__crt_stdio_output@@@__crt_stdio_output@@IAE_NXZ 10025261 f i libucrt:output.obj
 0001:00024264       ?should_format@?$standard_base@DV?$string_output_adapter@D@__crt_stdio_output@@@__crt_stdio_output@@IAE_NXZ 10025264 f i libucrt:output.obj
 0001:00024267       ?should_format@?$standard_base@_WV?$stream_output_adapter@_W@__crt_stdio_output@@@__crt_stdio_output@@IAE_NXZ 10025267 f i libucrt:output.obj
 0001:0002426a       ?should_format@?$standard_base@_WV?$string_output_adapter@_W@__crt_stdio_output@@@__crt_stdio_output@@IAE_NXZ 1002526a f i libucrt:output.obj
 0001:0002426d       ?should_skip_normal_state_processing@?$positional_parameter_base@DV?$stream_output_adapter@D@__crt_stdio_output@@@__crt_stdio_output@@IAE_NXZ 1002526d f i libucrt:output.obj
 0001:00024295       ?should_skip_normal_state_processing@?$positional_parameter_base@DV?$string_output_adapter@D@__crt_stdio_output@@@__crt_stdio_output@@IAE_NXZ 10025295 f i libucrt:output.obj
 0001:000242bd       ?should_skip_normal_state_processing@?$positional_parameter_base@_WV?$stream_output_adapter@_W@__crt_stdio_output@@@__crt_stdio_output@@IAE_NXZ 100252bd f i libucrt:output.obj
 0001:000242e5       ?should_skip_normal_state_processing@?$positional_parameter_base@_WV?$string_output_adapter@_W@__crt_stdio_output@@@__crt_stdio_output@@IAE_NXZ 100252e5 f i libucrt:output.obj
 0001:0002430d       ?should_skip_normal_state_processing@?$standard_base@DV?$stream_output_adapter@D@__crt_stdio_output@@@__crt_stdio_output@@IAE_NXZ 1002530d f i libucrt:output.obj
 0001:00024310       ?should_skip_normal_state_processing@?$standard_base@DV?$string_output_adapter@D@__crt_stdio_output@@@__crt_stdio_output@@IAE_NXZ 10025310 f i libucrt:output.obj
 0001:00024313       ?should_skip_normal_state_processing@?$standard_base@_WV?$stream_output_adapter@_W@__crt_stdio_output@@@__crt_stdio_output@@IAE_NXZ 10025313 f i libucrt:output.obj
 0001:00024316       ?should_skip_normal_state_processing@?$standard_base@_WV?$string_output_adapter@_W@__crt_stdio_output@@@__crt_stdio_output@@IAE_NXZ 10025316 f i libucrt:output.obj
 0001:00024319       ?should_skip_type_state_output@?$positional_parameter_base@DV?$stream_output_adapter@D@__crt_stdio_output@@@__crt_stdio_output@@IBE_NXZ 10025319 f i libucrt:output.obj
 0001:00024330       ?should_skip_type_state_output@?$positional_parameter_base@DV?$string_output_adapter@D@__crt_stdio_output@@@__crt_stdio_output@@IBE_NXZ 10025330 f i libucrt:output.obj
 0001:00024347       ?should_skip_type_state_output@?$positional_parameter_base@_WV?$stream_output_adapter@_W@__crt_stdio_output@@@__crt_stdio_output@@IBE_NXZ 10025347 f i libucrt:output.obj
 0001:0002435e       ?should_skip_type_state_output@?$positional_parameter_base@_WV?$string_output_adapter@_W@__crt_stdio_output@@@__crt_stdio_output@@IBE_NXZ 1002535e f i libucrt:output.obj
 0001:00024375       ?should_skip_type_state_output@?$standard_base@DV?$stream_output_adapter@D@__crt_stdio_output@@@__crt_stdio_output@@IBE_NXZ 10025375 f i libucrt:output.obj
 0001:00024378       ?should_skip_type_state_output@?$standard_base@DV?$string_output_adapter@D@__crt_stdio_output@@@__crt_stdio_output@@IBE_NXZ 10025378 f i libucrt:output.obj
 0001:0002437b       ?should_skip_type_state_output@?$standard_base@_WV?$stream_output_adapter@_W@__crt_stdio_output@@@__crt_stdio_output@@IBE_NXZ 1002537b f i libucrt:output.obj
 0001:0002437e       ?should_skip_type_state_output@?$standard_base@_WV?$string_output_adapter@_W@__crt_stdio_output@@@__crt_stdio_output@@IBE_NXZ 1002537e f i libucrt:output.obj
 0001:00024381       ?state_case_dot@?$output_processor@DV?$stream_output_adapter@D@__crt_stdio_output@@V?$format_validation_base@DV?$stream_output_adapter@D@__crt_stdio_output@@@2@@__crt_stdio_output@@AAE_NXZ 10025381 f i libucrt:output.obj
 0001:00024388       ?state_case_dot@?$output_processor@DV?$stream_output_adapter@D@__crt_stdio_output@@V?$positional_parameter_base@DV?$stream_output_adapter@D@__crt_stdio_output@@@2@@__crt_stdio_output@@AAE_NXZ 10025388 f i libucrt:output.obj
 0001:0002438f       ?state_case_dot@?$output_processor@DV?$stream_output_adapter@D@__crt_stdio_output@@V?$standard_base@DV?$stream_output_adapter@D@__crt_stdio_output@@@2@@__crt_stdio_output@@AAE_NXZ 1002538f f i libucrt:output.obj
 0001:00024396       ?state_case_dot@?$output_processor@DV?$string_output_adapter@D@__crt_stdio_output@@V?$format_validation_base@DV?$string_output_adapter@D@__crt_stdio_output@@@2@@__crt_stdio_output@@AAE_NXZ 10025396 f i libucrt:output.obj
 0001:0002439d       ?state_case_dot@?$output_processor@DV?$string_output_adapter@D@__crt_stdio_output@@V?$positional_parameter_base@DV?$string_output_adapter@D@__crt_stdio_output@@@2@@__crt_stdio_output@@AAE_NXZ 1002539d f i libucrt:output.obj
 0001:000243a4       ?state_case_dot@?$output_processor@DV?$string_output_adapter@D@__crt_stdio_output@@V?$standard_base@DV?$string_output_adapter@D@__crt_stdio_output@@@2@@__crt_stdio_output@@AAE_NXZ 100253a4 f i libucrt:output.obj
 0001:000243ab       ?state_case_dot@?$output_processor@_WV?$stream_output_adapter@_W@__crt_stdio_output@@V?$format_validation_base@_WV?$stream_output_adapter@_W@__crt_stdio_output@@@2@@__crt_stdio_output@@AAE_NXZ 100253ab f i libucrt:output.obj
 0001:000243b2       ?state_case_dot@?$output_processor@_WV?$stream_output_adapter@_W@__crt_stdio_output@@V?$positional_parameter_base@_WV?$stream_output_adapter@_W@__crt_stdio_output@@@2@@__crt_stdio_output@@AAE_NXZ 100253b2 f i libucrt:output.obj
 0001:000243b9       ?state_case_dot@?$output_processor@_WV?$stream_output_adapter@_W@__crt_stdio_output@@V?$standard_base@_WV?$stream_output_adapter@_W@__crt_stdio_output@@@2@@__crt_stdio_output@@AAE_NXZ 100253b9 f i libucrt:output.obj
 0001:000243c0       ?state_case_dot@?$output_processor@_WV?$string_output_adapter@_W@__crt_stdio_output@@V?$format_validation_base@_WV?$string_output_adapter@_W@__crt_stdio_output@@@2@@__crt_stdio_output@@AAE_NXZ 100253c0 f i libucrt:output.obj
 0001:000243c7       ?state_case_dot@?$output_processor@_WV?$string_output_adapter@_W@__crt_stdio_output@@V?$positional_parameter_base@_WV?$string_output_adapter@_W@__crt_stdio_output@@@2@@__crt_stdio_output@@AAE_NXZ 100253c7 f i libucrt:output.obj
 0001:000243ce       ?state_case_dot@?$output_processor@_WV?$string_output_adapter@_W@__crt_stdio_output@@V?$standard_base@_WV?$string_output_adapter@_W@__crt_stdio_output@@@2@@__crt_stdio_output@@AAE_NXZ 100253ce f i libucrt:output.obj
 0001:000243d5       ?state_case_flag@?$output_processor@DV?$stream_output_adapter@D@__crt_stdio_output@@V?$format_validation_base@DV?$stream_output_adapter@D@__crt_stdio_output@@@2@@__crt_stdio_output@@AAE_NXZ 100253d5 f i libucrt:output.obj
 0001:00024412       ?state_case_flag@?$output_processor@DV?$stream_output_adapter@D@__crt_stdio_output@@V?$positional_parameter_base@DV?$stream_output_adapter@D@__crt_stdio_output@@@2@@__crt_stdio_output@@AAE_NXZ 10025412 f i libucrt:output.obj
 0001:0002444f       ?state_case_flag@?$output_processor@DV?$stream_output_adapter@D@__crt_stdio_output@@V?$standard_base@DV?$stream_output_adapter@D@__crt_stdio_output@@@2@@__crt_stdio_output@@AAE_NXZ 1002544f f i libucrt:output.obj
 0001:0002448c       ?state_case_flag@?$output_processor@DV?$string_output_adapter@D@__crt_stdio_output@@V?$format_validation_base@DV?$string_output_adapter@D@__crt_stdio_output@@@2@@__crt_stdio_output@@AAE_NXZ 1002548c f i libucrt:output.obj
 0001:000244c9       ?state_case_flag@?$output_processor@DV?$string_output_adapter@D@__crt_stdio_output@@V?$positional_parameter_base@DV?$string_output_adapter@D@__crt_stdio_output@@@2@@__crt_stdio_output@@AAE_NXZ 100254c9 f i libucrt:output.obj
 0001:00024506       ?state_case_flag@?$output_processor@DV?$string_output_adapter@D@__crt_stdio_output@@V?$standard_base@DV?$string_output_adapter@D@__crt_stdio_output@@@2@@__crt_stdio_output@@AAE_NXZ 10025506 f i libucrt:output.obj
 0001:00024543       ?state_case_flag@?$output_processor@_WV?$stream_output_adapter@_W@__crt_stdio_output@@V?$format_validation_base@_WV?$stream_output_adapter@_W@__crt_stdio_output@@@2@@__crt_stdio_output@@AAE_NXZ 10025543 f i libucrt:output.obj
 0001:00024580       ?state_case_flag@?$output_processor@_WV?$stream_output_adapter@_W@__crt_stdio_output@@V?$positional_parameter_base@_WV?$stream_output_adapter@_W@__crt_stdio_output@@@2@@__crt_stdio_output@@AAE_NXZ 10025580 f i libucrt:output.obj
 0001:000245bd       ?state_case_flag@?$output_processor@_WV?$stream_output_adapter@_W@__crt_stdio_output@@V?$standard_base@_WV?$stream_output_adapter@_W@__crt_stdio_output@@@2@@__crt_stdio_output@@AAE_NXZ 100255bd f i libucrt:output.obj
 0001:000245fa       ?state_case_flag@?$output_processor@_WV?$string_output_adapter@_W@__crt_stdio_output@@V?$format_validation_base@_WV?$string_output_adapter@_W@__crt_stdio_output@@@2@@__crt_stdio_output@@AAE_NXZ 100255fa f i libucrt:output.obj
 0001:00024637       ?state_case_flag@?$output_processor@_WV?$string_output_adapter@_W@__crt_stdio_output@@V?$positional_parameter_base@_WV?$string_output_adapter@_W@__crt_stdio_output@@@2@@__crt_stdio_output@@AAE_NXZ 10025637 f i libucrt:output.obj
 0001:00024674       ?state_case_flag@?$output_processor@_WV?$string_output_adapter@_W@__crt_stdio_output@@V?$standard_base@_WV?$string_output_adapter@_W@__crt_stdio_output@@@2@@__crt_stdio_output@@AAE_NXZ 10025674 f i libucrt:output.obj
 0001:000246b1       ?state_case_normal@?$output_processor@DV?$stream_output_adapter@D@__crt_stdio_output@@V?$format_validation_base@DV?$stream_output_adapter@D@__crt_stdio_output@@@2@@__crt_stdio_output@@AAE_NXZ 100256b1 f i libucrt:output.obj
 0001:000246d0       ?state_case_normal@?$output_processor@DV?$stream_output_adapter@D@__crt_stdio_output@@V?$positional_parameter_base@DV?$stream_output_adapter@D@__crt_stdio_output@@@2@@__crt_stdio_output@@AAE_NXZ 100256d0 f i libucrt:output.obj
 0001:00024701       ?state_case_normal@?$output_processor@DV?$stream_output_adapter@D@__crt_stdio_output@@V?$standard_base@DV?$stream_output_adapter@D@__crt_stdio_output@@@2@@__crt_stdio_output@@AAE_NXZ 10025701 f i libucrt:output.obj
 0001:00024720       ?state_case_normal@?$output_processor@DV?$string_output_adapter@D@__crt_stdio_output@@V?$format_validation_base@DV?$string_output_adapter@D@__crt_stdio_output@@@2@@__crt_stdio_output@@AAE_NXZ 10025720 f i libucrt:output.obj
 0001:0002473f       ?state_case_normal@?$output_processor@DV?$string_output_adapter@D@__crt_stdio_output@@V?$positional_parameter_base@DV?$string_output_adapter@D@__crt_stdio_output@@@2@@__crt_stdio_output@@AAE_NXZ 1002573f f i libucrt:output.obj
 0001:00024770       ?state_case_normal@?$output_processor@DV?$string_output_adapter@D@__crt_stdio_output@@V?$standard_base@DV?$string_output_adapter@D@__crt_stdio_output@@@2@@__crt_stdio_output@@AAE_NXZ 10025770 f i libucrt:output.obj
 0001:0002478f       ?state_case_normal@?$output_processor@_WV?$stream_output_adapter@_W@__crt_stdio_output@@V?$format_validation_base@_WV?$stream_output_adapter@_W@__crt_stdio_output@@@2@@__crt_stdio_output@@AAE_NXZ 1002578f f i libucrt:output.obj
 0001:000247ae       ?state_case_normal@?$output_processor@_WV?$stream_output_adapter@_W@__crt_stdio_output@@V?$positional_parameter_base@_WV?$stream_output_adapter@_W@__crt_stdio_output@@@2@@__crt_stdio_output@@AAE_NXZ 100257ae f i libucrt:output.obj
 0001:000247df       ?state_case_normal@?$output_processor@_WV?$stream_output_adapter@_W@__crt_stdio_output@@V?$standard_base@_WV?$stream_output_adapter@_W@__crt_stdio_output@@@2@@__crt_stdio_output@@AAE_NXZ 100257df f i libucrt:output.obj
 0001:000247fe       ?state_case_normal@?$output_processor@_WV?$string_output_adapter@_W@__crt_stdio_output@@V?$format_validation_base@_WV?$string_output_adapter@_W@__crt_stdio_output@@@2@@__crt_stdio_output@@AAE_NXZ 100257fe f i libucrt:output.obj
 0001:0002481d       ?state_case_normal@?$output_processor@_WV?$string_output_adapter@_W@__crt_stdio_output@@V?$positional_parameter_base@_WV?$string_output_adapter@_W@__crt_stdio_output@@@2@@__crt_stdio_output@@AAE_NXZ 1002581d f i libucrt:output.obj
 0001:0002484e       ?state_case_normal@?$output_processor@_WV?$string_output_adapter@_W@__crt_stdio_output@@V?$standard_base@_WV?$string_output_adapter@_W@__crt_stdio_output@@@2@@__crt_stdio_output@@AAE_NXZ 1002584e f i libucrt:output.obj
 0001:0002486d       ?state_case_normal_common@?$output_processor@DV?$stream_output_adapter@D@__crt_stdio_output@@V?$format_validation_base@DV?$stream_output_adapter@D@__crt_stdio_output@@@2@@__crt_stdio_output@@AAE_NXZ 1002586d f i libucrt:output.obj
 0001:000248a7       ?state_case_normal_common@?$output_processor@DV?$stream_output_adapter@D@__crt_stdio_output@@V?$positional_parameter_base@DV?$stream_output_adapter@D@__crt_stdio_output@@@2@@__crt_stdio_output@@AAE_NXZ 100258a7 f i libucrt:output.obj
 0001:000248e1       ?state_case_normal_common@?$output_processor@DV?$stream_output_adapter@D@__crt_stdio_output@@V?$standard_base@DV?$stream_output_adapter@D@__crt_stdio_output@@@2@@__crt_stdio_output@@AAE_NXZ 100258e1 f i libucrt:output.obj
 0001:0002491b       ?state_case_normal_common@?$output_processor@DV?$string_output_adapter@D@__crt_stdio_output@@V?$format_validation_base@DV?$string_output_adapter@D@__crt_stdio_output@@@2@@__crt_stdio_output@@AAE_NXZ 1002591b f i libucrt:output.obj
 0001:00024945       ?state_case_normal_common@?$output_processor@DV?$string_output_adapter@D@__crt_stdio_output@@V?$positional_parameter_base@DV?$string_output_adapter@D@__crt_stdio_output@@@2@@__crt_stdio_output@@AAE_NXZ 10025945 f i libucrt:output.obj
 0001:0002496f       ?state_case_normal_common@?$output_processor@DV?$string_output_adapter@D@__crt_stdio_output@@V?$standard_base@DV?$string_output_adapter@D@__crt_stdio_output@@@2@@__crt_stdio_output@@AAE_NXZ 1002596f f i libucrt:output.obj
 0001:00024999       ?state_case_normal_common@?$output_processor@_WV?$stream_output_adapter@_W@__crt_stdio_output@@V?$format_validation_base@_WV?$stream_output_adapter@_W@__crt_stdio_output@@@2@@__crt_stdio_output@@AAE_NXZ 10025999 f i libucrt:output.obj
 0001:000249c3       ?state_case_normal_common@?$output_processor@_WV?$stream_output_adapter@_W@__crt_stdio_output@@V?$positional_parameter_base@_WV?$stream_output_adapter@_W@__crt_stdio_output@@@2@@__crt_stdio_output@@AAE_NXZ 100259c3 f i libucrt:output.obj
 0001:000249ed       ?state_case_normal_common@?$output_processor@_WV?$stream_output_adapter@_W@__crt_stdio_output@@V?$standard_base@_WV?$stream_output_adapter@_W@__crt_stdio_output@@@2@@__crt_stdio_output@@AAE_NXZ 100259ed f i libucrt:output.obj
 0001:00024a17       ?state_case_normal_common@?$output_processor@_WV?$string_output_adapter@_W@__crt_stdio_output@@V?$format_validation_base@_WV?$string_output_adapter@_W@__crt_stdio_output@@@2@@__crt_stdio_output@@AAE_NXZ 10025a17 f i libucrt:output.obj
 0001:00024a32       ?state_case_normal_common@?$output_processor@_WV?$string_output_adapter@_W@__crt_stdio_output@@V?$positional_parameter_base@_WV?$string_output_adapter@_W@__crt_stdio_output@@@2@@__crt_stdio_output@@AAE_NXZ 10025a32 f i libucrt:output.obj
 0001:00024a4d       ?state_case_normal_common@?$output_processor@_WV?$string_output_adapter@_W@__crt_stdio_output@@V?$standard_base@_WV?$string_output_adapter@_W@__crt_stdio_output@@@2@@__crt_stdio_output@@AAE_NXZ 10025a4d f i libucrt:output.obj
 0001:00024a68       ?state_case_normal_tchar@?$output_processor@DV?$stream_output_adapter@D@__crt_stdio_output@@V?$format_validation_base@DV?$stream_output_adapter@D@__crt_stdio_output@@@2@@__crt_stdio_output@@AAE_ND@Z 10025a68 f i libucrt:output.obj
 0001:00024ad5       ?state_case_normal_tchar@?$output_processor@DV?$stream_output_adapter@D@__crt_stdio_output@@V?$positional_parameter_base@DV?$stream_output_adapter@D@__crt_stdio_output@@@2@@__crt_stdio_output@@AAE_ND@Z 10025ad5 f i libucrt:output.obj
 0001:00024b42       ?state_case_normal_tchar@?$output_processor@DV?$stream_output_adapter@D@__crt_stdio_output@@V?$standard_base@DV?$stream_output_adapter@D@__crt_stdio_output@@@2@@__crt_stdio_output@@AAE_ND@Z 10025b42 f i libucrt:output.obj
 0001:00024baf       ?state_case_normal_tchar@?$output_processor@DV?$string_output_adapter@D@__crt_stdio_output@@V?$format_validation_base@DV?$string_output_adapter@D@__crt_stdio_output@@@2@@__crt_stdio_output@@AAE_ND@Z 10025baf f i libucrt:output.obj
 0001:00024c13       ?state_case_normal_tchar@?$output_processor@DV?$string_output_adapter@D@__crt_stdio_output@@V?$positional_parameter_base@DV?$string_output_adapter@D@__crt_stdio_output@@@2@@__crt_stdio_output@@AAE_ND@Z 10025c13 f i libucrt:output.obj
 0001:00024c77       ?state_case_normal_tchar@?$output_processor@DV?$string_output_adapter@D@__crt_stdio_output@@V?$standard_base@DV?$string_output_adapter@D@__crt_stdio_output@@@2@@__crt_stdio_output@@AAE_ND@Z 10025c77 f i libucrt:output.obj
 0001:00024cdb       ?state_case_normal_tchar@?$output_processor@_WV?$stream_output_adapter@_W@__crt_stdio_output@@V?$format_validation_base@_WV?$stream_output_adapter@_W@__crt_stdio_output@@@2@@__crt_stdio_output@@AAE_N_W@Z 10025cdb f i libucrt:output.obj
 0001:00024ce4       ?state_case_normal_tchar@?$output_processor@_WV?$stream_output_adapter@_W@__crt_stdio_output@@V?$positional_parameter_base@_WV?$stream_output_adapter@_W@__crt_stdio_output@@@2@@__crt_stdio_output@@AAE_N_W@Z 10025ce4 f i libucrt:output.obj
 0001:00024ced       ?state_case_normal_tchar@?$output_processor@_WV?$stream_output_adapter@_W@__crt_stdio_output@@V?$standard_base@_WV?$stream_output_adapter@_W@__crt_stdio_output@@@2@@__crt_stdio_output@@AAE_N_W@Z 10025ced f i libucrt:output.obj
 0001:00024cf6       ?state_case_normal_tchar@?$output_processor@_WV?$string_output_adapter@_W@__crt_stdio_output@@V?$format_validation_base@_WV?$string_output_adapter@_W@__crt_stdio_output@@@2@@__crt_stdio_output@@AAE_N_W@Z 10025cf6 f i libucrt:output.obj
 0001:00024cff       ?state_case_normal_tchar@?$output_processor@_WV?$string_output_adapter@_W@__crt_stdio_output@@V?$positional_parameter_base@_WV?$string_output_adapter@_W@__crt_stdio_output@@@2@@__crt_stdio_output@@AAE_N_W@Z 10025cff f i libucrt:output.obj
 0001:00024d08       ?state_case_normal_tchar@?$output_processor@_WV?$string_output_adapter@_W@__crt_stdio_output@@V?$standard_base@_WV?$string_output_adapter@_W@__crt_stdio_output@@@2@@__crt_stdio_output@@AAE_N_W@Z 10025d08 f i libucrt:output.obj
 0001:00024d11       ?state_case_percent@?$output_processor@DV?$stream_output_adapter@D@__crt_stdio_output@@V?$format_validation_base@DV?$stream_output_adapter@D@__crt_stdio_output@@@2@@__crt_stdio_output@@AAE_NXZ 10025d11 f i libucrt:output.obj
 0001:00024d29       ?state_case_percent@?$output_processor@DV?$stream_output_adapter@D@__crt_stdio_output@@V?$positional_parameter_base@DV?$stream_output_adapter@D@__crt_stdio_output@@@2@@__crt_stdio_output@@AAE_NXZ 10025d29 f i libucrt:output.obj
 0001:00024d41       ?state_case_percent@?$output_processor@DV?$stream_output_adapter@D@__crt_stdio_output@@V?$standard_base@DV?$stream_output_adapter@D@__crt_stdio_output@@@2@@__crt_stdio_output@@AAE_NXZ 10025d41 f i libucrt:output.obj
 0001:00024d59       ?state_case_percent@?$output_processor@DV?$string_output_adapter@D@__crt_stdio_output@@V?$format_validation_base@DV?$string_output_adapter@D@__crt_stdio_output@@@2@@__crt_stdio_output@@AAE_NXZ 10025d59 f i libucrt:output.obj
 0001:00024d71       ?state_case_percent@?$output_processor@DV?$string_output_adapter@D@__crt_stdio_output@@V?$positional_parameter_base@DV?$string_output_adapter@D@__crt_stdio_output@@@2@@__crt_stdio_output@@AAE_NXZ 10025d71 f i libucrt:output.obj
 0001:00024d89       ?state_case_percent@?$output_processor@DV?$string_output_adapter@D@__crt_stdio_output@@V?$standard_base@DV?$string_output_adapter@D@__crt_stdio_output@@@2@@__crt_stdio_output@@AAE_NXZ 10025d89 f i libucrt:output.obj
 0001:00024da1       ?state_case_percent@?$output_processor@_WV?$stream_output_adapter@_W@__crt_stdio_output@@V?$format_validation_base@_WV?$stream_output_adapter@_W@__crt_stdio_output@@@2@@__crt_stdio_output@@AAE_NXZ 10025da1 f i libucrt:output.obj
 0001:00024db9       ?state_case_percent@?$output_processor@_WV?$stream_output_adapter@_W@__crt_stdio_output@@V?$positional_parameter_base@_WV?$stream_output_adapter@_W@__crt_stdio_output@@@2@@__crt_stdio_output@@AAE_NXZ 10025db9 f i libucrt:output.obj
 0001:00024dd1       ?state_case_percent@?$output_processor@_WV?$stream_output_adapter@_W@__crt_stdio_output@@V?$standard_base@_WV?$stream_output_adapter@_W@__crt_stdio_output@@@2@@__crt_stdio_output@@AAE_NXZ 10025dd1 f i libucrt:output.obj
 0001:00024de9       ?state_case_percent@?$output_processor@_WV?$string_output_adapter@_W@__crt_stdio_output@@V?$format_validation_base@_WV?$string_output_adapter@_W@__crt_stdio_output@@@2@@__crt_stdio_output@@AAE_NXZ 10025de9 f i libucrt:output.obj
 0001:00024e01       ?state_case_percent@?$output_processor@_WV?$string_output_adapter@_W@__crt_stdio_output@@V?$positional_parameter_base@_WV?$string_output_adapter@_W@__crt_stdio_output@@@2@@__crt_stdio_output@@AAE_NXZ 10025e01 f i libucrt:output.obj
 0001:00024e19       ?state_case_percent@?$output_processor@_WV?$string_output_adapter@_W@__crt_stdio_output@@V?$standard_base@_WV?$string_output_adapter@_W@__crt_stdio_output@@@2@@__crt_stdio_output@@AAE_NXZ 10025e19 f i libucrt:output.obj
 0001:00024e31       ?state_case_precision@?$output_processor@DV?$stream_output_adapter@D@__crt_stdio_output@@V?$format_validation_base@DV?$stream_output_adapter@D@__crt_stdio_output@@@2@@__crt_stdio_output@@AAE_NXZ 10025e31 f i libucrt:output.obj
 0001:00024e57       ?state_case_precision@?$output_processor@DV?$stream_output_adapter@D@__crt_stdio_output@@V?$positional_parameter_base@DV?$stream_output_adapter@D@__crt_stdio_output@@@2@@__crt_stdio_output@@AAE_NXZ 10025e57 f i libucrt:output.obj
 0001:00024e91       ?state_case_precision@?$output_processor@DV?$stream_output_adapter@D@__crt_stdio_output@@V?$standard_base@DV?$stream_output_adapter@D@__crt_stdio_output@@@2@@__crt_stdio_output@@AAE_NXZ 10025e91 f i libucrt:output.obj
 0001:00024eb7       ?state_case_precision@?$output_processor@DV?$string_output_adapter@D@__crt_stdio_output@@V?$format_validation_base@DV?$string_output_adapter@D@__crt_stdio_output@@@2@@__crt_stdio_output@@AAE_NXZ 10025eb7 f i libucrt:output.obj
 0001:00024edd       ?state_case_precision@?$output_processor@DV?$string_output_adapter@D@__crt_stdio_output@@V?$positional_parameter_base@DV?$string_output_adapter@D@__crt_stdio_output@@@2@@__crt_stdio_output@@AAE_NXZ 10025edd f i libucrt:output.obj
 0001:00024f17       ?state_case_precision@?$output_processor@DV?$string_output_adapter@D@__crt_stdio_output@@V?$standard_base@DV?$string_output_adapter@D@__crt_stdio_output@@@2@@__crt_stdio_output@@AAE_NXZ 10025f17 f i libucrt:output.obj
 0001:00024f3d       ?state_case_precision@?$output_processor@_WV?$stream_output_adapter@_W@__crt_stdio_output@@V?$format_validation_base@_WV?$stream_output_adapter@_W@__crt_stdio_output@@@2@@__crt_stdio_output@@AAE_NXZ 10025f3d f i libucrt:output.obj
 0001:00024f64       ?state_case_precision@?$output_processor@_WV?$stream_output_adapter@_W@__crt_stdio_output@@V?$positional_parameter_base@_WV?$stream_output_adapter@_W@__crt_stdio_output@@@2@@__crt_stdio_output@@AAE_NXZ 10025f64 f i libucrt:output.obj
 0001:00024f9f       ?state_case_precision@?$output_processor@_WV?$stream_output_adapter@_W@__crt_stdio_output@@V?$standard_base@_WV?$stream_output_adapter@_W@__crt_stdio_output@@@2@@__crt_stdio_output@@AAE_NXZ 10025f9f f i libucrt:output.obj
 0001:00024fc6       ?state_case_precision@?$output_processor@_WV?$string_output_adapter@_W@__crt_stdio_output@@V?$format_validation_base@_WV?$string_output_adapter@_W@__crt_stdio_output@@@2@@__crt_stdio_output@@AAE_NXZ 10025fc6 f i libucrt:output.obj
 0001:00024fed       ?state_case_precision@?$output_processor@_WV?$string_output_adapter@_W@__crt_stdio_output@@V?$positional_parameter_base@_WV?$string_output_adapter@_W@__crt_stdio_output@@@2@@__crt_stdio_output@@AAE_NXZ 10025fed f i libucrt:output.obj
 0001:00025028       ?state_case_precision@?$output_processor@_WV?$string_output_adapter@_W@__crt_stdio_output@@V?$standard_base@_WV?$string_output_adapter@_W@__crt_stdio_output@@@2@@__crt_stdio_output@@AAE_NXZ 10026028 f i libucrt:output.obj
 0001:0002504f       ?state_case_size@?$output_processor@DV?$stream_output_adapter@D@__crt_stdio_output@@V?$format_validation_base@DV?$stream_output_adapter@D@__crt_stdio_output@@@2@@__crt_stdio_output@@AAE_NXZ 1002604f f i libucrt:output.obj
 0001:0002519d       ?state_case_size@?$output_processor@DV?$stream_output_adapter@D@__crt_stdio_output@@V?$positional_parameter_base@DV?$stream_output_adapter@D@__crt_stdio_output@@@2@@__crt_stdio_output@@AAE_NXZ 1002619d f i libucrt:output.obj
 0001:000252eb       ?state_case_size@?$output_processor@DV?$stream_output_adapter@D@__crt_stdio_output@@V?$standard_base@DV?$stream_output_adapter@D@__crt_stdio_output@@@2@@__crt_stdio_output@@AAE_NXZ 100262eb f i libucrt:output.obj
 0001:00025439       ?state_case_size@?$output_processor@DV?$string_output_adapter@D@__crt_stdio_output@@V?$format_validation_base@DV?$string_output_adapter@D@__crt_stdio_output@@@2@@__crt_stdio_output@@AAE_NXZ 10026439 f i libucrt:output.obj
 0001:00025587       ?state_case_size@?$output_processor@DV?$string_output_adapter@D@__crt_stdio_output@@V?$positional_parameter_base@DV?$string_output_adapter@D@__crt_stdio_output@@@2@@__crt_stdio_output@@AAE_NXZ 10026587 f i libucrt:output.obj
 0001:000256d5       ?state_case_size@?$output_processor@DV?$string_output_adapter@D@__crt_stdio_output@@V?$standard_base@DV?$string_output_adapter@D@__crt_stdio_output@@@2@@__crt_stdio_output@@AAE_NXZ 100266d5 f i libucrt:output.obj
 0001:00025823       ?state_case_size@?$output_processor@_WV?$stream_output_adapter@_W@__crt_stdio_output@@V?$format_validation_base@_WV?$stream_output_adapter@_W@__crt_stdio_output@@@2@@__crt_stdio_output@@AAE_NXZ 10026823 f i libucrt:output.obj
 0001:0002599b       ?state_case_size@?$output_processor@_WV?$stream_output_adapter@_W@__crt_stdio_output@@V?$positional_parameter_base@_WV?$stream_output_adapter@_W@__crt_stdio_output@@@2@@__crt_stdio_output@@AAE_NXZ 1002699b f i libucrt:output.obj
 0001:00025b13       ?state_case_size@?$output_processor@_WV?$stream_output_adapter@_W@__crt_stdio_output@@V?$standard_base@_WV?$stream_output_adapter@_W@__crt_stdio_output@@@2@@__crt_stdio_output@@AAE_NXZ 10026b13 f i libucrt:output.obj
 0001:00025c8b       ?state_case_size@?$output_processor@_WV?$string_output_adapter@_W@__crt_stdio_output@@V?$format_validation_base@_WV?$string_output_adapter@_W@__crt_stdio_output@@@2@@__crt_stdio_output@@AAE_NXZ 10026c8b f i libucrt:output.obj
 0001:00025e03       ?state_case_size@?$output_processor@_WV?$string_output_adapter@_W@__crt_stdio_output@@V?$positional_parameter_base@_WV?$string_output_adapter@_W@__crt_stdio_output@@@2@@__crt_stdio_output@@AAE_NXZ 10026e03 f i libucrt:output.obj
 0001:00025f7b       ?state_case_size@?$output_processor@_WV?$string_output_adapter@_W@__crt_stdio_output@@V?$standard_base@_WV?$string_output_adapter@_W@__crt_stdio_output@@@2@@__crt_stdio_output@@AAE_NXZ 10026f7b f i libucrt:output.obj
 0001:000260f3       ?state_case_type@?$output_processor@DV?$stream_output_adapter@D@__crt_stdio_output@@V?$format_validation_base@DV?$stream_output_adapter@D@__crt_stdio_output@@@2@@__crt_stdio_output@@AAE_NXZ 100270f3 f i libucrt:output.obj
 0001:00026325       ?state_case_type@?$output_processor@DV?$stream_output_adapter@D@__crt_stdio_output@@V?$positional_parameter_base@DV?$stream_output_adapter@D@__crt_stdio_output@@@2@@__crt_stdio_output@@AAE_NXZ 10027325 f i libucrt:output.obj
 0001:00026566       ?state_case_type@?$output_processor@DV?$stream_output_adapter@D@__crt_stdio_output@@V?$standard_base@DV?$stream_output_adapter@D@__crt_stdio_output@@@2@@__crt_stdio_output@@AAE_NXZ 10027566 f i libucrt:output.obj
 0001:00026798       ?state_case_type@?$output_processor@DV?$string_output_adapter@D@__crt_stdio_output@@V?$format_validation_base@DV?$string_output_adapter@D@__crt_stdio_output@@@2@@__crt_stdio_output@@AAE_NXZ 10027798 f i libucrt:output.obj
 0001:000269ca       ?state_case_type@?$output_processor@DV?$string_output_adapter@D@__crt_stdio_output@@V?$positional_parameter_base@DV?$string_output_adapter@D@__crt_stdio_output@@@2@@__crt_stdio_output@@AAE_NXZ 100279ca f i libucrt:output.obj
 0001:00026c0b       ?state_case_type@?$output_processor@DV?$string_output_adapter@D@__crt_stdio_output@@V?$standard_base@DV?$string_output_adapter@D@__crt_stdio_output@@@2@@__crt_stdio_output@@AAE_NXZ 10027c0b f i libucrt:output.obj
 0001:00026e3d       ?state_case_type@?$output_processor@_WV?$stream_output_adapter@_W@__crt_stdio_output@@V?$format_validation_base@_WV?$stream_output_adapter@_W@__crt_stdio_output@@@2@@__crt_stdio_output@@AAE_NXZ 10027e3d f i libucrt:output.obj
 0001:0002709a       ?state_case_type@?$output_processor@_WV?$stream_output_adapter@_W@__crt_stdio_output@@V?$positional_parameter_base@_WV?$stream_output_adapter@_W@__crt_stdio_output@@@2@@__crt_stdio_output@@AAE_NXZ 1002809a f i libucrt:output.obj
 0001:00027306       ?state_case_type@?$output_processor@_WV?$stream_output_adapter@_W@__crt_stdio_output@@V?$standard_base@_WV?$stream_output_adapter@_W@__crt_stdio_output@@@2@@__crt_stdio_output@@AAE_NXZ 10028306 f i libucrt:output.obj
 0001:00027563       ?state_case_type@?$output_processor@_WV?$string_output_adapter@_W@__crt_stdio_output@@V?$format_validation_base@_WV?$string_output_adapter@_W@__crt_stdio_output@@@2@@__crt_stdio_output@@AAE_NXZ 10028563 f i libucrt:output.obj
 0001:000277c0       ?state_case_type@?$output_processor@_WV?$string_output_adapter@_W@__crt_stdio_output@@V?$positional_parameter_base@_WV?$string_output_adapter@_W@__crt_stdio_output@@@2@@__crt_stdio_output@@AAE_NXZ 100287c0 f i libucrt:output.obj
 0001:00027a2c       ?state_case_type@?$output_processor@_WV?$string_output_adapter@_W@__crt_stdio_output@@V?$standard_base@_WV?$string_output_adapter@_W@__crt_stdio_output@@@2@@__crt_stdio_output@@AAE_NXZ 10028a2c f i libucrt:output.obj
 0001:00027c89       ?state_case_width@?$output_processor@DV?$stream_output_adapter@D@__crt_stdio_output@@V?$format_validation_base@DV?$stream_output_adapter@D@__crt_stdio_output@@@2@@__crt_stdio_output@@AAE_NXZ 10028c89 f i libucrt:output.obj
 0001:00027cb4       ?state_case_width@?$output_processor@DV?$stream_output_adapter@D@__crt_stdio_output@@V?$positional_parameter_base@DV?$stream_output_adapter@D@__crt_stdio_output@@@2@@__crt_stdio_output@@AAE_NXZ 10028cb4 f i libucrt:output.obj
 0001:00027cf4       ?state_case_width@?$output_processor@DV?$stream_output_adapter@D@__crt_stdio_output@@V?$standard_base@DV?$stream_output_adapter@D@__crt_stdio_output@@@2@@__crt_stdio_output@@AAE_NXZ 10028cf4 f i libucrt:output.obj
 0001:00027d1f       ?state_case_width@?$output_processor@DV?$string_output_adapter@D@__crt_stdio_output@@V?$format_validation_base@DV?$string_output_adapter@D@__crt_stdio_output@@@2@@__crt_stdio_output@@AAE_NXZ 10028d1f f i libucrt:output.obj
 0001:00027d4a       ?state_case_width@?$output_processor@DV?$string_output_adapter@D@__crt_stdio_output@@V?$positional_parameter_base@DV?$string_output_adapter@D@__crt_stdio_output@@@2@@__crt_stdio_output@@AAE_NXZ 10028d4a f i libucrt:output.obj
 0001:00027d8a       ?state_case_width@?$output_processor@DV?$string_output_adapter@D@__crt_stdio_output@@V?$standard_base@DV?$string_output_adapter@D@__crt_stdio_output@@@2@@__crt_stdio_output@@AAE_NXZ 10028d8a f i libucrt:output.obj
 0001:00027db5       ?state_case_width@?$output_processor@_WV?$stream_output_adapter@_W@__crt_stdio_output@@V?$format_validation_base@_WV?$stream_output_adapter@_W@__crt_stdio_output@@@2@@__crt_stdio_output@@AAE_NXZ 10028db5 f i libucrt:output.obj
 0001:00027de1       ?state_case_width@?$output_processor@_WV?$stream_output_adapter@_W@__crt_stdio_output@@V?$positional_parameter_base@_WV?$stream_output_adapter@_W@__crt_stdio_output@@@2@@__crt_stdio_output@@AAE_NXZ 10028de1 f i libucrt:output.obj
 0001:00027e22       ?state_case_width@?$output_processor@_WV?$stream_output_adapter@_W@__crt_stdio_output@@V?$standard_base@_WV?$stream_output_adapter@_W@__crt_stdio_output@@@2@@__crt_stdio_output@@AAE_NXZ 10028e22 f i libucrt:output.obj
 0001:00027e4e       ?state_case_width@?$output_processor@_WV?$string_output_adapter@_W@__crt_stdio_output@@V?$format_validation_base@_WV?$string_output_adapter@_W@__crt_stdio_output@@@2@@__crt_stdio_output@@AAE_NXZ 10028e4e f i libucrt:output.obj
 0001:00027e7a       ?state_case_width@?$output_processor@_WV?$string_output_adapter@_W@__crt_stdio_output@@V?$positional_parameter_base@_WV?$string_output_adapter@_W@__crt_stdio_output@@@2@@__crt_stdio_output@@AAE_NXZ 10028e7a f i libucrt:output.obj
 0001:00027ebb       ?state_case_width@?$output_processor@_WV?$string_output_adapter@_W@__crt_stdio_output@@V?$standard_base@_WV?$string_output_adapter@_W@__crt_stdio_output@@@2@@__crt_stdio_output@@AAE_NXZ 10028ebb f i libucrt:output.obj
 0001:00027ee7       ?state_count@?$format_validation_base@DV?$stream_output_adapter@D@__crt_stdio_output@@@__crt_stdio_output@@KAIXZ 10028ee7 f i libucrt:output.obj
 0001:00027eeb       ?state_count@?$format_validation_base@DV?$string_output_adapter@D@__crt_stdio_output@@@__crt_stdio_output@@KAIXZ 10028eeb f i libucrt:output.obj
 0001:00027eef       ?state_count@?$format_validation_base@_WV?$stream_output_adapter@_W@__crt_stdio_output@@@__crt_stdio_output@@KAIXZ 10028eef f i libucrt:output.obj
 0001:00027ef3       ?state_count@?$format_validation_base@_WV?$string_output_adapter@_W@__crt_stdio_output@@@__crt_stdio_output@@KAIXZ 10028ef3 f i libucrt:output.obj
 0001:00027ef7       ?state_count@?$standard_base@DV?$stream_output_adapter@D@__crt_stdio_output@@@__crt_stdio_output@@KAIXZ 10028ef7 f i libucrt:output.obj
 0001:00027efb       ?state_count@?$standard_base@DV?$string_output_adapter@D@__crt_stdio_output@@@__crt_stdio_output@@KAIXZ 10028efb f i libucrt:output.obj
 0001:00027eff       ?state_count@?$standard_base@_WV?$stream_output_adapter@_W@__crt_stdio_output@@@__crt_stdio_output@@KAIXZ 10028eff f i libucrt:output.obj
 0001:00027f03       ?state_count@?$standard_base@_WV?$string_output_adapter@_W@__crt_stdio_output@@@__crt_stdio_output@@KAIXZ 10028f03 f i libucrt:output.obj
 0001:00027f07       ?state_transition_table@?$format_validation_base@DV?$stream_output_adapter@D@__crt_stdio_output@@@__crt_stdio_output@@KAABV?$spectre_mitigated_lookup_table@Ustate_transition_pair@__crt_stdio_output@@$0IA@@2@XZ 10028f07 f i libucrt:output.obj
 0001:00027f0d       ?state_transition_table@?$format_validation_base@DV?$string_output_adapter@D@__crt_stdio_output@@@__crt_stdio_output@@KAABV?$spectre_mitigated_lookup_table@Ustate_transition_pair@__crt_stdio_output@@$0IA@@2@XZ 10028f0d f i libucrt:output.obj
 0001:00027f13       ?state_transition_table@?$format_validation_base@_WV?$stream_output_adapter@_W@__crt_stdio_output@@@__crt_stdio_output@@KAABV?$spectre_mitigated_lookup_table@Ustate_transition_pair@__crt_stdio_output@@$0IA@@2@XZ 10028f13 f i libucrt:output.obj
 0001:00027f19       ?state_transition_table@?$format_validation_base@_WV?$string_output_adapter@_W@__crt_stdio_output@@@__crt_stdio_output@@KAABV?$spectre_mitigated_lookup_table@Ustate_transition_pair@__crt_stdio_output@@$0IA@@2@XZ 10028f19 f i libucrt:output.obj
 0001:00027f1f       ?state_transition_table@?$standard_base@DV?$stream_output_adapter@D@__crt_stdio_output@@@__crt_stdio_output@@KAABV?$spectre_mitigated_lookup_table@Ustate_transition_pair@__crt_stdio_output@@$0IA@@2@XZ 10028f1f f i libucrt:output.obj
 0001:00027f25       ?state_transition_table@?$standard_base@DV?$string_output_adapter@D@__crt_stdio_output@@@__crt_stdio_output@@KAABV?$spectre_mitigated_lookup_table@Ustate_transition_pair@__crt_stdio_output@@$0IA@@2@XZ 10028f25 f i libucrt:output.obj
 0001:00027f2b       ?state_transition_table@?$standard_base@_WV?$stream_output_adapter@_W@__crt_stdio_output@@@__crt_stdio_output@@KAABV?$spectre_mitigated_lookup_table@Ustate_transition_pair@__crt_stdio_output@@$0IA@@2@XZ 10028f2b f i libucrt:output.obj
 0001:00027f31       ?state_transition_table@?$standard_base@_WV?$string_output_adapter@_W@__crt_stdio_output@@@__crt_stdio_output@@KAABV?$spectre_mitigated_lookup_table@Ustate_transition_pair@__crt_stdio_output@@$0IA@@2@XZ 10028f31 f i libucrt:output.obj
 0001:00027f37       ?tchar_string@?$common_data@D@__crt_stdio_output@@IAEAAPADD@Z 10028f37 f i libucrt:output.obj
 0001:00027f3d       ?tchar_string@?$common_data@D@__crt_stdio_output@@IAEAAPADXZ 10028f3d f i libucrt:output.obj
 0001:00027f41       ?tchar_string@?$common_data@_W@__crt_stdio_output@@IAEAAPA_WXZ 10028f41 f i libucrt:output.obj
 0001:00027f45       ?tchar_string@?$common_data@_W@__crt_stdio_output@@IAEAAPA_W_W@Z 10028f45 f i libucrt:output.obj
 0001:00027f50       ?to_integer_size@__crt_stdio_output@@YAIW4length_modifier@1@@Z 10028f50 f i libucrt:output.obj
 0001:00027fac       ?type_case_X@?$output_processor@DV?$stream_output_adapter@D@__crt_stdio_output@@V?$format_validation_base@DV?$stream_output_adapter@D@__crt_stdio_output@@@2@@__crt_stdio_output@@AAE_NXZ 10028fac f i libucrt:output.obj
 0001:00027fb6       ?type_case_X@?$output_processor@DV?$stream_output_adapter@D@__crt_stdio_output@@V?$positional_parameter_base@DV?$stream_output_adapter@D@__crt_stdio_output@@@2@@__crt_stdio_output@@AAE_NXZ 10028fb6 f i libucrt:output.obj
 0001:00027fc0       ?type_case_X@?$output_processor@DV?$stream_output_adapter@D@__crt_stdio_output@@V?$standard_base@DV?$stream_output_adapter@D@__crt_stdio_output@@@2@@__crt_stdio_output@@AAE_NXZ 10028fc0 f i libucrt:output.obj
 0001:00027fca       ?type_case_X@?$output_processor@DV?$string_output_adapter@D@__crt_stdio_output@@V?$format_validation_base@DV?$string_output_adapter@D@__crt_stdio_output@@@2@@__crt_stdio_output@@AAE_NXZ 10028fca f i libucrt:output.obj
 0001:00027fd4       ?type_case_X@?$output_processor@DV?$string_output_adapter@D@__crt_stdio_output@@V?$positional_parameter_base@DV?$string_output_adapter@D@__crt_stdio_output@@@2@@__crt_stdio_output@@AAE_NXZ 10028fd4 f i libucrt:output.obj
 0001:00027fde       ?type_case_X@?$output_processor@DV?$string_output_adapter@D@__crt_stdio_output@@V?$standard_base@DV?$string_output_adapter@D@__crt_stdio_output@@@2@@__crt_stdio_output@@AAE_NXZ 10028fde f i libucrt:output.obj
 0001:00027fe8       ?type_case_X@?$output_processor@_WV?$stream_output_adapter@_W@__crt_stdio_output@@V?$format_validation_base@_WV?$stream_output_adapter@_W@__crt_stdio_output@@@2@@__crt_stdio_output@@AAE_NXZ 10028fe8 f i libucrt:output.obj
 0001:00027ff2       ?type_case_X@?$output_processor@_WV?$stream_output_adapter@_W@__crt_stdio_output@@V?$positional_parameter_base@_WV?$stream_output_adapter@_W@__crt_stdio_output@@@2@@__crt_stdio_output@@AAE_NXZ 10028ff2 f i libucrt:output.obj
 0001:00027ffc       ?type_case_X@?$output_processor@_WV?$stream_output_adapter@_W@__crt_stdio_output@@V?$standard_base@_WV?$stream_output_adapter@_W@__crt_stdio_output@@@2@@__crt_stdio_output@@AAE_NXZ 10028ffc f i libucrt:output.obj
 0001:00028006       ?type_case_X@?$output_processor@_WV?$string_output_adapter@_W@__crt_stdio_output@@V?$format_validation_base@_WV?$string_output_adapter@_W@__crt_stdio_output@@@2@@__crt_stdio_output@@AAE_NXZ 10029006 f i libucrt:output.obj
 0001:00028010       ?type_case_X@?$output_processor@_WV?$string_output_adapter@_W@__crt_stdio_output@@V?$positional_parameter_base@_WV?$string_output_adapter@_W@__crt_stdio_output@@@2@@__crt_stdio_output@@AAE_NXZ 10029010 f i libucrt:output.obj
 0001:0002801a       ?type_case_X@?$output_processor@_WV?$string_output_adapter@_W@__crt_stdio_output@@V?$standard_base@_WV?$string_output_adapter@_W@__crt_stdio_output@@@2@@__crt_stdio_output@@AAE_NXZ 1002901a f i libucrt:output.obj
 0001:00028024       ?type_case_Z@?$output_processor@DV?$stream_output_adapter@D@__crt_stdio_output@@V?$format_validation_base@DV?$stream_output_adapter@D@__crt_stdio_output@@@2@@__crt_stdio_output@@AAE_NXZ 10029024 f i libucrt:output.obj
 0001:0002807e       ?type_case_Z@?$output_processor@DV?$stream_output_adapter@D@__crt_stdio_output@@V?$positional_parameter_base@DV?$stream_output_adapter@D@__crt_stdio_output@@@2@@__crt_stdio_output@@AAE_NXZ 1002907e f i libucrt:output.obj
 0001:000280f2       ?type_case_Z@?$output_processor@DV?$stream_output_adapter@D@__crt_stdio_output@@V?$standard_base@DV?$stream_output_adapter@D@__crt_stdio_output@@@2@@__crt_stdio_output@@AAE_NXZ 100290f2 f i libucrt:output.obj
 0001:0002814c       ?type_case_Z@?$output_processor@DV?$string_output_adapter@D@__crt_stdio_output@@V?$format_validation_base@DV?$string_output_adapter@D@__crt_stdio_output@@@2@@__crt_stdio_output@@AAE_NXZ 1002914c f i libucrt:output.obj
 0001:000281a6       ?type_case_Z@?$output_processor@DV?$string_output_adapter@D@__crt_stdio_output@@V?$positional_parameter_base@DV?$string_output_adapter@D@__crt_stdio_output@@@2@@__crt_stdio_output@@AAE_NXZ 100291a6 f i libucrt:output.obj
 0001:0002821a       ?type_case_Z@?$output_processor@DV?$string_output_adapter@D@__crt_stdio_output@@V?$standard_base@DV?$string_output_adapter@D@__crt_stdio_output@@@2@@__crt_stdio_output@@AAE_NXZ 1002921a f i libucrt:output.obj
 0001:00028274       ?type_case_Z@?$output_processor@_WV?$stream_output_adapter@_W@__crt_stdio_output@@V?$format_validation_base@_WV?$stream_output_adapter@_W@__crt_stdio_output@@@2@@__crt_stdio_output@@AAE_NXZ 10029274 f i libucrt:output.obj
 0001:000282ce       ?type_case_Z@?$output_processor@_WV?$stream_output_adapter@_W@__crt_stdio_output@@V?$positional_parameter_base@_WV?$stream_output_adapter@_W@__crt_stdio_output@@@2@@__crt_stdio_output@@AAE_NXZ 100292ce f i libucrt:output.obj
 0001:00028342       ?type_case_Z@?$output_processor@_WV?$stream_output_adapter@_W@__crt_stdio_output@@V?$standard_base@_WV?$stream_output_adapter@_W@__crt_stdio_output@@@2@@__crt_stdio_output@@AAE_NXZ 10029342 f i libucrt:output.obj
 0001:0002839c       ?type_case_Z@?$output_processor@_WV?$string_output_adapter@_W@__crt_stdio_output@@V?$format_validation_base@_WV?$string_output_adapter@_W@__crt_stdio_output@@@2@@__crt_stdio_output@@AAE_NXZ 1002939c f i libucrt:output.obj
 0001:000283f6       ?type_case_Z@?$output_processor@_WV?$string_output_adapter@_W@__crt_stdio_output@@V?$positional_parameter_base@_WV?$string_output_adapter@_W@__crt_stdio_output@@@2@@__crt_stdio_output@@AAE_NXZ 100293f6 f i libucrt:output.obj
 0001:0002846a       ?type_case_Z@?$output_processor@_WV?$string_output_adapter@_W@__crt_stdio_output@@V?$standard_base@_WV?$string_output_adapter@_W@__crt_stdio_output@@@2@@__crt_stdio_output@@AAE_NXZ 1002946a f i libucrt:output.obj
 0001:000284c4       ?type_case_a@?$output_processor@DV?$stream_output_adapter@D@__crt_stdio_output@@V?$format_validation_base@DV?$stream_output_adapter@D@__crt_stdio_output@@@2@@__crt_stdio_output@@AAE_NXZ 100294c4 f i libucrt:output.obj
 0001:00028615       ?type_case_a@?$output_processor@DV?$stream_output_adapter@D@__crt_stdio_output@@V?$positional_parameter_base@DV?$stream_output_adapter@D@__crt_stdio_output@@@2@@__crt_stdio_output@@AAE_NXZ 10029615 f i libucrt:output.obj
 0001:00028792       ?type_case_a@?$output_processor@DV?$stream_output_adapter@D@__crt_stdio_output@@V?$standard_base@DV?$stream_output_adapter@D@__crt_stdio_output@@@2@@__crt_stdio_output@@AAE_NXZ 10029792 f i libucrt:output.obj
 0001:000288e3       ?type_case_a@?$output_processor@DV?$string_output_adapter@D@__crt_stdio_output@@V?$format_validation_base@DV?$string_output_adapter@D@__crt_stdio_output@@@2@@__crt_stdio_output@@AAE_NXZ 100298e3 f i libucrt:output.obj
 0001:00028a34       ?type_case_a@?$output_processor@DV?$string_output_adapter@D@__crt_stdio_output@@V?$positional_parameter_base@DV?$string_output_adapter@D@__crt_stdio_output@@@2@@__crt_stdio_output@@AAE_NXZ 10029a34 f i libucrt:output.obj
 0001:00028bb1       ?type_case_a@?$output_processor@DV?$string_output_adapter@D@__crt_stdio_output@@V?$standard_base@DV?$string_output_adapter@D@__crt_stdio_output@@@2@@__crt_stdio_output@@AAE_NXZ 10029bb1 f i libucrt:output.obj
 0001:00028d02       ?type_case_a@?$output_processor@_WV?$stream_output_adapter@_W@__crt_stdio_output@@V?$format_validation_base@_WV?$stream_output_adapter@_W@__crt_stdio_output@@@2@@__crt_stdio_output@@AAE_NXZ 10029d02 f i libucrt:output.obj
 0001:00028e69       ?type_case_a@?$output_processor@_WV?$stream_output_adapter@_W@__crt_stdio_output@@V?$positional_parameter_base@_WV?$stream_output_adapter@_W@__crt_stdio_output@@@2@@__crt_stdio_output@@AAE_NXZ 10029e69 f i libucrt:output.obj
 0001:00028ffc       ?type_case_a@?$output_processor@_WV?$stream_output_adapter@_W@__crt_stdio_output@@V?$standard_base@_WV?$stream_output_adapter@_W@__crt_stdio_output@@@2@@__crt_stdio_output@@AAE_NXZ 10029ffc f i libucrt:output.obj
 0001:00029163       ?type_case_a@?$output_processor@_WV?$string_output_adapter@_W@__crt_stdio_output@@V?$format_validation_base@_WV?$string_output_adapter@_W@__crt_stdio_output@@@2@@__crt_stdio_output@@AAE_NXZ 1002a163 f i libucrt:output.obj
 0001:000292ca       ?type_case_a@?$output_processor@_WV?$string_output_adapter@_W@__crt_stdio_output@@V?$positional_parameter_base@_WV?$string_output_adapter@_W@__crt_stdio_output@@@2@@__crt_stdio_output@@AAE_NXZ 1002a2ca f i libucrt:output.obj
 0001:0002945d       ?type_case_a@?$output_processor@_WV?$string_output_adapter@_W@__crt_stdio_output@@V?$standard_base@_WV?$string_output_adapter@_W@__crt_stdio_output@@@2@@__crt_stdio_output@@AAE_NXZ 1002a45d f i libucrt:output.obj
 0001:000295c4       ?type_case_c@?$output_processor@DV?$stream_output_adapter@D@__crt_stdio_output@@V?$format_validation_base@DV?$stream_output_adapter@D@__crt_stdio_output@@@2@@__crt_stdio_output@@AAE_NXZ 1002a5c4 f i libucrt:output.obj
 0001:000295cc       ?type_case_c@?$output_processor@DV?$stream_output_adapter@D@__crt_stdio_output@@V?$positional_parameter_base@DV?$stream_output_adapter@D@__crt_stdio_output@@@2@@__crt_stdio_output@@AAE_NXZ 1002a5cc f i libucrt:output.obj
 0001:000295d4       ?type_case_c@?$output_processor@DV?$stream_output_adapter@D@__crt_stdio_output@@V?$standard_base@DV?$stream_output_adapter@D@__crt_stdio_output@@@2@@__crt_stdio_output@@AAE_NXZ 1002a5d4 f i libucrt:output.obj
 0001:000295dc       ?type_case_c@?$output_processor@DV?$string_output_adapter@D@__crt_stdio_output@@V?$format_validation_base@DV?$string_output_adapter@D@__crt_stdio_output@@@2@@__crt_stdio_output@@AAE_NXZ 1002a5dc f i libucrt:output.obj
 0001:000295e4       ?type_case_c@?$output_processor@DV?$string_output_adapter@D@__crt_stdio_output@@V?$positional_parameter_base@DV?$string_output_adapter@D@__crt_stdio_output@@@2@@__crt_stdio_output@@AAE_NXZ 1002a5e4 f i libucrt:output.obj
 0001:000295ec       ?type_case_c@?$output_processor@DV?$string_output_adapter@D@__crt_stdio_output@@V?$standard_base@DV?$string_output_adapter@D@__crt_stdio_output@@@2@@__crt_stdio_output@@AAE_NXZ 1002a5ec f i libucrt:output.obj
 0001:000295f4       ?type_case_c@?$output_processor@_WV?$stream_output_adapter@_W@__crt_stdio_output@@V?$format_validation_base@_WV?$stream_output_adapter@_W@__crt_stdio_output@@@2@@__crt_stdio_output@@AAE_NXZ 1002a5f4 f i libucrt:output.obj
 0001:000295fc       ?type_case_c@?$output_processor@_WV?$stream_output_adapter@_W@__crt_stdio_output@@V?$positional_parameter_base@_WV?$stream_output_adapter@_W@__crt_stdio_output@@@2@@__crt_stdio_output@@AAE_NXZ 1002a5fc f i libucrt:output.obj
 0001:00029604       ?type_case_c@?$output_processor@_WV?$stream_output_adapter@_W@__crt_stdio_output@@V?$standard_base@_WV?$stream_output_adapter@_W@__crt_stdio_output@@@2@@__crt_stdio_output@@AAE_NXZ 1002a604 f i libucrt:output.obj
 0001:0002960c       ?type_case_c@?$output_processor@_WV?$string_output_adapter@_W@__crt_stdio_output@@V?$format_validation_base@_WV?$string_output_adapter@_W@__crt_stdio_output@@@2@@__crt_stdio_output@@AAE_NXZ 1002a60c f i libucrt:output.obj
 0001:00029614       ?type_case_c@?$output_processor@_WV?$string_output_adapter@_W@__crt_stdio_output@@V?$positional_parameter_base@_WV?$string_output_adapter@_W@__crt_stdio_output@@@2@@__crt_stdio_output@@AAE_NXZ 1002a614 f i libucrt:output.obj
 0001:0002961c       ?type_case_c@?$output_processor@_WV?$string_output_adapter@_W@__crt_stdio_output@@V?$standard_base@_WV?$string_output_adapter@_W@__crt_stdio_output@@@2@@__crt_stdio_output@@AAE_NXZ 1002a61c f i libucrt:output.obj
 0001:00029624       ?type_case_c_tchar@?$output_processor@DV?$stream_output_adapter@D@__crt_stdio_output@@V?$format_validation_base@DV?$stream_output_adapter@D@__crt_stdio_output@@@2@@__crt_stdio_output@@AAE_ND@Z 1002a624 f i libucrt:output.obj
 0001:000296b7       ?type_case_c_tchar@?$output_processor@DV?$stream_output_adapter@D@__crt_stdio_output@@V?$positional_parameter_base@DV?$stream_output_adapter@D@__crt_stdio_output@@@2@@__crt_stdio_output@@AAE_ND@Z 1002a6b7 f i libucrt:output.obj
 0001:00029778       ?type_case_c_tchar@?$output_processor@DV?$stream_output_adapter@D@__crt_stdio_output@@V?$standard_base@DV?$stream_output_adapter@D@__crt_stdio_output@@@2@@__crt_stdio_output@@AAE_ND@Z 1002a778 f i libucrt:output.obj
 0001:0002980b       ?type_case_c_tchar@?$output_processor@DV?$string_output_adapter@D@__crt_stdio_output@@V?$format_validation_base@DV?$string_output_adapter@D@__crt_stdio_output@@@2@@__crt_stdio_output@@AAE_ND@Z 1002a80b f i libucrt:output.obj
 0001:0002989e       ?type_case_c_tchar@?$output_processor@DV?$string_output_adapter@D@__crt_stdio_output@@V?$positional_parameter_base@DV?$string_output_adapter@D@__crt_stdio_output@@@2@@__crt_stdio_output@@AAE_ND@Z 1002a89e f i libucrt:output.obj
 0001:0002995f       ?type_case_c_tchar@?$output_processor@DV?$string_output_adapter@D@__crt_stdio_output@@V?$standard_base@DV?$string_output_adapter@D@__crt_stdio_output@@@2@@__crt_stdio_output@@AAE_ND@Z 1002a95f f i libucrt:output.obj
 0001:000299f2       ?type_case_c_tchar@?$output_processor@_WV?$stream_output_adapter@_W@__crt_stdio_output@@V?$format_validation_base@_WV?$stream_output_adapter@_W@__crt_stdio_output@@@2@@__crt_stdio_output@@AAE_N_W@Z 1002a9f2 f i libucrt:output.obj
 0001:00029a88       ?type_case_c_tchar@?$output_processor@_WV?$stream_output_adapter@_W@__crt_stdio_output@@V?$positional_parameter_base@_WV?$stream_output_adapter@_W@__crt_stdio_output@@@2@@__crt_stdio_output@@AAE_N_W@Z 1002aa88 f i libucrt:output.obj
 0001:00029b35       ?type_case_c_tchar@?$output_processor@_WV?$stream_output_adapter@_W@__crt_stdio_output@@V?$standard_base@_WV?$stream_output_adapter@_W@__crt_stdio_output@@@2@@__crt_stdio_output@@AAE_N_W@Z 1002ab35 f i libucrt:output.obj
 0001:00029bcb       ?type_case_c_tchar@?$output_processor@_WV?$string_output_adapter@_W@__crt_stdio_output@@V?$format_validation_base@_WV?$string_output_adapter@_W@__crt_stdio_output@@@2@@__crt_stdio_output@@AAE_N_W@Z 1002abcb f i libucrt:output.obj
 0001:00029c61       ?type_case_c_tchar@?$output_processor@_WV?$string_output_adapter@_W@__crt_stdio_output@@V?$positional_parameter_base@_WV?$string_output_adapter@_W@__crt_stdio_output@@@2@@__crt_stdio_output@@AAE_N_W@Z 1002ac61 f i libucrt:output.obj
 0001:00029d0e       ?type_case_c_tchar@?$output_processor@_WV?$string_output_adapter@_W@__crt_stdio_output@@V?$standard_base@_WV?$string_output_adapter@_W@__crt_stdio_output@@@2@@__crt_stdio_output@@AAE_N_W@Z 1002ad0e f i libucrt:output.obj
 0001:00029da4       ?type_case_d@?$output_processor@DV?$stream_output_adapter@D@__crt_stdio_output@@V?$format_validation_base@DV?$stream_output_adapter@D@__crt_stdio_output@@@2@@__crt_stdio_output@@AAE_NXZ 1002ada4 f i libucrt:output.obj
 0001:00029db2       ?type_case_d@?$output_processor@DV?$stream_output_adapter@D@__crt_stdio_output@@V?$positional_parameter_base@DV?$stream_output_adapter@D@__crt_stdio_output@@@2@@__crt_stdio_output@@AAE_NXZ 1002adb2 f i libucrt:output.obj
 0001:00029dc0       ?type_case_d@?$output_processor@DV?$stream_output_adapter@D@__crt_stdio_output@@V?$standard_base@DV?$stream_output_adapter@D@__crt_stdio_output@@@2@@__crt_stdio_output@@AAE_NXZ 1002adc0 f i libucrt:output.obj
 0001:00029dce       ?type_case_d@?$output_processor@DV?$string_output_adapter@D@__crt_stdio_output@@V?$format_validation_base@DV?$string_output_adapter@D@__crt_stdio_output@@@2@@__crt_stdio_output@@AAE_NXZ 1002adce f i libucrt:output.obj
 0001:00029ddc       ?type_case_d@?$output_processor@DV?$string_output_adapter@D@__crt_stdio_output@@V?$positional_parameter_base@DV?$string_output_adapter@D@__crt_stdio_output@@@2@@__crt_stdio_output@@AAE_NXZ 1002addc f i libucrt:output.obj
 0001:00029dea       ?type_case_d@?$output_processor@DV?$string_output_adapter@D@__crt_stdio_output@@V?$standard_base@DV?$string_output_adapter@D@__crt_stdio_output@@@2@@__crt_stdio_output@@AAE_NXZ 1002adea f i libucrt:output.obj
 0001:00029df8       ?type_case_d@?$output_processor@_WV?$stream_output_adapter@_W@__crt_stdio_output@@V?$format_validation_base@_WV?$stream_output_adapter@_W@__crt_stdio_output@@@2@@__crt_stdio_output@@AAE_NXZ 1002adf8 f i libucrt:output.obj
 0001:00029e06       ?type_case_d@?$output_processor@_WV?$stream_output_adapter@_W@__crt_stdio_output@@V?$positional_parameter_base@_WV?$stream_output_adapter@_W@__crt_stdio_output@@@2@@__crt_stdio_output@@AAE_NXZ 1002ae06 f i libucrt:output.obj
 0001:00029e14       ?type_case_d@?$output_processor@_WV?$stream_output_adapter@_W@__crt_stdio_output@@V?$standard_base@_WV?$stream_output_adapter@_W@__crt_stdio_output@@@2@@__crt_stdio_output@@AAE_NXZ 1002ae14 f i libucrt:output.obj
 0001:00029e22       ?type_case_d@?$output_processor@_WV?$string_output_adapter@_W@__crt_stdio_output@@V?$format_validation_base@_WV?$string_output_adapter@_W@__crt_stdio_output@@@2@@__crt_stdio_output@@AAE_NXZ 1002ae22 f i libucrt:output.obj
 0001:00029e30       ?type_case_d@?$output_processor@_WV?$string_output_adapter@_W@__crt_stdio_output@@V?$positional_parameter_base@_WV?$string_output_adapter@_W@__crt_stdio_output@@@2@@__crt_stdio_output@@AAE_NXZ 1002ae30 f i libucrt:output.obj
 0001:00029e3e       ?type_case_d@?$output_processor@_WV?$string_output_adapter@_W@__crt_stdio_output@@V?$standard_base@_WV?$string_output_adapter@_W@__crt_stdio_output@@@2@@__crt_stdio_output@@AAE_NXZ 1002ae3e f i libucrt:output.obj
 0001:00029e4c       ?type_case_integer@?$output_processor@DV?$stream_output_adapter@D@__crt_stdio_output@@V?$format_validation_base@DV?$stream_output_adapter@D@__crt_stdio_output@@@2@@__crt_stdio_output@@AAE_NI_N@Z 1002ae4c f i libucrt:output.obj
 0001:00029f9d       ?type_case_integer@?$output_processor@DV?$stream_output_adapter@D@__crt_stdio_output@@V?$positional_parameter_base@DV?$stream_output_adapter@D@__crt_stdio_output@@@2@@__crt_stdio_output@@AAE_NI_N@Z 1002af9d f i libucrt:output.obj
 0001:0002a11e       ?type_case_integer@?$output_processor@DV?$stream_output_adapter@D@__crt_stdio_output@@V?$standard_base@DV?$stream_output_adapter@D@__crt_stdio_output@@@2@@__crt_stdio_output@@AAE_NI_N@Z 1002b11e f i libucrt:output.obj
 0001:0002a26f       ?type_case_integer@?$output_processor@DV?$string_output_adapter@D@__crt_stdio_output@@V?$format_validation_base@DV?$string_output_adapter@D@__crt_stdio_output@@@2@@__crt_stdio_output@@AAE_NI_N@Z 1002b26f f i libucrt:output.obj
 0001:0002a3c0       ?type_case_integer@?$output_processor@DV?$string_output_adapter@D@__crt_stdio_output@@V?$positional_parameter_base@DV?$string_output_adapter@D@__crt_stdio_output@@@2@@__crt_stdio_output@@AAE_NI_N@Z 1002b3c0 f i libucrt:output.obj
 0001:0002a541       ?type_case_integer@?$output_processor@DV?$string_output_adapter@D@__crt_stdio_output@@V?$standard_base@DV?$string_output_adapter@D@__crt_stdio_output@@@2@@__crt_stdio_output@@AAE_NI_N@Z 1002b541 f i libucrt:output.obj
 0001:0002a692       ?type_case_integer@?$output_processor@_WV?$stream_output_adapter@_W@__crt_stdio_output@@V?$format_validation_base@_WV?$stream_output_adapter@_W@__crt_stdio_output@@@2@@__crt_stdio_output@@AAE_NI_N@Z 1002b692 f i libucrt:output.obj
 0001:0002a7e7       ?type_case_integer@?$output_processor@_WV?$stream_output_adapter@_W@__crt_stdio_output@@V?$positional_parameter_base@_WV?$stream_output_adapter@_W@__crt_stdio_output@@@2@@__crt_stdio_output@@AAE_NI_N@Z 1002b7e7 f i libucrt:output.obj
 0001:0002a96c       ?type_case_integer@?$output_processor@_WV?$stream_output_adapter@_W@__crt_stdio_output@@V?$standard_base@_WV?$stream_output_adapter@_W@__crt_stdio_output@@@2@@__crt_stdio_output@@AAE_NI_N@Z 1002b96c f i libucrt:output.obj
 0001:0002aac1       ?type_case_integer@?$output_processor@_WV?$string_output_adapter@_W@__crt_stdio_output@@V?$format_validation_base@_WV?$string_output_adapter@_W@__crt_stdio_output@@@2@@__crt_stdio_output@@AAE_NI_N@Z 1002bac1 f i libucrt:output.obj
 0001:0002ac16       ?type_case_integer@?$output_processor@_WV?$string_output_adapter@_W@__crt_stdio_output@@V?$positional_parameter_base@_WV?$string_output_adapter@_W@__crt_stdio_output@@@2@@__crt_stdio_output@@AAE_NI_N@Z 1002bc16 f i libucrt:output.obj
 0001:0002ad9b       ?type_case_integer@?$output_processor@_WV?$string_output_adapter@_W@__crt_stdio_output@@V?$standard_base@_WV?$string_output_adapter@_W@__crt_stdio_output@@@2@@__crt_stdio_output@@AAE_NI_N@Z 1002bd9b f i libucrt:output.obj
 0001:0002aef0       ?type_case_n@?$output_processor@DV?$stream_output_adapter@D@__crt_stdio_output@@V?$format_validation_base@DV?$stream_output_adapter@D@__crt_stdio_output@@@2@@__crt_stdio_output@@AAE_NXZ 1002bef0 f i libucrt:output.obj
 0001:0002af64       ?type_case_n@?$output_processor@DV?$stream_output_adapter@D@__crt_stdio_output@@V?$positional_parameter_base@DV?$stream_output_adapter@D@__crt_stdio_output@@@2@@__crt_stdio_output@@AAE_NXZ 1002bf64 f i libucrt:output.obj
 0001:0002affb       ?type_case_n@?$output_processor@DV?$stream_output_adapter@D@__crt_stdio_output@@V?$standard_base@DV?$stream_output_adapter@D@__crt_stdio_output@@@2@@__crt_stdio_output@@AAE_NXZ 1002bffb f i libucrt:output.obj
 0001:0002b06f       ?type_case_n@?$output_processor@DV?$string_output_adapter@D@__crt_stdio_output@@V?$format_validation_base@DV?$string_output_adapter@D@__crt_stdio_output@@@2@@__crt_stdio_output@@AAE_NXZ 1002c06f f i libucrt:output.obj
 0001:0002b0e3       ?type_case_n@?$output_processor@DV?$string_output_adapter@D@__crt_stdio_output@@V?$positional_parameter_base@DV?$string_output_adapter@D@__crt_stdio_output@@@2@@__crt_stdio_output@@AAE_NXZ 1002c0e3 f i libucrt:output.obj
 0001:0002b17a       ?type_case_n@?$output_processor@DV?$string_output_adapter@D@__crt_stdio_output@@V?$standard_base@DV?$string_output_adapter@D@__crt_stdio_output@@@2@@__crt_stdio_output@@AAE_NXZ 1002c17a f i libucrt:output.obj
 0001:0002b1ee       ?type_case_n@?$output_processor@_WV?$stream_output_adapter@_W@__crt_stdio_output@@V?$format_validation_base@_WV?$stream_output_adapter@_W@__crt_stdio_output@@@2@@__crt_stdio_output@@AAE_NXZ 1002c1ee f i libucrt:output.obj
 0001:0002b262       ?type_case_n@?$output_processor@_WV?$stream_output_adapter@_W@__crt_stdio_output@@V?$positional_parameter_base@_WV?$stream_output_adapter@_W@__crt_stdio_output@@@2@@__crt_stdio_output@@AAE_NXZ 1002c262 f i libucrt:output.obj
 0001:0002b2f9       ?type_case_n@?$output_processor@_WV?$stream_output_adapter@_W@__crt_stdio_output@@V?$standard_base@_WV?$stream_output_adapter@_W@__crt_stdio_output@@@2@@__crt_stdio_output@@AAE_NXZ 1002c2f9 f i libucrt:output.obj
 0001:0002b36d       ?type_case_n@?$output_processor@_WV?$string_output_adapter@_W@__crt_stdio_output@@V?$format_validation_base@_WV?$string_output_adapter@_W@__crt_stdio_output@@@2@@__crt_stdio_output@@AAE_NXZ 1002c36d f i libucrt:output.obj
 0001:0002b3e1       ?type_case_n@?$output_processor@_WV?$string_output_adapter@_W@__crt_stdio_output@@V?$positional_parameter_base@_WV?$string_output_adapter@_W@__crt_stdio_output@@@2@@__crt_stdio_output@@AAE_NXZ 1002c3e1 f i libucrt:output.obj
 0001:0002b478       ?type_case_n@?$output_processor@_WV?$string_output_adapter@_W@__crt_stdio_output@@V?$standard_base@_WV?$string_output_adapter@_W@__crt_stdio_output@@@2@@__crt_stdio_output@@AAE_NXZ 1002c478 f i libucrt:output.obj
 0001:0002b4ec       ?type_case_o@?$output_processor@DV?$stream_output_adapter@D@__crt_stdio_output@@V?$format_validation_base@DV?$stream_output_adapter@D@__crt_stdio_output@@@2@@__crt_stdio_output@@AAE_NXZ 1002c4ec f i libucrt:output.obj
 0001:0002b50b       ?type_case_o@?$output_processor@DV?$stream_output_adapter@D@__crt_stdio_output@@V?$positional_parameter_base@DV?$stream_output_adapter@D@__crt_stdio_output@@@2@@__crt_stdio_output@@AAE_NXZ 1002c50b f i libucrt:output.obj
 0001:0002b52a       ?type_case_o@?$output_processor@DV?$stream_output_adapter@D@__crt_stdio_output@@V?$standard_base@DV?$stream_output_adapter@D@__crt_stdio_output@@@2@@__crt_stdio_output@@AAE_NXZ 1002c52a f i libucrt:output.obj
 0001:0002b549       ?type_case_o@?$output_processor@DV?$string_output_adapter@D@__crt_stdio_output@@V?$format_validation_base@DV?$string_output_adapter@D@__crt_stdio_output@@@2@@__crt_stdio_output@@AAE_NXZ 1002c549 f i libucrt:output.obj
 0001:0002b568       ?type_case_o@?$output_processor@DV?$string_output_adapter@D@__crt_stdio_output@@V?$positional_parameter_base@DV?$string_output_adapter@D@__crt_stdio_output@@@2@@__crt_stdio_output@@AAE_NXZ 1002c568 f i libucrt:output.obj
 0001:0002b587       ?type_case_o@?$output_processor@DV?$string_output_adapter@D@__crt_stdio_output@@V?$standard_base@DV?$string_output_adapter@D@__crt_stdio_output@@@2@@__crt_stdio_output@@AAE_NXZ 1002c587 f i libucrt:output.obj
 0001:0002b5a6       ?type_case_o@?$output_processor@_WV?$stream_output_adapter@_W@__crt_stdio_output@@V?$format_validation_base@_WV?$stream_output_adapter@_W@__crt_stdio_output@@@2@@__crt_stdio_output@@AAE_NXZ 1002c5a6 f i libucrt:output.obj
 0001:0002b5c5       ?type_case_o@?$output_processor@_WV?$stream_output_adapter@_W@__crt_stdio_output@@V?$positional_parameter_base@_WV?$stream_output_adapter@_W@__crt_stdio_output@@@2@@__crt_stdio_output@@AAE_NXZ 1002c5c5 f i libucrt:output.obj
 0001:0002b5e4       ?type_case_o@?$output_processor@_WV?$stream_output_adapter@_W@__crt_stdio_output@@V?$standard_base@_WV?$stream_output_adapter@_W@__crt_stdio_output@@@2@@__crt_stdio_output@@AAE_NXZ 1002c5e4 f i libucrt:output.obj
 0001:0002b603       ?type_case_o@?$output_processor@_WV?$string_output_adapter@_W@__crt_stdio_output@@V?$format_validation_base@_WV?$string_output_adapter@_W@__crt_stdio_output@@@2@@__crt_stdio_output@@AAE_NXZ 1002c603 f i libucrt:output.obj
 0001:0002b622       ?type_case_o@?$output_processor@_WV?$string_output_adapter@_W@__crt_stdio_output@@V?$positional_parameter_base@_WV?$string_output_adapter@_W@__crt_stdio_output@@@2@@__crt_stdio_output@@AAE_NXZ 1002c622 f i libucrt:output.obj
 0001:0002b641       ?type_case_o@?$output_processor@_WV?$string_output_adapter@_W@__crt_stdio_output@@V?$standard_base@_WV?$string_output_adapter@_W@__crt_stdio_output@@@2@@__crt_stdio_output@@AAE_NXZ 1002c641 f i libucrt:output.obj
 0001:0002b660       ?type_case_p@?$output_processor@DV?$stream_output_adapter@D@__crt_stdio_output@@V?$format_validation_base@DV?$stream_output_adapter@D@__crt_stdio_output@@@2@@__crt_stdio_output@@AAE_NXZ 1002c660 f i libucrt:output.obj
 0001:0002b678       ?type_case_p@?$output_processor@DV?$stream_output_adapter@D@__crt_stdio_output@@V?$positional_parameter_base@DV?$stream_output_adapter@D@__crt_stdio_output@@@2@@__crt_stdio_output@@AAE_NXZ 1002c678 f i libucrt:output.obj
 0001:0002b690       ?type_case_p@?$output_processor@DV?$stream_output_adapter@D@__crt_stdio_output@@V?$standard_base@DV?$stream_output_adapter@D@__crt_stdio_output@@@2@@__crt_stdio_output@@AAE_NXZ 1002c690 f i libucrt:output.obj
 0001:0002b6a8       ?type_case_p@?$output_processor@DV?$string_output_adapter@D@__crt_stdio_output@@V?$format_validation_base@DV?$string_output_adapter@D@__crt_stdio_output@@@2@@__crt_stdio_output@@AAE_NXZ 1002c6a8 f i libucrt:output.obj
 0001:0002b6c0       ?type_case_p@?$output_processor@DV?$string_output_adapter@D@__crt_stdio_output@@V?$positional_parameter_base@DV?$string_output_adapter@D@__crt_stdio_output@@@2@@__crt_stdio_output@@AAE_NXZ 1002c6c0 f i libucrt:output.obj
 0001:0002b6d8       ?type_case_p@?$output_processor@DV?$string_output_adapter@D@__crt_stdio_output@@V?$standard_base@DV?$string_output_adapter@D@__crt_stdio_output@@@2@@__crt_stdio_output@@AAE_NXZ 1002c6d8 f i libucrt:output.obj
 0001:0002b6f0       ?type_case_p@?$output_processor@_WV?$stream_output_adapter@_W@__crt_stdio_output@@V?$format_validation_base@_WV?$stream_output_adapter@_W@__crt_stdio_output@@@2@@__crt_stdio_output@@AAE_NXZ 1002c6f0 f i libucrt:output.obj
 0001:0002b708       ?type_case_p@?$output_processor@_WV?$stream_output_adapter@_W@__crt_stdio_output@@V?$positional_parameter_base@_WV?$stream_output_adapter@_W@__crt_stdio_output@@@2@@__crt_stdio_output@@AAE_NXZ 1002c708 f i libucrt:output.obj
 0001:0002b720       ?type_case_p@?$output_processor@_WV?$stream_output_adapter@_W@__crt_stdio_output@@V?$standard_base@_WV?$stream_output_adapter@_W@__crt_stdio_output@@@2@@__crt_stdio_output@@AAE_NXZ 1002c720 f i libucrt:output.obj
 0001:0002b738       ?type_case_p@?$output_processor@_WV?$string_output_adapter@_W@__crt_stdio_output@@V?$format_validation_base@_WV?$string_output_adapter@_W@__crt_stdio_output@@@2@@__crt_stdio_output@@AAE_NXZ 1002c738 f i libucrt:output.obj
 0001:0002b750       ?type_case_p@?$output_processor@_WV?$string_output_adapter@_W@__crt_stdio_output@@V?$positional_parameter_base@_WV?$string_output_adapter@_W@__crt_stdio_output@@@2@@__crt_stdio_output@@AAE_NXZ 1002c750 f i libucrt:output.obj
 0001:0002b768       ?type_case_p@?$output_processor@_WV?$string_output_adapter@_W@__crt_stdio_output@@V?$standard_base@_WV?$string_output_adapter@_W@__crt_stdio_output@@@2@@__crt_stdio_output@@AAE_NXZ 1002c768 f i libucrt:output.obj
 0001:0002b780       ?type_case_s@?$output_processor@DV?$stream_output_adapter@D@__crt_stdio_output@@V?$format_validation_base@DV?$stream_output_adapter@D@__crt_stdio_output@@@2@@__crt_stdio_output@@AAE_NXZ 1002c780 f i libucrt:output.obj
 0001:0002b7f1       ?type_case_s@?$output_processor@DV?$stream_output_adapter@D@__crt_stdio_output@@V?$positional_parameter_base@DV?$stream_output_adapter@D@__crt_stdio_output@@@2@@__crt_stdio_output@@AAE_NXZ 1002c7f1 f i libucrt:output.obj
 0001:0002b86f       ?type_case_s@?$output_processor@DV?$stream_output_adapter@D@__crt_stdio_output@@V?$standard_base@DV?$stream_output_adapter@D@__crt_stdio_output@@@2@@__crt_stdio_output@@AAE_NXZ 1002c86f f i libucrt:output.obj
 0001:0002b8e0       ?type_case_s@?$output_processor@DV?$string_output_adapter@D@__crt_stdio_output@@V?$format_validation_base@DV?$string_output_adapter@D@__crt_stdio_output@@@2@@__crt_stdio_output@@AAE_NXZ 1002c8e0 f i libucrt:output.obj
 0001:0002b951       ?type_case_s@?$output_processor@DV?$string_output_adapter@D@__crt_stdio_output@@V?$positional_parameter_base@DV?$string_output_adapter@D@__crt_stdio_output@@@2@@__crt_stdio_output@@AAE_NXZ 1002c951 f i libucrt:output.obj
 0001:0002b9cf       ?type_case_s@?$output_processor@DV?$string_output_adapter@D@__crt_stdio_output@@V?$standard_base@DV?$string_output_adapter@D@__crt_stdio_output@@@2@@__crt_stdio_output@@AAE_NXZ 1002c9cf f i libucrt:output.obj
 0001:0002ba40       ?type_case_s@?$output_processor@_WV?$stream_output_adapter@_W@__crt_stdio_output@@V?$format_validation_base@_WV?$stream_output_adapter@_W@__crt_stdio_output@@@2@@__crt_stdio_output@@AAE_NXZ 1002ca40 f i libucrt:output.obj
 0001:0002bab3       ?type_case_s@?$output_processor@_WV?$stream_output_adapter@_W@__crt_stdio_output@@V?$positional_parameter_base@_WV?$stream_output_adapter@_W@__crt_stdio_output@@@2@@__crt_stdio_output@@AAE_NXZ 1002cab3 f i libucrt:output.obj
 0001:0002bb33       ?type_case_s@?$output_processor@_WV?$stream_output_adapter@_W@__crt_stdio_output@@V?$standard_base@_WV?$stream_output_adapter@_W@__crt_stdio_output@@@2@@__crt_stdio_output@@AAE_NXZ 1002cb33 f i libucrt:output.obj
 0001:0002bba6       ?type_case_s@?$output_processor@_WV?$string_output_adapter@_W@__crt_stdio_output@@V?$format_validation_base@_WV?$string_output_adapter@_W@__crt_stdio_output@@@2@@__crt_stdio_output@@AAE_NXZ 1002cba6 f i libucrt:output.obj
 0001:0002bc19       ?type_case_s@?$output_processor@_WV?$string_output_adapter@_W@__crt_stdio_output@@V?$positional_parameter_base@_WV?$string_output_adapter@_W@__crt_stdio_output@@@2@@__crt_stdio_output@@AAE_NXZ 1002cc19 f i libucrt:output.obj
 0001:0002bc99       ?type_case_s@?$output_processor@_WV?$string_output_adapter@_W@__crt_stdio_output@@V?$standard_base@_WV?$string_output_adapter@_W@__crt_stdio_output@@@2@@__crt_stdio_output@@AAE_NXZ 1002cc99 f i libucrt:output.obj
 0001:0002bd0c       ?type_case_s_compute_narrow_string_length@?$output_processor@DV?$stream_output_adapter@D@__crt_stdio_output@@V?$format_validation_base@DV?$stream_output_adapter@D@__crt_stdio_output@@@2@@__crt_stdio_output@@ABEHHD@Z 1002cd0c f i libucrt:output.obj
 0001:0002bd22       ?type_case_s_compute_narrow_string_length@?$output_processor@DV?$stream_output_adapter@D@__crt_stdio_output@@V?$positional_parameter_base@DV?$stream_output_adapter@D@__crt_stdio_output@@@2@@__crt_stdio_output@@ABEHHD@Z 1002cd22 f i libucrt:output.obj
 0001:0002bd38       ?type_case_s_compute_narrow_string_length@?$output_processor@DV?$stream_output_adapter@D@__crt_stdio_output@@V?$standard_base@DV?$stream_output_adapter@D@__crt_stdio_output@@@2@@__crt_stdio_output@@ABEHHD@Z 1002cd38 f i libucrt:output.obj
 0001:0002bd4e       ?type_case_s_compute_narrow_string_length@?$output_processor@DV?$string_output_adapter@D@__crt_stdio_output@@V?$format_validation_base@DV?$string_output_adapter@D@__crt_stdio_output@@@2@@__crt_stdio_output@@ABEHHD@Z 1002cd4e f i libucrt:output.obj
 0001:0002bd64       ?type_case_s_compute_narrow_string_length@?$output_processor@DV?$string_output_adapter@D@__crt_stdio_output@@V?$positional_parameter_base@DV?$string_output_adapter@D@__crt_stdio_output@@@2@@__crt_stdio_output@@ABEHHD@Z 1002cd64 f i libucrt:output.obj
 0001:0002bd7a       ?type_case_s_compute_narrow_string_length@?$output_processor@DV?$string_output_adapter@D@__crt_stdio_output@@V?$standard_base@DV?$string_output_adapter@D@__crt_stdio_output@@@2@@__crt_stdio_output@@ABEHHD@Z 1002cd7a f i libucrt:output.obj
 0001:0002bd90       ?type_case_s_compute_narrow_string_length@?$output_processor@_WV?$stream_output_adapter@_W@__crt_stdio_output@@V?$format_validation_base@_WV?$stream_output_adapter@_W@__crt_stdio_output@@@2@@__crt_stdio_output@@ABEHH_W@Z 1002cd90 f i libucrt:output.obj
 0001:0002bdd7       ?type_case_s_compute_narrow_string_length@?$output_processor@_WV?$stream_output_adapter@_W@__crt_stdio_output@@V?$positional_parameter_base@_WV?$stream_output_adapter@_W@__crt_stdio_output@@@2@@__crt_stdio_output@@ABEHH_W@Z 1002cdd7 f i libucrt:output.obj
 0001:0002be1e       ?type_case_s_compute_narrow_string_length@?$output_processor@_WV?$stream_output_adapter@_W@__crt_stdio_output@@V?$standard_base@_WV?$stream_output_adapter@_W@__crt_stdio_output@@@2@@__crt_stdio_output@@ABEHH_W@Z 1002ce1e f i libucrt:output.obj
 0001:0002be65       ?type_case_s_compute_narrow_string_length@?$output_processor@_WV?$string_output_adapter@_W@__crt_stdio_output@@V?$format_validation_base@_WV?$string_output_adapter@_W@__crt_stdio_output@@@2@@__crt_stdio_output@@ABEHH_W@Z 1002ce65 f i libucrt:output.obj
 0001:0002beac       ?type_case_s_compute_narrow_string_length@?$output_processor@_WV?$string_output_adapter@_W@__crt_stdio_output@@V?$positional_parameter_base@_WV?$string_output_adapter@_W@__crt_stdio_output@@@2@@__crt_stdio_output@@ABEHH_W@Z 1002ceac f i libucrt:output.obj
 0001:0002bef3       ?type_case_s_compute_narrow_string_length@?$output_processor@_WV?$string_output_adapter@_W@__crt_stdio_output@@V?$standard_base@_WV?$string_output_adapter@_W@__crt_stdio_output@@@2@@__crt_stdio_output@@ABEHH_W@Z 1002cef3 f i libucrt:output.obj
 0001:0002bf3a       ?type_case_u@?$output_processor@DV?$stream_output_adapter@D@__crt_stdio_output@@V?$format_validation_base@DV?$stream_output_adapter@D@__crt_stdio_output@@@2@@__crt_stdio_output@@AAE_NXZ 1002cf3a f i libucrt:output.obj
 0001:0002bf44       ?type_case_u@?$output_processor@DV?$stream_output_adapter@D@__crt_stdio_output@@V?$positional_parameter_base@DV?$stream_output_adapter@D@__crt_stdio_output@@@2@@__crt_stdio_output@@AAE_NXZ 1002cf44 f i libucrt:output.obj
 0001:0002bf4e       ?type_case_u@?$output_processor@DV?$stream_output_adapter@D@__crt_stdio_output@@V?$standard_base@DV?$stream_output_adapter@D@__crt_stdio_output@@@2@@__crt_stdio_output@@AAE_NXZ 1002cf4e f i libucrt:output.obj
 0001:0002bf58       ?type_case_u@?$output_processor@DV?$string_output_adapter@D@__crt_stdio_output@@V?$format_validation_base@DV?$string_output_adapter@D@__crt_stdio_output@@@2@@__crt_stdio_output@@AAE_NXZ 1002cf58 f i libucrt:output.obj
 0001:0002bf62       ?type_case_u@?$output_processor@DV?$string_output_adapter@D@__crt_stdio_output@@V?$positional_parameter_base@DV?$string_output_adapter@D@__crt_stdio_output@@@2@@__crt_stdio_output@@AAE_NXZ 1002cf62 f i libucrt:output.obj
 0001:0002bf6c       ?type_case_u@?$output_processor@DV?$string_output_adapter@D@__crt_stdio_output@@V?$standard_base@DV?$string_output_adapter@D@__crt_stdio_output@@@2@@__crt_stdio_output@@AAE_NXZ 1002cf6c f i libucrt:output.obj
 0001:0002bf76       ?type_case_u@?$output_processor@_WV?$stream_output_adapter@_W@__crt_stdio_output@@V?$format_validation_base@_WV?$stream_output_adapter@_W@__crt_stdio_output@@@2@@__crt_stdio_output@@AAE_NXZ 1002cf76 f i libucrt:output.obj
 0001:0002bf80       ?type_case_u@?$output_processor@_WV?$stream_output_adapter@_W@__crt_stdio_output@@V?$positional_parameter_base@_WV?$stream_output_adapter@_W@__crt_stdio_output@@@2@@__crt_stdio_output@@AAE_NXZ 1002cf80 f i libucrt:output.obj
 0001:0002bf8a       ?type_case_u@?$output_processor@_WV?$stream_output_adapter@_W@__crt_stdio_output@@V?$standard_base@_WV?$stream_output_adapter@_W@__crt_stdio_output@@@2@@__crt_stdio_output@@AAE_NXZ 1002cf8a f i libucrt:output.obj
 0001:0002bf94       ?type_case_u@?$output_processor@_WV?$string_output_adapter@_W@__crt_stdio_output@@V?$format_validation_base@_WV?$string_output_adapter@_W@__crt_stdio_output@@@2@@__crt_stdio_output@@AAE_NXZ 1002cf94 f i libucrt:output.obj
 0001:0002bf9e       ?type_case_u@?$output_processor@_WV?$string_output_adapter@_W@__crt_stdio_output@@V?$positional_parameter_base@_WV?$string_output_adapter@_W@__crt_stdio_output@@@2@@__crt_stdio_output@@AAE_NXZ 1002cf9e f i libucrt:output.obj
 0001:0002bfa8       ?type_case_u@?$output_processor@_WV?$string_output_adapter@_W@__crt_stdio_output@@V?$standard_base@_WV?$string_output_adapter@_W@__crt_stdio_output@@@2@@__crt_stdio_output@@AAE_NXZ 1002cfa8 f i libucrt:output.obj
 0001:0002bfb2       ?type_case_x@?$output_processor@DV?$stream_output_adapter@D@__crt_stdio_output@@V?$format_validation_base@DV?$stream_output_adapter@D@__crt_stdio_output@@@2@@__crt_stdio_output@@AAE_NXZ 1002cfb2 f i libucrt:output.obj
 0001:0002bfbc       ?type_case_x@?$output_processor@DV?$stream_output_adapter@D@__crt_stdio_output@@V?$positional_parameter_base@DV?$stream_output_adapter@D@__crt_stdio_output@@@2@@__crt_stdio_output@@AAE_NXZ 1002cfbc f i libucrt:output.obj
 0001:0002bfc6       ?type_case_x@?$output_processor@DV?$stream_output_adapter@D@__crt_stdio_output@@V?$standard_base@DV?$stream_output_adapter@D@__crt_stdio_output@@@2@@__crt_stdio_output@@AAE_NXZ 1002cfc6 f i libucrt:output.obj
 0001:0002bfd0       ?type_case_x@?$output_processor@DV?$string_output_adapter@D@__crt_stdio_output@@V?$format_validation_base@DV?$string_output_adapter@D@__crt_stdio_output@@@2@@__crt_stdio_output@@AAE_NXZ 1002cfd0 f i libucrt:output.obj
 0001:0002bfda       ?type_case_x@?$output_processor@DV?$string_output_adapter@D@__crt_stdio_output@@V?$positional_parameter_base@DV?$string_output_adapter@D@__crt_stdio_output@@@2@@__crt_stdio_output@@AAE_NXZ 1002cfda f i libucrt:output.obj
 0001:0002bfe4       ?type_case_x@?$output_processor@DV?$string_output_adapter@D@__crt_stdio_output@@V?$standard_base@DV?$string_output_adapter@D@__crt_stdio_output@@@2@@__crt_stdio_output@@AAE_NXZ 1002cfe4 f i libucrt:output.obj
 0001:0002bfee       ?type_case_x@?$output_processor@_WV?$stream_output_adapter@_W@__crt_stdio_output@@V?$format_validation_base@_WV?$stream_output_adapter@_W@__crt_stdio_output@@@2@@__crt_stdio_output@@AAE_NXZ 1002cfee f i libucrt:output.obj
 0001:0002bff8       ?type_case_x@?$output_processor@_WV?$stream_output_adapter@_W@__crt_stdio_output@@V?$positional_parameter_base@_WV?$stream_output_adapter@_W@__crt_stdio_output@@@2@@__crt_stdio_output@@AAE_NXZ 1002cff8 f i libucrt:output.obj
 0001:0002c002       ?type_case_x@?$output_processor@_WV?$stream_output_adapter@_W@__crt_stdio_output@@V?$standard_base@_WV?$stream_output_adapter@_W@__crt_stdio_output@@@2@@__crt_stdio_output@@AAE_NXZ 1002d002 f i libucrt:output.obj
 0001:0002c00c       ?type_case_x@?$output_processor@_WV?$string_output_adapter@_W@__crt_stdio_output@@V?$format_validation_base@_WV?$string_output_adapter@_W@__crt_stdio_output@@@2@@__crt_stdio_output@@AAE_NXZ 1002d00c f i libucrt:output.obj
 0001:0002c016       ?type_case_x@?$output_processor@_WV?$string_output_adapter@_W@__crt_stdio_output@@V?$positional_parameter_base@_WV?$string_output_adapter@_W@__crt_stdio_output@@@2@@__crt_stdio_output@@AAE_NXZ 1002d016 f i libucrt:output.obj
 0001:0002c020       ?type_case_x@?$output_processor@_WV?$string_output_adapter@_W@__crt_stdio_output@@V?$standard_base@_WV?$string_output_adapter@_W@__crt_stdio_output@@@2@@__crt_stdio_output@@AAE_NXZ 1002d020 f i libucrt:output.obj
 0001:0002c02a       ?unset_flag@?$output_processor@DV?$stream_output_adapter@D@__crt_stdio_output@@V?$format_validation_base@DV?$stream_output_adapter@D@__crt_stdio_output@@@2@@__crt_stdio_output@@AAEXI@Z 1002d02a f i libucrt:output.obj
 0001:0002c03b       ?unset_flag@?$output_processor@DV?$stream_output_adapter@D@__crt_stdio_output@@V?$positional_parameter_base@DV?$stream_output_adapter@D@__crt_stdio_output@@@2@@__crt_stdio_output@@AAEXI@Z 1002d03b f i libucrt:output.obj
 0001:0002c04c       ?unset_flag@?$output_processor@DV?$stream_output_adapter@D@__crt_stdio_output@@V?$standard_base@DV?$stream_output_adapter@D@__crt_stdio_output@@@2@@__crt_stdio_output@@AAEXI@Z 1002d04c f i libucrt:output.obj
 0001:0002c05d       ?unset_flag@?$output_processor@DV?$string_output_adapter@D@__crt_stdio_output@@V?$format_validation_base@DV?$string_output_adapter@D@__crt_stdio_output@@@2@@__crt_stdio_output@@AAEXI@Z 1002d05d f i libucrt:output.obj
 0001:0002c06e       ?unset_flag@?$output_processor@DV?$string_output_adapter@D@__crt_stdio_output@@V?$positional_parameter_base@DV?$string_output_adapter@D@__crt_stdio_output@@@2@@__crt_stdio_output@@AAEXI@Z 1002d06e f i libucrt:output.obj
 0001:0002c07f       ?unset_flag@?$output_processor@DV?$string_output_adapter@D@__crt_stdio_output@@V?$standard_base@DV?$string_output_adapter@D@__crt_stdio_output@@@2@@__crt_stdio_output@@AAEXI@Z 1002d07f f i libucrt:output.obj
 0001:0002c090       ?unset_flag@?$output_processor@_WV?$stream_output_adapter@_W@__crt_stdio_output@@V?$format_validation_base@_WV?$stream_output_adapter@_W@__crt_stdio_output@@@2@@__crt_stdio_output@@AAEXI@Z 1002d090 f i libucrt:output.obj
 0001:0002c0a1       ?unset_flag@?$output_processor@_WV?$stream_output_adapter@_W@__crt_stdio_output@@V?$positional_parameter_base@_WV?$stream_output_adapter@_W@__crt_stdio_output@@@2@@__crt_stdio_output@@AAEXI@Z 1002d0a1 f i libucrt:output.obj
 0001:0002c0b2       ?unset_flag@?$output_processor@_WV?$stream_output_adapter@_W@__crt_stdio_output@@V?$standard_base@_WV?$stream_output_adapter@_W@__crt_stdio_output@@@2@@__crt_stdio_output@@AAEXI@Z 1002d0b2 f i libucrt:output.obj
 0001:0002c0c3       ?unset_flag@?$output_processor@_WV?$string_output_adapter@_W@__crt_stdio_output@@V?$format_validation_base@_WV?$string_output_adapter@_W@__crt_stdio_output@@@2@@__crt_stdio_output@@AAEXI@Z 1002d0c3 f i libucrt:output.obj
 0001:0002c0d4       ?unset_flag@?$output_processor@_WV?$string_output_adapter@_W@__crt_stdio_output@@V?$positional_parameter_base@_WV?$string_output_adapter@_W@__crt_stdio_output@@@2@@__crt_stdio_output@@AAEXI@Z 1002d0d4 f i libucrt:output.obj
 0001:0002c0e5       ?unset_flag@?$output_processor@_WV?$string_output_adapter@_W@__crt_stdio_output@@V?$standard_base@_WV?$string_output_adapter@_W@__crt_stdio_output@@@2@@__crt_stdio_output@@AAEXI@Z 1002d0e5 f i libucrt:output.obj
 0001:0002c0f6       ?update_field_width@?$positional_parameter_base@DV?$stream_output_adapter@D@__crt_stdio_output@@@__crt_stdio_output@@IAE_NXZ 1002d0f6 f i libucrt:output.obj
 0001:0002c1aa       ?update_field_width@?$positional_parameter_base@DV?$string_output_adapter@D@__crt_stdio_output@@@__crt_stdio_output@@IAE_NXZ 1002d1aa f i libucrt:output.obj
 0001:0002c25e       ?update_field_width@?$positional_parameter_base@_WV?$stream_output_adapter@_W@__crt_stdio_output@@@__crt_stdio_output@@IAE_NXZ 1002d25e f i libucrt:output.obj
 0001:0002c313       ?update_field_width@?$positional_parameter_base@_WV?$string_output_adapter@_W@__crt_stdio_output@@@__crt_stdio_output@@IAE_NXZ 1002d313 f i libucrt:output.obj
 0001:0002c3c8       ?update_field_width@?$standard_base@DV?$stream_output_adapter@D@__crt_stdio_output@@@__crt_stdio_output@@IAE_NXZ 1002d3c8 f i libucrt:output.obj
 0001:0002c3d8       ?update_field_width@?$standard_base@DV?$string_output_adapter@D@__crt_stdio_output@@@__crt_stdio_output@@IAE_NXZ 1002d3d8 f i libucrt:output.obj
 0001:0002c3e8       ?update_field_width@?$standard_base@_WV?$stream_output_adapter@_W@__crt_stdio_output@@@__crt_stdio_output@@IAE_NXZ 1002d3e8 f i libucrt:output.obj
 0001:0002c3f8       ?update_field_width@?$standard_base@_WV?$string_output_adapter@_W@__crt_stdio_output@@@__crt_stdio_output@@IAE_NXZ 1002d3f8 f i libucrt:output.obj
 0001:0002c408       ?update_precision@?$positional_parameter_base@DV?$stream_output_adapter@D@__crt_stdio_output@@@__crt_stdio_output@@IAE_NXZ 1002d408 f i libucrt:output.obj
 0001:0002c4bc       ?update_precision@?$positional_parameter_base@DV?$string_output_adapter@D@__crt_stdio_output@@@__crt_stdio_output@@IAE_NXZ 1002d4bc f i libucrt:output.obj
 0001:0002c570       ?update_precision@?$positional_parameter_base@_WV?$stream_output_adapter@_W@__crt_stdio_output@@@__crt_stdio_output@@IAE_NXZ 1002d570 f i libucrt:output.obj
 0001:0002c625       ?update_precision@?$positional_parameter_base@_WV?$string_output_adapter@_W@__crt_stdio_output@@@__crt_stdio_output@@IAE_NXZ 1002d625 f i libucrt:output.obj
 0001:0002c6da       ?update_precision@?$standard_base@DV?$stream_output_adapter@D@__crt_stdio_output@@@__crt_stdio_output@@IAE_NXZ 1002d6da f i libucrt:output.obj
 0001:0002c6ea       ?update_precision@?$standard_base@DV?$string_output_adapter@D@__crt_stdio_output@@@__crt_stdio_output@@IAE_NXZ 1002d6ea f i libucrt:output.obj
 0001:0002c6fa       ?update_precision@?$standard_base@_WV?$stream_output_adapter@_W@__crt_stdio_output@@@__crt_stdio_output@@IAE_NXZ 1002d6fa f i libucrt:output.obj
 0001:0002c70a       ?update_precision@?$standard_base@_WV?$string_output_adapter@_W@__crt_stdio_output@@@__crt_stdio_output@@IAE_NXZ 1002d70a f i libucrt:output.obj
 0001:0002c71a       ?valid@__crt_stdio_stream@@QBE_NXZ 1002d71a f i libucrt:output.obj
 0001:0002c721       ?validate@?$stream_output_adapter@D@__crt_stdio_output@@QBE_NXZ 1002d721 f i libucrt:output.obj
 0001:0002c742       ?validate@?$stream_output_adapter@_W@__crt_stdio_output@@QBE_NXZ 1002d742 f i libucrt:output.obj
 0001:0002c75d       ?validate@?$string_output_adapter@D@__crt_stdio_output@@QBE_NXZ 1002d75d f i libucrt:output.obj
 0001:0002c778       ?validate@?$string_output_adapter@_W@__crt_stdio_output@@QBE_NXZ 1002d778 f i libucrt:output.obj
 0001:0002c793       ?validate_and_store_parameter_data@?$positional_parameter_base@DV?$stream_output_adapter@D@__crt_stdio_output@@@__crt_stdio_output@@AAE_NAAUparameter_data@12@W4parameter_type@12@DW4length_modifier@2@@Z 1002d793 f i libucrt:output.obj
 0001:0002c7de       ?validate_and_store_parameter_data@?$positional_parameter_base@DV?$string_output_adapter@D@__crt_stdio_output@@@__crt_stdio_output@@AAE_NAAUparameter_data@12@W4parameter_type@12@DW4length_modifier@2@@Z 1002d7de f i libucrt:output.obj
 0001:0002c829       ?validate_and_store_parameter_data@?$positional_parameter_base@_WV?$stream_output_adapter@_W@__crt_stdio_output@@@__crt_stdio_output@@AAE_NAAUparameter_data@12@W4parameter_type@12@_WW4length_modifier@2@@Z 1002d829 f i libucrt:output.obj
 0001:0002c876       ?validate_and_store_parameter_data@?$positional_parameter_base@_WV?$string_output_adapter@_W@__crt_stdio_output@@@__crt_stdio_output@@AAE_NAAUparameter_data@12@W4parameter_type@12@_WW4length_modifier@2@@Z 1002d876 f i libucrt:output.obj
 0001:0002c8c3       ?validate_and_update_state_at_beginning_of_format_character@?$positional_parameter_base@DV?$stream_output_adapter@D@__crt_stdio_output@@@__crt_stdio_output@@IAE_NXZ 1002d8c3 f i libucrt:output.obj
 0001:0002c9bb       ?validate_and_update_state_at_beginning_of_format_character@?$positional_parameter_base@DV?$string_output_adapter@D@__crt_stdio_output@@@__crt_stdio_output@@IAE_NXZ 1002d9bb f i libucrt:output.obj
 0001:0002cab3       ?validate_and_update_state_at_beginning_of_format_character@?$positional_parameter_base@_WV?$stream_output_adapter@_W@__crt_stdio_output@@@__crt_stdio_output@@IAE_NXZ 1002dab3 f i libucrt:output.obj
 0001:0002cbb4       ?validate_and_update_state_at_beginning_of_format_character@?$positional_parameter_base@_WV?$string_output_adapter@_W@__crt_stdio_output@@@__crt_stdio_output@@IAE_NXZ 1002dbb4 f i libucrt:output.obj
 0001:0002ccb5       ?validate_and_update_state_at_beginning_of_format_character@?$standard_base@DV?$stream_output_adapter@D@__crt_stdio_output@@@__crt_stdio_output@@IAE_NXZ 1002dcb5 f i libucrt:output.obj
 0001:0002ccb8       ?validate_and_update_state_at_beginning_of_format_character@?$standard_base@DV?$string_output_adapter@D@__crt_stdio_output@@@__crt_stdio_output@@IAE_NXZ 1002dcb8 f i libucrt:output.obj
 0001:0002ccbb       ?validate_and_update_state_at_beginning_of_format_character@?$standard_base@_WV?$stream_output_adapter@_W@__crt_stdio_output@@@__crt_stdio_output@@IAE_NXZ 1002dcbb f i libucrt:output.obj
 0001:0002ccbe       ?validate_and_update_state_at_beginning_of_format_character@?$standard_base@_WV?$string_output_adapter@_W@__crt_stdio_output@@@__crt_stdio_output@@IAE_NXZ 1002dcbe f i libucrt:output.obj
 0001:0002ccc1       ?validate_and_update_state_at_end_of_format_string@?$format_validation_base@DV?$stream_output_adapter@D@__crt_stdio_output@@@__crt_stdio_output@@IBE_NXZ 1002dcc1 f i libucrt:output.obj
 0001:0002cce3       ?validate_and_update_state_at_end_of_format_string@?$format_validation_base@DV?$string_output_adapter@D@__crt_stdio_output@@@__crt_stdio_output@@IBE_NXZ 1002dce3 f i libucrt:output.obj
 0001:0002cd05       ?validate_and_update_state_at_end_of_format_string@?$format_validation_base@_WV?$stream_output_adapter@_W@__crt_stdio_output@@@__crt_stdio_output@@IBE_NXZ 1002dd05 f i libucrt:output.obj
 0001:0002cd27       ?validate_and_update_state_at_end_of_format_string@?$format_validation_base@_WV?$string_output_adapter@_W@__crt_stdio_output@@@__crt_stdio_output@@IBE_NXZ 1002dd27 f i libucrt:output.obj
 0001:0002cd49       ?validate_and_update_state_at_end_of_format_string@?$positional_parameter_base@DV?$stream_output_adapter@D@__crt_stdio_output@@@__crt_stdio_output@@IAE_NXZ 1002dd49 f i libucrt:output.obj
 0001:0002cdd9       ?validate_and_update_state_at_end_of_format_string@?$positional_parameter_base@DV?$string_output_adapter@D@__crt_stdio_output@@@__crt_stdio_output@@IAE_NXZ 1002ddd9 f i libucrt:output.obj
 0001:0002ce69       ?validate_and_update_state_at_end_of_format_string@?$positional_parameter_base@_WV?$stream_output_adapter@_W@__crt_stdio_output@@@__crt_stdio_output@@IAE_NXZ 1002de69 f i libucrt:output.obj
 0001:0002cef9       ?validate_and_update_state_at_end_of_format_string@?$positional_parameter_base@_WV?$string_output_adapter@_W@__crt_stdio_output@@@__crt_stdio_output@@IAE_NXZ 1002def9 f i libucrt:output.obj
 0001:0002cf89       ?validate_and_update_state_at_end_of_format_string@?$standard_base@DV?$stream_output_adapter@D@__crt_stdio_output@@@__crt_stdio_output@@IBE_NXZ 1002df89 f i libucrt:output.obj
 0001:0002cf8c       ?validate_and_update_state_at_end_of_format_string@?$standard_base@DV?$string_output_adapter@D@__crt_stdio_output@@@__crt_stdio_output@@IBE_NXZ 1002df8c f i libucrt:output.obj
 0001:0002cf8f       ?validate_and_update_state_at_end_of_format_string@?$standard_base@_WV?$stream_output_adapter@_W@__crt_stdio_output@@@__crt_stdio_output@@IBE_NXZ 1002df8f f i libucrt:output.obj
 0001:0002cf92       ?validate_and_update_state_at_end_of_format_string@?$standard_base@_WV?$string_output_adapter@_W@__crt_stdio_output@@@__crt_stdio_output@@IBE_NXZ 1002df92 f i libucrt:output.obj
 0001:0002cf95       ?validate_state_for_type_case_a@?$positional_parameter_base@DV?$stream_output_adapter@D@__crt_stdio_output@@@__crt_stdio_output@@IAE_NXZ 1002df95 f i libucrt:output.obj
 0001:0002cfe4       ?validate_state_for_type_case_a@?$positional_parameter_base@DV?$string_output_adapter@D@__crt_stdio_output@@@__crt_stdio_output@@IAE_NXZ 1002dfe4 f i libucrt:output.obj
 0001:0002d033       ?validate_state_for_type_case_a@?$positional_parameter_base@_WV?$stream_output_adapter@_W@__crt_stdio_output@@@__crt_stdio_output@@IAE_NXZ 1002e033 f i libucrt:output.obj
 0001:0002d082       ?validate_state_for_type_case_a@?$positional_parameter_base@_WV?$string_output_adapter@_W@__crt_stdio_output@@@__crt_stdio_output@@IAE_NXZ 1002e082 f i libucrt:output.obj
 0001:0002d0d1       ?validate_state_for_type_case_a@?$standard_base@DV?$stream_output_adapter@D@__crt_stdio_output@@@__crt_stdio_output@@IBE_NXZ 1002e0d1 f i libucrt:output.obj
 0001:0002d0d4       ?validate_state_for_type_case_a@?$standard_base@DV?$string_output_adapter@D@__crt_stdio_output@@@__crt_stdio_output@@IBE_NXZ 1002e0d4 f i libucrt:output.obj
 0001:0002d0d7       ?validate_state_for_type_case_a@?$standard_base@_WV?$stream_output_adapter@_W@__crt_stdio_output@@@__crt_stdio_output@@IBE_NXZ 1002e0d7 f i libucrt:output.obj
 0001:0002d0da       ?validate_state_for_type_case_a@?$standard_base@_WV?$string_output_adapter@_W@__crt_stdio_output@@@__crt_stdio_output@@IBE_NXZ 1002e0da f i libucrt:output.obj
 0001:0002d0dd       ?validate_stream_is_ansi_if_required@?$__acrt_stdio_char_traits@D@@SA_NQAU_iobuf@@@Z 1002e0dd f i libucrt:output.obj
 0001:0002d164       ?validate_stream_is_ansi_if_required@?$__acrt_stdio_char_traits@_W@@SA_NQAU_iobuf@@@Z 1002e164 f i libucrt:output.obj
 0001:0002d167       ?wide_null_string@?$output_processor@DV?$stream_output_adapter@D@__crt_stdio_output@@V?$format_validation_base@DV?$stream_output_adapter@D@__crt_stdio_output@@@2@@__crt_stdio_output@@CAPA_WXZ 1002e167 f i libucrt:output.obj
 0001:0002d16d       ?wide_null_string@?$output_processor@DV?$stream_output_adapter@D@__crt_stdio_output@@V?$positional_parameter_base@DV?$stream_output_adapter@D@__crt_stdio_output@@@2@@__crt_stdio_output@@CAPA_WXZ 1002e16d f i libucrt:output.obj
 0001:0002d173       ?wide_null_string@?$output_processor@DV?$stream_output_adapter@D@__crt_stdio_output@@V?$standard_base@DV?$stream_output_adapter@D@__crt_stdio_output@@@2@@__crt_stdio_output@@CAPA_WXZ 1002e173 f i libucrt:output.obj
 0001:0002d179       ?wide_null_string@?$output_processor@DV?$string_output_adapter@D@__crt_stdio_output@@V?$format_validation_base@DV?$string_output_adapter@D@__crt_stdio_output@@@2@@__crt_stdio_output@@CAPA_WXZ 1002e179 f i libucrt:output.obj
 0001:0002d17f       ?wide_null_string@?$output_processor@DV?$string_output_adapter@D@__crt_stdio_output@@V?$positional_parameter_base@DV?$string_output_adapter@D@__crt_stdio_output@@@2@@__crt_stdio_output@@CAPA_WXZ 1002e17f f i libucrt:output.obj
 0001:0002d185       ?wide_null_string@?$output_processor@DV?$string_output_adapter@D@__crt_stdio_output@@V?$standard_base@DV?$string_output_adapter@D@__crt_stdio_output@@@2@@__crt_stdio_output@@CAPA_WXZ 1002e185 f i libucrt:output.obj
 0001:0002d18b       ?wide_null_string@?$output_processor@_WV?$stream_output_adapter@_W@__crt_stdio_output@@V?$format_validation_base@_WV?$stream_output_adapter@_W@__crt_stdio_output@@@2@@__crt_stdio_output@@CAPA_WXZ 1002e18b f i libucrt:output.obj
 0001:0002d191       ?wide_null_string@?$output_processor@_WV?$stream_output_adapter@_W@__crt_stdio_output@@V?$positional_parameter_base@_WV?$stream_output_adapter@_W@__crt_stdio_output@@@2@@__crt_stdio_output@@CAPA_WXZ 1002e191 f i libucrt:output.obj
 0001:0002d197       ?wide_null_string@?$output_processor@_WV?$stream_output_adapter@_W@__crt_stdio_output@@V?$standard_base@_WV?$stream_output_adapter@_W@__crt_stdio_output@@@2@@__crt_stdio_output@@CAPA_WXZ 1002e197 f i libucrt:output.obj
 0001:0002d19d       ?wide_null_string@?$output_processor@_WV?$string_output_adapter@_W@__crt_stdio_output@@V?$format_validation_base@_WV?$string_output_adapter@_W@__crt_stdio_output@@@2@@__crt_stdio_output@@CAPA_WXZ 1002e19d f i libucrt:output.obj
 0001:0002d1a3       ?wide_null_string@?$output_processor@_WV?$string_output_adapter@_W@__crt_stdio_output@@V?$positional_parameter_base@_WV?$string_output_adapter@_W@__crt_stdio_output@@@2@@__crt_stdio_output@@CAPA_WXZ 1002e1a3 f i libucrt:output.obj
 0001:0002d1a9       ?wide_null_string@?$output_processor@_WV?$string_output_adapter@_W@__crt_stdio_output@@V?$standard_base@_WV?$string_output_adapter@_W@__crt_stdio_output@@@2@@__crt_stdio_output@@CAPA_WXZ 1002e1a9 f i libucrt:output.obj
 0001:0002d1af       ?write_character@?$output_adapter_common@DV?$stream_output_adapter@D@__crt_stdio_output@@@__crt_stdio_output@@QBEXDQAH@Z 1002e1af f i libucrt:output.obj
 0001:0002d1ce       ?write_character@?$output_adapter_common@_WV?$stream_output_adapter@_W@__crt_stdio_output@@@__crt_stdio_output@@QBEX_WQAH@Z 1002e1ce f i libucrt:output.obj
 0001:0002d1ed       ?write_character@?$string_output_adapter@D@__crt_stdio_output@@QBE_NDQAH@Z 1002e1ed f i libucrt:output.obj
 0001:0002d22f       ?write_character@?$string_output_adapter@_W@__crt_stdio_output@@QBE_N_WQAH@Z 1002e22f f i libucrt:output.obj
 0001:0002d274       ?write_character_without_count_update@?$stream_output_adapter@D@__crt_stdio_output@@QBE_ND@Z 1002e274 f i libucrt:output.obj
 0001:0002d2aa       ?write_character_without_count_update@?$stream_output_adapter@_W@__crt_stdio_output@@QBE_N_W@Z 1002e2aa f i libucrt:output.obj
 0001:0002d2e3       ?write_stored_string_tchar@?$output_processor@DV?$stream_output_adapter@D@__crt_stdio_output@@V?$format_validation_base@DV?$stream_output_adapter@D@__crt_stdio_output@@@2@@__crt_stdio_output@@AAE_ND@Z 1002e2e3 f i libucrt:output.obj
 0001:0002d388       ?write_stored_string_tchar@?$output_processor@DV?$stream_output_adapter@D@__crt_stdio_output@@V?$positional_parameter_base@DV?$stream_output_adapter@D@__crt_stdio_output@@@2@@__crt_stdio_output@@AAE_ND@Z 1002e388 f i libucrt:output.obj
 0001:0002d42d       ?write_stored_string_tchar@?$output_processor@DV?$stream_output_adapter@D@__crt_stdio_output@@V?$standard_base@DV?$stream_output_adapter@D@__crt_stdio_output@@@2@@__crt_stdio_output@@AAE_ND@Z 1002e42d f i libucrt:output.obj
 0001:0002d4d2       ?write_stored_string_tchar@?$output_processor@DV?$string_output_adapter@D@__crt_stdio_output@@V?$format_validation_base@DV?$string_output_adapter@D@__crt_stdio_output@@@2@@__crt_stdio_output@@AAE_ND@Z 1002e4d2 f i libucrt:output.obj
 0001:0002d577       ?write_stored_string_tchar@?$output_processor@DV?$string_output_adapter@D@__crt_stdio_output@@V?$positional_parameter_base@DV?$string_output_adapter@D@__crt_stdio_output@@@2@@__crt_stdio_output@@AAE_ND@Z 1002e577 f i libucrt:output.obj
 0001:0002d61c       ?write_stored_string_tchar@?$output_processor@DV?$string_output_adapter@D@__crt_stdio_output@@V?$standard_base@DV?$string_output_adapter@D@__crt_stdio_output@@@2@@__crt_stdio_output@@AAE_ND@Z 1002e61c f i libucrt:output.obj
 0001:0002d6c1       ?write_stored_string_tchar@?$output_processor@_WV?$stream_output_adapter@_W@__crt_stdio_output@@V?$format_validation_base@_WV?$stream_output_adapter@_W@__crt_stdio_output@@@2@@__crt_stdio_output@@AAE_N_W@Z 1002e6c1 f i libucrt:output.obj
 0001:0002d74e       ?write_stored_string_tchar@?$output_processor@_WV?$stream_output_adapter@_W@__crt_stdio_output@@V?$positional_parameter_base@_WV?$stream_output_adapter@_W@__crt_stdio_output@@@2@@__crt_stdio_output@@AAE_N_W@Z 1002e74e f i libucrt:output.obj
 0001:0002d7db       ?write_stored_string_tchar@?$output_processor@_WV?$stream_output_adapter@_W@__crt_stdio_output@@V?$standard_base@_WV?$stream_output_adapter@_W@__crt_stdio_output@@@2@@__crt_stdio_output@@AAE_N_W@Z 1002e7db f i libucrt:output.obj
 0001:0002d868       ?write_stored_string_tchar@?$output_processor@_WV?$string_output_adapter@_W@__crt_stdio_output@@V?$format_validation_base@_WV?$string_output_adapter@_W@__crt_stdio_output@@@2@@__crt_stdio_output@@AAE_N_W@Z 1002e868 f i libucrt:output.obj
 0001:0002d8f5       ?write_stored_string_tchar@?$output_processor@_WV?$string_output_adapter@_W@__crt_stdio_output@@V?$positional_parameter_base@_WV?$string_output_adapter@_W@__crt_stdio_output@@@2@@__crt_stdio_output@@AAE_N_W@Z 1002e8f5 f i libucrt:output.obj
 0001:0002d982       ?write_stored_string_tchar@?$output_processor@_WV?$string_output_adapter@_W@__crt_stdio_output@@V?$standard_base@_WV?$string_output_adapter@_W@__crt_stdio_output@@@2@@__crt_stdio_output@@AAE_N_W@Z 1002e982 f i libucrt:output.obj
 0001:0002da0f       ?write_string@?$stream_output_adapter@D@__crt_stdio_output@@QBEXQBDHQAHAAV__crt_deferred_errno_cache@@@Z 1002ea0f f i libucrt:output.obj
 0001:0002da3b       ?write_string@?$stream_output_adapter@_W@__crt_stdio_output@@QBEXQB_WHQAHAAV__crt_deferred_errno_cache@@@Z 1002ea3b f i libucrt:output.obj
 0001:0002da67       ?write_string@?$string_output_adapter@D@__crt_stdio_output@@QBEXQBDHQAHAAV__crt_deferred_errno_cache@@@Z 1002ea67 f i libucrt:output.obj
 0001:0002dace       ?write_string@?$string_output_adapter@_W@__crt_stdio_output@@QBEXQB_WHQAHAAV__crt_deferred_errno_cache@@@Z 1002eace f i libucrt:output.obj
 0001:0002db3f       ?write_string_impl@?$output_adapter_common@DV?$stream_output_adapter@D@__crt_stdio_output@@@__crt_stdio_output@@IBEXQBDHQAHAAV__crt_deferred_errno_cache@@@Z 1002eb3f f i libucrt:output.obj
 0001:0002dbdd       ?write_string_impl@?$output_adapter_common@_WV?$stream_output_adapter@_W@__crt_stdio_output@@@__crt_stdio_output@@IBEXQB_WHQAHAAV__crt_deferred_errno_cache@@@Z 1002ebdd f i libucrt:output.obj
 0001:0002dc7e       ___acrt_isleadbyte_l_noupdate 1002ec7e f i libucrt:output.obj
 0001:0002dc9c       ___acrt_locale_get_ctype_array_value 1002ec9c f i libucrt:output.obj
 0001:0002dcbe       ___stdio_common_vfprintf   1002ecbe f   libucrt:output.obj
 0001:0002dd41       ___stdio_common_vfprintf_p 1002ed41 f   libucrt:output.obj
 0001:0002ddc4       ___stdio_common_vfprintf_s 1002edc4 f   libucrt:output.obj
 0001:0002de47       ___stdio_common_vfwprintf  1002ee47 f   libucrt:output.obj
 0001:0002deca       ___stdio_common_vfwprintf_p 1002eeca f   libucrt:output.obj
 0001:0002df4d       ___stdio_common_vfwprintf_s 1002ef4d f   libucrt:output.obj
 0001:0002dfd0       ___stdio_common_vsnprintf_s 1002efd0 f   libucrt:output.obj
 0001:0002dff7       ___stdio_common_vsnwprintf_s 1002eff7 f   libucrt:output.obj
 0001:0002e01e       ___stdio_common_vsprintf   1002f01e f   libucrt:output.obj
 0001:0002e042       ___stdio_common_vsprintf_p 1002f042 f   libucrt:output.obj
 0001:0002e066       ___stdio_common_vsprintf_s 1002f066 f   libucrt:output.obj
 0001:0002e08a       ___stdio_common_vswprintf  1002f08a f   libucrt:output.obj
 0001:0002e0ae       ___stdio_common_vswprintf_p 1002f0ae f   libucrt:output.obj
 0001:0002e0d2       ___stdio_common_vswprintf_s 1002f0d2 f   libucrt:output.obj
 0001:0002e0f6       __ctype_fast_check_internal 1002f0f6 f i libucrt:output.obj
 0001:0002e110       __isdigit_fast_internal    1002f110 f i libucrt:output.obj
 0001:0002e12a       __tolower_fast_internal    1002f12a f i libucrt:output.obj
 0001:0002e143       _free                      1002f143 f   libucrt:free.obj
 0001:0002e15e       _malloc                    1002f15e f   libucrt:malloc.obj
 0001:0002e6a0       __read                     1002f6a0 f   libucrt:read.obj
 0001:0002e7b4       __read_nolock              1002f7b4 f   libucrt:read.obj
 0001:0002eb64       __utf8_no_of_trailbytes    1002fb64 f i libucrt:read.obj
 0001:0002ed10       __close                    1002fd10 f   libucrt:close.obj
 0001:0002ed9d       __close_nolock             1002fd9d f   libucrt:close.obj
 0001:0002ee39       ___acrt_errno_from_os_error 1002fe39 f   libucrt:errno.obj
 0001:0002ee7c       ___acrt_errno_map_os_error 1002fe7c f   libucrt:errno.obj
 0001:0002ee9f       ___doserrno                1002fe9f f   libucrt:errno.obj
 0001:0002eeb2       __errno                    1002feb2 f   libucrt:errno.obj
 0001:0002eec5       __get_doserrno             1002fec5 f   libucrt:errno.obj
 0001:0002eeea       __get_errno                1002feea f   libucrt:errno.obj
 0001:0002ef0f       __set_doserrno             1002ff0f f   libucrt:errno.obj
 0001:0002ef30       __set_errno                1002ff30 f   libucrt:errno.obj
 0001:0002ef51       ??$?R_W@__crt_internal_free_policy@@QBEXQB_W@Z 1002ff51 f i libucrt:strerror.obj
 0001:0002f11d       ??0?$__crt_unique_heap_ptr@_WU__crt_internal_free_policy@@@@QAE@QA_W@Z 1003011d f i libucrt:strerror.obj
 0001:0002f12d       ??1?$__crt_unique_heap_ptr@_WU__crt_internal_free_policy@@@@QAE@XZ 1003012d f i libucrt:strerror.obj
 0001:0002f177       ?detach@?$__crt_unique_heap_ptr@DU__crt_internal_free_policy@@@@QAEPADXZ 10030177 f i libucrt:strerror.obj
 0001:0002f17d       ?detach@?$__crt_unique_heap_ptr@_WU__crt_internal_free_policy@@@@QAEPA_WXZ 1003017d f i libucrt:strerror.obj
 0001:0002f1a9       ?release@?$__crt_unique_heap_ptr@_WU__crt_internal_free_policy@@@@QAEXXZ 100301a9 f i libucrt:strerror.obj
 0001:0002f1bb       __get_sys_err_msg          100301bb f i libucrt:strerror.obj
 0001:0002f207       __invoke_watson_if_oneof   10030207 f i libucrt:strerror.obj
 0001:0002f234       __wcserror                 10030234 f   libucrt:strerror.obj
 0001:0002f23f       __wcserror_s               1003023f f   libucrt:strerror.obj
 0001:0002f2a5       _strerror                  100302a5 f   libucrt:strerror.obj
 0001:0002f2b0       _strerror_s                100302b0 f   libucrt:strerror.obj
 0001:0002fadf       __write                    10030adf f   libucrt:write.obj
 0001:0002fbd1       __write_nolock             10030bd1 f   libucrt:write.obj
 0001:000304c2       ?ctrl_z@__crt_stdio_stream@@QBE_NXZ 100314c2 f i libucrt:ftell.obj
 0001:000304ce       ?has_all_of@__crt_stdio_stream@@QBE_NJ@Z 100314ce f i libucrt:ftell.obj
 0001:000304e6       ?has_any_of@__crt_stdio_stream@@QBE_NJ@Z 100314e6 f i libucrt:ftell.obj
 0001:000304fb       ?has_big_buffer@__crt_stdio_stream@@QBE_NXZ 100314fb f i libucrt:ftell.obj
 0001:00030507       ?has_crt_buffer@__crt_stdio_stream@@QBE_NXZ 10031507 f i libucrt:ftell.obj
 0001:00030513       ?has_setvbuf_buffer@__crt_stdio_stream@@QBE_NXZ 10031513 f i libucrt:ftell.obj
 0001:0003051f       __ftell_nolock             1003151f f   libucrt:ftell.obj
 0001:0003052a       __ftelli64                 1003152a f   libucrt:ftell.obj
 0001:00030535       __ftelli64_nolock          10031535 f   libucrt:ftell.obj
 0001:00030540       _ftell                     10031540 f   libucrt:ftell.obj
 0001:0003054b       ?eof@__crt_stdio_stream@@QBE_NXZ 1003154b f i libucrt:feoferr.obj
 0001:00030557       ?error@__crt_stdio_stream@@QBE_NXZ 10031557 f i libucrt:feoferr.obj
 0001:00030563       _feof                      10031563 f   libucrt:feoferr.obj
 0001:0003058f       _ferror                    1003158f f   libucrt:feoferr.obj
 0001:000307b6       ??$open_file@ABQBDABQBDABHPAU_iobuf@@@?$__crt_char_traits@D@@SAPAU_iobuf@@ABQBD0ABH$$QAPAU1@@Z 100317b6 f i libucrt:fopen.obj
 0001:000307d9       ??$open_file@ABQB_WABQB_WABHPAU_iobuf@@@?$__crt_char_traits@_W@@SAPAU_iobuf@@ABQB_W0ABH$$QAPAU1@@Z 100317d9 f i libucrt:fopen.obj
 0001:000307fc       ?unlock@__crt_stdio_stream@@QBEXXZ 100317fc f i libucrt:fopen.obj
 0001:00030805       __fsopen                   10031805 f   libucrt:fopen.obj
 0001:00030810       __wfopen                   10031810 f   libucrt:fopen.obj
 0001:00030827       __wfopen_s                 10031827 f   libucrt:fopen.obj
 0001:0003086e       __wfsopen                  1003186e f   libucrt:fopen.obj
 0001:00030879       _fopen                     10031879 f   libucrt:fopen.obj
 0001:00030890       _fopen_s                   10031890 f   libucrt:fopen.obj
 0001:000308d7       ?is_in_use@__crt_stdio_stream@@QBE_NXZ 100318d7 f i libucrt:fclose.obj
 0001:000308e3       __fclose_nolock            100318e3 f   libucrt:fclose.obj
 0001:0003095a       _fclose                    1003195a f   libucrt:fclose.obj
 0001:000309de       ?LongLongSub@@YAJ_J0PA_J@Z 100319de f i libucrt:fseek.obj
 0001:00030a58       ?__acrt_stdio_reset_buffer@@YAXV__crt_stdio_stream@@@Z 10031a58 f i libucrt:fseek.obj
 0001:00030cb0       ?has_any_buffer@__crt_stdio_stream@@QBE_NXZ 10031cb0 f i libucrt:fseek.obj
 0001:00030cbf       ?lowio_handle@__crt_stdio_stream@@QBEHXZ 10031cbf f i libucrt:fseek.obj
 0001:00030cc6       ?unset_flags@__crt_stdio_stream@@QBE_NJ@Z 10031cc6 f i libucrt:fseek.obj
 0001:00030cef       __fseek_nolock             10031cef f   libucrt:fseek.obj
 0001:00030d0a       __fseeki64                 10031d0a f   libucrt:fseek.obj
 0001:00030d25       __fseeki64_nolock          10031d25 f   libucrt:fseek.obj
 0001:00030d40       _fseek                     10031d40 f   libucrt:fseek.obj
 0001:00030e77       ?set_flags@__crt_stdio_stream@@QBE_NJ@Z 10031e77 f i libucrt:fwrite.obj
 0001:00030e9b       __fwrite_nolock            10031e9b f   libucrt:fwrite.obj
 0001:0003101c       _fwrite                    1003201c f   libucrt:fwrite.obj
 0001:0003107f       __fread_nolock             1003207f f   libucrt:fread.obj
 0001:0003109c       __fread_nolock_s           1003209c f   libucrt:fread.obj
 0001:00031282       _fread                     10032282 f   libucrt:fread.obj
 0001:0003129f       _fread_s                   1003229f f   libucrt:fread.obj
 0001:000313bd       _rand                      100323bd f   libucrt:rand.obj
 0001:000313de       _srand                     100323de f   libucrt:rand.obj
 0001:000316df       __time32                   100326df f   libucrt:time.obj
 0001:00031738       __time64                   10032738 f   libucrt:time.obj
 0001:00031796       __timespec32_get           10032796 f   libucrt:time.obj
 0001:000317a1       __timespec64_get           100327a1 f   libucrt:time.obj
 0001:000317ac       __initterm                 100327ac f   libucrt:initterm.obj
 0001:000317f1       __initterm_e               100327f1 f   libucrt:initterm.obj
 0001:00031843       __seh_filter_dll           10032843 f   libucrt:exception_filter.obj
 0001:00031863       __seh_filter_exe           10032863 f   libucrt:exception_filter.obj
 0001:000319bb       ??$?B$$A6GXPAXK0@Z@__crt_fast_encoded_nullptr_t@@QBEP6GXPAXK0@ZXZ 100329bb f i libucrt:exit.obj
 0001:00031a34       ??$__crt_fast_decode_pointer@P6GXPAXK0@Z@@YAP6GXPAXK0@ZQ6GX0K0@Z@Z 10032a34 f i libucrt:exit.obj
 0001:00031a4a       ??$__crt_fast_encode_pointer@P6GXPAXK0@Z@@YAP6GXPAXK0@ZQ6GX0K0@Z@Z 10032a4a f i libucrt:exit.obj
 0001:00031a69       ??$__crt_get_proc_address@P6GXI@Z@@YAP6GXI@ZQAUHINSTANCE__@@QBD@Z 10032a69 f i libucrt:exit.obj
 0001:00031abc       ??0?$__crt_unique_handle_t@U__crt_hmodule_traits@@@@QAE@QAUHINSTANCE__@@@Z 10032abc f i libucrt:exit.obj
 0001:00031acc       ??1?$__crt_unique_handle_t@U__crt_hmodule_traits@@@@QAE@XZ 10032acc f i libucrt:exit.obj
 0001:00031bcf       ?__acrt_select_exit_lock@@YA?AW4__acrt_lock_id@@XZ 10032bcf f i libucrt:exit.obj
 0001:00031bd3       ?__crt_fast_encode_pointer@@YA?AU__crt_fast_encoded_nullptr_t@@$$T@Z 10032bd3 f i libucrt:exit.obj
 0001:00031bde       ?__crt_rotate_pointer_value@@YAIIH@Z 10032bde f i libucrt:exit.obj
 0001:00031c00       ?close@?$__crt_unique_handle_t@U__crt_hmodule_traits@@@@QAEXXZ 10032c00 f i libucrt:exit.obj
 0001:00031c17       ?close@__crt_hmodule_traits@@SA_NPAUHINSTANCE__@@@Z 10032c17 f i libucrt:exit.obj
 0001:00031cd2       ?get@?$__crt_unique_handle_t@U__crt_hmodule_traits@@@@QBEPAUHINSTANCE__@@XZ 10032cd2 f i libucrt:exit.obj
 0001:00031cd5       ?get_address_of@?$__crt_unique_handle_t@U__crt_hmodule_traits@@@@QAEPAPAUHINSTANCE__@@XZ 10032cd5 f i libucrt:exit.obj
 0001:00031cd8       ?get_invalid_value@__crt_hmodule_traits@@SAPAUHINSTANCE__@@XZ 10032cd8 f i libucrt:exit.obj
 0001:00031d93       __Exit                     10032d93 f   libucrt:exit.obj
 0001:00031da9       ___acrt_initialize_thread_local_exit_callback 10032da9 f   libucrt:exit.obj
 0001:00031db8       __c_exit                   10032db8 f   libucrt:exit.obj
 0001:00031dc7       __cexit                    10032dc7 f   libucrt:exit.obj
 0001:00031dd6       __exit                     10032dd6 f   libucrt:exit.obj
 0001:00031dec       __is_c_termination_complete 10032dec f   libucrt:exit.obj
 0001:00031df3       __register_thread_local_exe_atexit_callback 10032df3 f   libucrt:exit.obj
 0001:00031e19       _exit                      10032e19 f   libucrt:exit.obj
 0001:00031e2f       _quick_exit                10032e2f f   libucrt:exit.obj
 0001:00031e45       ??$?RE@__crt_internal_free_policy@@QBEXQBE@Z 10032e45 f i libucrt:argv_parsing.obj
 0001:00031e57       ??$?RPAD@__crt_internal_free_policy@@QBEXQBQAD@Z 10032e57 f i libucrt:argv_parsing.obj
 0001:00031e69       ??$?RPA_W@__crt_internal_free_policy@@QBEXQBQA_W@Z 10032e69 f i libucrt:argv_parsing.obj
 0001:000320e0       ??$get_module_file_name@$$TAAY0BAF@DH@?$__crt_char_traits@D@@SAK$$QA$$TAAY0BAF@D$$QAH@Z 100330e0 f i libucrt:argv_parsing.obj
 0001:000320fc       ??$get_module_file_name@$$TAAY0BAF@_WH@?$__crt_char_traits@_W@@SAK$$QA$$TAAY0BAF@_W$$QAH@Z 100330fc f i libucrt:argv_parsing.obj
 0001:0003241e       ??$set_program_name@PAD@?$__crt_char_traits@D@@SAX$$QAPAD@Z 1003341e f i libucrt:argv_parsing.obj
 0001:0003242f       ??$set_program_name@PA_W@?$__crt_char_traits@_W@@SAX$$QAPA_W@Z 1003342f f i libucrt:argv_parsing.obj
 0001:00032460       ??0?$__crt_unique_heap_ptr@EU__crt_internal_free_policy@@@@QAE@QAE@Z 10033460 f i libucrt:argv_parsing.obj
 0001:00032470       ??0?$__crt_unique_heap_ptr@PADU__crt_internal_free_policy@@@@QAE@QAPAD@Z 10033470 f i libucrt:argv_parsing.obj
 0001:00032480       ??0?$__crt_unique_heap_ptr@PA_WU__crt_internal_free_policy@@@@QAE@QAPA_W@Z 10033480 f i libucrt:argv_parsing.obj
 0001:00032490       ??1?$__crt_unique_heap_ptr@EU__crt_internal_free_policy@@@@QAE@XZ 10033490 f i libucrt:argv_parsing.obj
 0001:000324a2       ??1?$__crt_unique_heap_ptr@PADU__crt_internal_free_policy@@@@QAE@XZ 100334a2 f i libucrt:argv_parsing.obj
 0001:000324b4       ??1?$__crt_unique_heap_ptr@PA_WU__crt_internal_free_policy@@@@QAE@XZ 100334b4 f i libucrt:argv_parsing.obj
 0001:000324c6       ??B?$__crt_unique_heap_ptr@EU__crt_internal_free_policy@@@@QBE_NXZ 100334c6 f i libucrt:argv_parsing.obj
 0001:000324f9       ?detach@?$__crt_unique_heap_ptr@EU__crt_internal_free_policy@@@@QAEPAEXZ 100334f9 f i libucrt:argv_parsing.obj
 0001:000324ff       ?detach@?$__crt_unique_heap_ptr@PADU__crt_internal_free_policy@@@@QAEPAPADXZ 100334ff f i libucrt:argv_parsing.obj
 0001:00032505       ?detach@?$__crt_unique_heap_ptr@PA_WU__crt_internal_free_policy@@@@QAEPAPA_WXZ 10033505 f i libucrt:argv_parsing.obj
 0001:00032529       ?get@?$__crt_unique_heap_ptr@EU__crt_internal_free_policy@@@@QBEPAEXZ 10033529 f i libucrt:argv_parsing.obj
 0001:0003252c       ?get@?$__crt_unique_heap_ptr@PADU__crt_internal_free_policy@@@@QBEPAPADXZ 1003352c f i libucrt:argv_parsing.obj
 0001:0003252f       ?get@?$__crt_unique_heap_ptr@PA_WU__crt_internal_free_policy@@@@QBEPAPA_WXZ 1003352f f i libucrt:argv_parsing.obj
 0001:00032532       ?get_address_of@?$__crt_unique_heap_ptr@PADU__crt_internal_free_policy@@@@QAEPAPAPADXZ 10033532 f i libucrt:argv_parsing.obj
 0001:00032535       ?get_address_of@?$__crt_unique_heap_ptr@PA_WU__crt_internal_free_policy@@@@QAEPAPAPA_WXZ 10033535 f i libucrt:argv_parsing.obj
 0001:00032550       ?is_valid@?$__crt_unique_heap_ptr@EU__crt_internal_free_policy@@@@QBE_NXZ 10033550 f i libucrt:argv_parsing.obj
 0001:00032557       ?release@?$__crt_unique_heap_ptr@EU__crt_internal_free_policy@@@@QAEXXZ 10033557 f i libucrt:argv_parsing.obj
 0001:00032569       ?release@?$__crt_unique_heap_ptr@PADU__crt_internal_free_policy@@@@QAEXXZ 10033569 f i libucrt:argv_parsing.obj
 0001:0003257b       ?release@?$__crt_unique_heap_ptr@PA_WU__crt_internal_free_policy@@@@QAEXXZ 1003357b f i libucrt:argv_parsing.obj
 0001:000325a7       ___acrt_allocate_buffer_for_argv 100335a7 f   libucrt:argv_parsing.obj
 0001:000325f6       __configure_narrow_argv    100335f6 f   libucrt:argv_parsing.obj
 0001:00032601       __configure_wide_argv      10033601 f   libucrt:argv_parsing.obj
 0001:0003260c       __set_pgmptr               1003360c f i libucrt:argv_parsing.obj
 0001:0003261b       __set_wpgmptr              1003361b f i libucrt:argv_parsing.obj
 0001:00032a03       ??$get_environment_from_os@$$V@?$__crt_char_traits@D@@SAPADXZ 10033a03 f i libucrt:environment_initialization.obj
 0001:00032a08       ??$get_environment_from_os@$$V@?$__crt_char_traits@_W@@SAPA_WXZ 10033a08 f i libucrt:environment_initialization.obj
 0001:00032b0d       ??$set_variable_in_environment_nolock@PADH@?$__crt_char_traits@D@@SAH$$QAPAD$$QAH@Z 10033b0d f i libucrt:environment_initialization.obj
 0001:00032b25       ??$set_variable_in_environment_nolock@PA_WH@?$__crt_char_traits@_W@@SAH$$QAPA_W$$QAH@Z 10033b25 f i libucrt:environment_initialization.obj
 0001:00032b3d       ??$tcscpy_s@PADABIAAPAD@?$__crt_char_traits@D@@SAH$$QAPADABIAAPAD@Z 10033b3d f i libucrt:environment_initialization.obj
 0001:00032b5b       ??$tcscpy_s@PA_WABIAAPA_W@?$__crt_char_traits@_W@@SAH$$QAPA_WABIAAPA_W@Z 10033b5b f i libucrt:environment_initialization.obj
 0001:00032b79       ??$tcslen@AAPAD@?$__crt_char_traits@D@@SAIAAPAD@Z 10033b79 f i libucrt:environment_initialization.obj
 0001:00032b91       ??$tcslen@AAPA_W@?$__crt_char_traits@_W@@SAIAAPA_W@Z 10033b91 f i libucrt:environment_initialization.obj
 0001:00032baf       ??$uninitialize@A6AXAAPAPAD@Z@?$dual_state_global@PAPAD@__crt_state_management@@QAEXA6AXAAPAPAD@Z@Z 10033baf f i libucrt:environment_initialization.obj
 0001:00032bd8       ??$uninitialize@A6AXAAPAPA_W@Z@?$dual_state_global@PAPA_W@__crt_state_management@@QAEXA6AXAAPAPA_W@Z@Z 10033bd8 f i libucrt:environment_initialization.obj
 0001:00032c37       ??B?$__crt_unique_heap_ptr@PADU__crt_internal_free_policy@@@@QBE_NXZ 10033c37 f i libucrt:environment_initialization.obj
 0001:00032c3e       ??B?$__crt_unique_heap_ptr@PA_WU__crt_internal_free_policy@@@@QBE_NXZ 10033c3e f i libucrt:environment_initialization.obj
 0001:00032c45       ??B?$__crt_unique_heap_ptr@_WU__crt_internal_free_policy@@@@QBE_NXZ 10033c45 f i libucrt:environment_initialization.obj
 0001:00032c4c       ?__crt_compute_required_transform_buffer_count@@YAIIQBD@Z 10033c4c f i libucrt:environment_initialization.obj
 0001:00032c68       ?__crt_compute_required_transform_buffer_count@@YAIIQB_W@Z 10033c68 f i libucrt:environment_initialization.obj
 0001:00032c86       ?__crt_transform_string@@YAIIQBDQA_WI@Z 10033c86 f i libucrt:environment_initialization.obj
 0001:00032ca5       ?__crt_transform_string@@YAIIQB_WQADI@Z 10033ca5 f i libucrt:environment_initialization.obj
 0001:00032cc7       ?get@?$__crt_unique_heap_ptr@_WU__crt_internal_free_policy@@@@QBEPA_WXZ 10033cc7 f i libucrt:environment_initialization.obj
 0001:00032cca       ?get_current_state_index@__crt_state_management@@YAIXZ 10033cca f i libucrt:environment_initialization.obj
 0001:00032cf1       ?initialize@?$dual_state_global@PAPAD@__crt_state_management@@QAEXQAPAD@Z 10033cf1 f i libucrt:environment_initialization.obj
 0001:00032d17       ?initialize@?$dual_state_global@PAPA_W@__crt_state_management@@QAEXQAPA_W@Z 10033d17 f i libucrt:environment_initialization.obj
 0001:00032d3d       ?is_valid@?$__crt_unique_heap_ptr@PADU__crt_internal_free_policy@@@@QBE_NXZ 10033d3d f i libucrt:environment_initialization.obj
 0001:00032d44       ?is_valid@?$__crt_unique_heap_ptr@PA_WU__crt_internal_free_policy@@@@QBE_NXZ 10033d44 f i libucrt:environment_initialization.obj
 0001:00032d4b       ?is_valid@?$__crt_unique_heap_ptr@_WU__crt_internal_free_policy@@@@QBE_NXZ 10033d4b f i libucrt:environment_initialization.obj
 0001:00032d5a       ?value@?$dual_state_global@PAPAD@__crt_state_management@@QAEAAPAPADXZ 10033d5a f i libucrt:environment_initialization.obj
 0001:00032d5d       ?value@?$dual_state_global@PAPA_W@__crt_state_management@@QAEAAPAPA_WXZ 10033d5d f i libucrt:environment_initialization.obj
 0001:00032d60       ___dcrt_get_or_create_narrow_environment_nolock 10033d60 f   libucrt:environment_initialization.obj
 0001:00032d65       ___dcrt_get_or_create_wide_environment_nolock 10033d65 f   libucrt:environment_initialization.obj
 0001:00032d6a       ___dcrt_uninitialize_environments_nolock 10033d6a f   libucrt:environment_initialization.obj
 0001:00032da1       ___p__environ              10033da1 f   libucrt:environment_initialization.obj
 0001:00032da7       ___p__wenviron             10033da7 f   libucrt:environment_initialization.obj
 0001:00032dad       __get_initial_narrow_environment 10033dad f   libucrt:environment_initialization.obj
 0001:00032dc1       __get_initial_wide_environment 10033dc1 f   libucrt:environment_initialization.obj
 0001:00032dd5       __initialize_narrow_environment 10033dd5 f   libucrt:environment_initialization.obj
 0001:00032dda       __initialize_wide_environment 10033dda f   libucrt:environment_initialization.obj
 0001:00032ddf       ??$?B$$A6AXXZ@__crt_fast_encoded_nullptr_t@@QBEP6AXXZXZ 10033ddf f i libucrt:onexit.obj
 0001:00032de5       ??$?BP6AXXZ@__crt_fast_encoded_nullptr_t@@QBEPAP6AXXZXZ 10033de5 f i libucrt:onexit.obj
 0001:00032deb       ??$?RP6AXXZ@__crt_internal_free_policy@@QBEXQBQ6AXXZ@Z 10033deb f i libucrt:onexit.obj
 0001:00032eff       ??$__crt_fast_decode_pointer@P6AXXZ@@YAP6AXXZQ6AXXZ@Z 10033eff f i libucrt:onexit.obj
 0001:00032f15       ??$__crt_fast_decode_pointer@PAP6AXXZ@@YAPAP6AXXZQAP6AXXZ@Z 10033f15 f i libucrt:onexit.obj
 0001:00032f2b       ??$__crt_fast_encode_pointer@P6AHXZ@@YAP6AHXZQ6AHXZ@Z 10033f2b f i libucrt:onexit.obj
 0001:00032f4a       ??$__crt_fast_encode_pointer@P6AXXZ@@YAP6AXXZQ6AXXZ@Z 10033f4a f i libucrt:onexit.obj
 0001:00032f69       ??$__crt_fast_encode_pointer@PAP6AXXZ@@YAPAP6AXXZQAP6AXXZ@Z 10033f69 f i libucrt:onexit.obj
 0001:00032ff6       ??0?$__crt_unique_heap_ptr@P6AXXZU__crt_internal_free_policy@@@@QAE@QAP6AXXZ@Z 10033ff6 f i libucrt:onexit.obj
 0001:00033006       ??1?$__crt_unique_heap_ptr@P6AXXZU__crt_internal_free_policy@@@@QAE@XZ 10034006 f i libucrt:onexit.obj
 0001:00033018       ??1scoped_global_state_reset@__crt_state_management@@QAE@XZ 10034018 f i libucrt:onexit.obj
 0001:00033242       ?detach@?$__crt_unique_heap_ptr@P6AXXZU__crt_internal_free_policy@@@@QAEPAP6AXXZXZ 10034242 f i libucrt:onexit.obj
 0001:00033248       ?release@?$__crt_unique_heap_ptr@P6AXXZU__crt_internal_free_policy@@@@QAEXXZ 10034248 f i libucrt:onexit.obj
 0001:0003325a       __crt_at_quick_exit        1003425a f   libucrt:onexit.obj
 0001:00033270       __crt_atexit               10034270 f   libucrt:onexit.obj
 0001:00033286       __execute_onexit_table     10034286 f   libucrt:onexit.obj
 0001:000332b3       __initialize_onexit_table  100342b3 f   libucrt:onexit.obj
 0001:000332dc       __register_onexit_function 100342dc f   libucrt:onexit.obj
 0001:000333eb       ??$?BX@__crt_fast_encoded_nullptr_t@@QBEPAXXZ 100343eb f i libucrt:initialization.obj
 0001:000333f1       ??$__crt_fast_encode_pointer@PAX@@YAPAXQAX@Z 100343f1 f i libucrt:initialization.obj
 0001:00033462       ?__acrt_stdio_is_initialized@@YA_NXZ 10034462 f i libucrt:initialization.obj
 0001:0003346d       ?initialize@?$dual_state_global@PAU__crt_locale_data@@@__crt_state_management@@QAEXQAU__crt_locale_data@@@Z 1003446d f i libucrt:initialization.obj
 0001:00033493       ___acrt_initialize         10034493 f   libucrt:initialization.obj
 0001:000334a5       ___acrt_thread_attach      100344a5 f   libucrt:initialization.obj
 0001:000334b0       ___acrt_thread_detach      100344b0 f   libucrt:initialization.obj
 0001:000334b8       ___acrt_uninitialize       100344b8 f   libucrt:initialization.obj
 0001:000334e8       ___acrt_uninitialize_critical 100344e8 f   libucrt:initialization.obj
 0001:00033510       __get_terminate            10034510 f   libucrt:terminate.obj
 0001:00033522       _set_terminate             10034522 f   libucrt:terminate.obj
 0001:00033542       _terminate                 10034542 f   libucrt:terminate.obj
 0001:000335d8       _strcpy_s                  100345d8 f   libucrt:strcpy_s.obj
 0001:00033632       __set_abort_behavior       10034632 f   libucrt:abort.obj
 0001:00033653       _abort                     10034653 f   libucrt:abort.obj
 0001:00033697       ??$is_overflow_condition@K@__crt_strtox@@YA_NIK@Z 10034697 f i libucrt:atox.obj
 0001:000336c8       ??$is_overflow_condition@_K@__crt_strtox@@YA_NI_K@Z 100346c8 f i libucrt:atox.obj
 0001:00033709       ??$make_c_string_character_source@D$$T@__crt_strtox@@YA?AV?$c_string_character_source@D@0@QBD$$T@Z 10034709 f i libucrt:atox.obj
 0001:00033724       ??$make_c_string_character_source@_W$$T@__crt_strtox@@YA?AV?$c_string_character_source@_W@0@QB_W$$T@Z 10034724 f i libucrt:atox.obj
 0001:0003373f       ??$parse_integer@KV?$c_string_character_source@D@__crt_strtox@@@__crt_strtox@@YAKQAU__crt_locale_pointers@@V?$c_string_character_source@D@0@H_N@Z 1003473f f i libucrt:atox.obj
 0001:00033962       ??$parse_integer@KV?$c_string_character_source@_W@__crt_strtox@@@__crt_strtox@@YAKQAU__crt_locale_pointers@@V?$c_string_character_source@_W@0@H_N@Z 10034962 f i libucrt:atox.obj
 0001:00033f6a       ??$parse_integer@_KV?$c_string_character_source@D@__crt_strtox@@@__crt_strtox@@YA_KQAU__crt_locale_pointers@@V?$c_string_character_source@D@0@H_N@Z 10034f6a f i libucrt:atox.obj
 0001:00034210       ??$parse_integer@_KV?$c_string_character_source@_W@__crt_strtox@@@__crt_strtox@@YA_KQAU__crt_locale_pointers@@V?$c_string_character_source@_W@0@H_N@Z 10035210 f i libucrt:atox.obj
 0001:000348e1       ??$parse_integer_from_string@JD$$T@__crt_strtox@@YAJQBD$$THQAU__crt_locale_pointers@@@Z 100358e1 f i libucrt:atox.obj
 0001:0003490c       ??$parse_integer_from_string@J_W$$T@__crt_strtox@@YAJQB_W$$THQAU__crt_locale_pointers@@@Z 1003590c f i libucrt:atox.obj
 0001:00034937       ??$parse_integer_from_string@_JD$$T@__crt_strtox@@YA_JQBD$$THQAU__crt_locale_pointers@@@Z 10035937 f i libucrt:atox.obj
 0001:00034962       ??$parse_integer_from_string@_J_W$$T@__crt_strtox@@YA_JQB_W$$THQAU__crt_locale_pointers@@@Z 10035962 f i libucrt:atox.obj
 0001:0003498d       ??0?$c_string_character_source@D@__crt_strtox@@QAE@QBDQAPBD@Z 1003598d f i libucrt:atox.obj
 0001:000349a9       ??0?$c_string_character_source@_W@__crt_strtox@@QAE@QB_WQAPB_W@Z 100359a9 f i libucrt:atox.obj
 0001:000349c5       ??1?$c_string_character_source@D@__crt_strtox@@QAE@XZ 100359c5 f i libucrt:atox.obj
 0001:000349d1       ??1?$c_string_character_source@_W@__crt_strtox@@QAE@XZ 100359d1 f i libucrt:atox.obj
 0001:000349dd       ?get@?$c_string_character_source@D@__crt_strtox@@QAEDXZ 100359dd f i libucrt:atox.obj
 0001:000349e5       ?get@?$c_string_character_source@_W@__crt_strtox@@QAE_WXZ 100359e5 f i libucrt:atox.obj
 0001:000349f0       ?is_space@__crt_strtox@@YA_NDQAU__crt_locale_pointers@@@Z 100359f0 f i libucrt:atox.obj
 0001:00034a0e       ?is_space@__crt_strtox@@YA_N_WPAU__crt_locale_pointers@@@Z 10035a0e f i libucrt:atox.obj
 0001:00034a26       ?maximum_signed_value@__crt_strtox@@YAJK@Z 10035a26 f i libucrt:atox.obj
 0001:00034a2c       ?maximum_signed_value@__crt_strtox@@YA_J_K@Z 10035a2c f i libucrt:atox.obj
 0001:00034a35       ?minimum_signed_value@__crt_strtox@@YAJK@Z 10035a35 f i libucrt:atox.obj
 0001:00034a3b       ?minimum_signed_value@__crt_strtox@@YA_J_K@Z 10035a3b f i libucrt:atox.obj
 0001:00034a43       ?parse_digit@__crt_strtox@@YAID@Z 10035a43 f i libucrt:atox.obj
 0001:00034a7d       ?parse_digit@__crt_strtox@@YAI_W@Z 10035a7d f i libucrt:atox.obj
 0001:00034c5c       ?restore_state@?$c_string_character_source@D@__crt_strtox@@QAE_NQBD@Z 10035c5c f i libucrt:atox.obj
 0001:00034c6c       ?restore_state@?$c_string_character_source@_W@__crt_strtox@@QAE_NQB_W@Z 10035c6c f i libucrt:atox.obj
 0001:00034c7c       ?save_state@?$c_string_character_source@D@__crt_strtox@@QBEPBDXZ 10035c7c f i libucrt:atox.obj
 0001:00034c7f       ?save_state@?$c_string_character_source@_W@__crt_strtox@@QBEPB_WXZ 10035c7f f i libucrt:atox.obj
 0001:00034c82       ?unget@?$c_string_character_source@D@__crt_strtox@@QAEXD@Z 10035c82 f i libucrt:atox.obj
 0001:00034cab       ?unget@?$c_string_character_source@_W@__crt_strtox@@QAEX_W@Z 10035cab f i libucrt:atox.obj
 0001:00034cd9       ?validate@?$c_string_character_source@D@__crt_strtox@@QBE_NXZ 10035cd9 f i libucrt:atox.obj
 0001:00034cf4       ?validate@?$c_string_character_source@_W@__crt_strtox@@QBE_NXZ 10035cf4 f i libucrt:atox.obj
 0001:00034d0f       ?wide_character_to_digit@__crt_strtox@@YAH_W@Z 10035d0f f i libucrt:atox.obj
 0001:00034eb0       ___acrt_get_locale_data_prefix 10035eb0 f i libucrt:atox.obj
 0001:00034ebc       ___ascii_iswalpha          10035ebc f i libucrt:atox.obj
 0001:00034edf       ___ascii_toupper           10035edf f i libucrt:atox.obj
 0001:00034ef6       ___ascii_towupper          10035ef6 f i libucrt:atox.obj
 0001:00034f0d       __atoi64                   10035f0d f   libucrt:atox.obj
 0001:00034f30       __atoi64_l                 10035f30 f   libucrt:atox.obj
 0001:00034f54       __atoi_l                   10035f54 f   libucrt:atox.obj
 0001:00034f78       __atol_l                   10035f78 f   libucrt:atox.obj
 0001:00034f9c       __atoll_l                  10035f9c f   libucrt:atox.obj
 0001:00034fc0       __chvalidchk_l             10035fc0 f i libucrt:atox.obj
 0001:00034fe8       __ischartype_l             10035fe8 f i libucrt:atox.obj
 0001:0003503c       __wtoi                     1003603c f   libucrt:atox.obj
 0001:0003505f       __wtoi64                   1003605f f   libucrt:atox.obj
 0001:00035082       __wtoi64_l                 10036082 f   libucrt:atox.obj
 0001:000350a6       __wtoi_l                   100360a6 f   libucrt:atox.obj
 0001:000350ca       __wtol                     100360ca f   libucrt:atox.obj
 0001:000350ed       __wtol_l                   100360ed f   libucrt:atox.obj
 0001:00035111       __wtoll                    10036111 f   libucrt:atox.obj
 0001:00035134       __wtoll_l                  10036134 f   libucrt:atox.obj
 0001:00035158       _atoi                      10036158 f   libucrt:atox.obj
 0001:0003517b       _atol                      1003617b f   libucrt:atox.obj
 0001:0003519e       _atoll                     1003619e f   libucrt:atox.obj
 0001:000351d0       _strncmp                   100361d0 f   libucrt:strncmp.obj
 0001:00035248       _calloc                    10036248 f   libucrt:calloc.obj
 0001:00035253       _wcsncmp                   10036253 f   libucrt:wcsncmp.obj
 0001:0003528d       ??$__crt_fast_decode_pointer@P6AXPB_W00II@Z@@YAP6AXPB_W00II@ZQ6AX000II@Z@Z 1003628d f i libucrt:invalid_parameter.obj
 0001:000352a3       ??$__crt_fast_encode_pointer@P6AXPB_W00II@Z@@YAP6AXPB_W00II@ZQ6AX000II@Z@Z 100362a3 f i libucrt:invalid_parameter.obj
 0001:000352c2       ??$initialize_from_array@$$BY00Q6AXPB_W00II@Z@?$dual_state_global@P6AXPB_W00II@Z@__crt_state_management@@QAAXAAY00Q6AXPB_W00II@Z@Z 100362c2 f i libucrt:invalid_parameter.obj
 0001:000352d3       ?dangerous_get_state_array@?$dual_state_global@P6AXPB_W00II@Z@__crt_state_management@@QAEPAP6AXPB_W00II@ZXZ 100362d3 f i libucrt:invalid_parameter.obj
 0001:000352d6       ?value@?$dual_state_global@P6AXPB_W00II@Z@__crt_state_management@@QAEAAP6AXPB_W00II@ZXZ 100362d6 f i libucrt:invalid_parameter.obj
 0001:000352d9       ___acrt_call_reportfault   100362d9 f   libucrt:invalid_parameter.obj
 0001:00035412       ___acrt_initialize_invalid_parameter_handler 10036412 f   libucrt:invalid_parameter.obj
 0001:00035421       __get_invalid_parameter_handler 10036421 f   libucrt:invalid_parameter.obj
 0001:00035434       __get_thread_local_invalid_parameter_handler 10036434 f   libucrt:invalid_parameter.obj
 0001:00035445       __invalid_parameter        10036445 f   libucrt:invalid_parameter.obj
 0001:000354a9       __invalid_parameter_noinfo 100364a9 f   libucrt:invalid_parameter.obj
 0001:000354b9       __invalid_parameter_noinfo_noreturn 100364b9 f   libucrt:invalid_parameter.obj
 0001:000354d6       __invoke_watson            100364d6 f   libucrt:invalid_parameter.obj
 0001:0003550a       __set_invalid_parameter_handler 1003650a f   libucrt:invalid_parameter.obj
 0001:0003553a       __set_thread_local_invalid_parameter_handler 1003653a f   libucrt:invalid_parameter.obj
 0001:00035557       ??$?RU__crt_lowio_handle_data@@@__crt_internal_free_policy@@QBEXQBU__crt_lowio_handle_data@@@Z 10036557 f i libucrt:osfinfo.obj
 0001:00035569       ??0?$__crt_unique_heap_ptr@U__crt_lowio_handle_data@@U__crt_internal_free_policy@@@@QAE@QAU__crt_lowio_handle_data@@@Z 10036569 f i libucrt:osfinfo.obj
 0001:00035579       ??1?$__crt_unique_heap_ptr@U__crt_lowio_handle_data@@U__crt_internal_free_policy@@@@QAE@XZ 10036579 f i libucrt:osfinfo.obj
 0001:0003558b       ??B?$__crt_unique_heap_ptr@U__crt_lowio_handle_data@@U__crt_internal_free_policy@@@@QBE_NXZ 1003658b f i libucrt:osfinfo.obj
 0001:00035592       ?detach@?$__crt_unique_heap_ptr@U__crt_lowio_handle_data@@U__crt_internal_free_policy@@@@QAEPAU__crt_lowio_handle_data@@XZ 10036592 f i libucrt:osfinfo.obj
 0001:00035598       ?get@?$__crt_unique_heap_ptr@U__crt_lowio_handle_data@@U__crt_internal_free_policy@@@@QBEPAU__crt_lowio_handle_data@@XZ 10036598 f i libucrt:osfinfo.obj
 0001:0003559b       ?is_valid@?$__crt_unique_heap_ptr@U__crt_lowio_handle_data@@U__crt_internal_free_policy@@@@QBE_NXZ 1003659b f i libucrt:osfinfo.obj
 0001:000355a2       ?release@?$__crt_unique_heap_ptr@U__crt_lowio_handle_data@@U__crt_internal_free_policy@@@@QAEXXZ 100365a2 f i libucrt:osfinfo.obj
 0001:000355b4       ___acrt_lowio_create_handle_array 100365b4 f   libucrt:osfinfo.obj
 0001:0003562f       ___acrt_lowio_destroy_handle_array 1003662f f   libucrt:osfinfo.obj
 0001:00035664       ___acrt_lowio_ensure_fh_exists 10036664 f   libucrt:osfinfo.obj
 0001:00035702       ___acrt_lowio_lock_fh      10036702 f   libucrt:osfinfo.obj
 0001:00035725       ___acrt_lowio_set_os_handle 10036725 f   libucrt:osfinfo.obj
 0001:000357b7       ___acrt_lowio_unlock_fh    100367b7 f   libucrt:osfinfo.obj
 0001:000357da       __alloc_osfhnd             100367da f   libucrt:osfinfo.obj
 0001:000358ed       __free_osfhnd              100368ed f   libucrt:osfinfo.obj
 0001:0003597e       __get_osfhandle            1003697e f   libucrt:osfinfo.obj
 0001:000359e8       __open_osfhandle           100369e8 f   libucrt:osfinfo.obj
 0001:00035c8a       ___acrt_initialize_lowio   10036c8a f   libucrt:ioinit.obj
 0001:00035cea       ___acrt_uninitialize_lowio 10036cea f   libucrt:ioinit.obj
 0001:00035d1c       __free_base                10036d1c f   libucrt:free_base.obj
 0001:00035d56       __malloc_base              10036d56 f   libucrt:malloc_base.obj
 0001:00035da4       ??$__crt_interlocked_read@H@@YAHPDH@Z 10036da4 f i libucrt:setmode.obj
 0001:00035db1       ?value@?$dual_state_global@H@__crt_state_management@@QAEAAHXZ 10036db1 f i libucrt:setmode.obj
 0001:00035db4       __get_fmode                10036db4 f   libucrt:setmode.obj
 0001:00035de1       __set_fmode                10036de1 f   libucrt:setmode.obj
 0001:00035e1e       __setmode                  10036e1e f   libucrt:setmode.obj
 0001:00035f2f       __setmode_nolock           10036f2f f   libucrt:setmode.obj
 0001:00036066       ___acrt_MultiByteToWideChar 10037066 f   libucrt:multibytetowidechar.obj
 0001:000360e2       ??$?RU__acrt_ptd@@@__crt_internal_free_policy@@QBEXQBU__acrt_ptd@@@Z 100370e2 f i libucrt:per_thread_data.obj
 0001:000363ce       ??0?$__crt_unique_heap_ptr@U__acrt_ptd@@U__crt_internal_free_policy@@@@QAE@QAU__acrt_ptd@@@Z 100373ce f i libucrt:per_thread_data.obj
 0001:000363de       ??0__crt_scoped_get_last_error_reset@@QAE@XZ 100373de f i libucrt:per_thread_data.obj
 0001:000363ef       ??1?$__crt_unique_heap_ptr@U__acrt_ptd@@U__crt_internal_free_policy@@@@QAE@XZ 100373ef f i libucrt:per_thread_data.obj
 0001:00036401       ??1__crt_scoped_get_last_error_reset@@QAE@XZ 10037401 f i libucrt:per_thread_data.obj
 0001:0003640a       ??B?$__crt_unique_heap_ptr@U__acrt_ptd@@U__crt_internal_free_policy@@@@QBE_NXZ 1003740a f i libucrt:per_thread_data.obj
 0001:00036558       ?dangerous_get_state_array@?$dual_state_global@PAU__crt_locale_data@@@__crt_state_management@@QAEPAPAU__crt_locale_data@@XZ 10037558 f i libucrt:per_thread_data.obj
 0001:0003664e       ?detach@?$__crt_unique_heap_ptr@U__acrt_ptd@@U__crt_internal_free_policy@@@@QAEPAU__acrt_ptd@@XZ 1003764e f i libucrt:per_thread_data.obj
 0001:00036654       ?get@?$__crt_unique_heap_ptr@U__acrt_ptd@@U__crt_internal_free_policy@@@@QBEPAU__acrt_ptd@@XZ 10037654 f i libucrt:per_thread_data.obj
 0001:00036657       ?get_current_state_index@__crt_state_management@@YAIABV__crt_scoped_get_last_error_reset@@@Z 10037657 f i libucrt:per_thread_data.obj
 0001:0003678c       ?is_valid@?$__crt_unique_heap_ptr@U__acrt_ptd@@U__crt_internal_free_policy@@@@QBE_NXZ 1003778c f i libucrt:per_thread_data.obj
 0001:00036793       ?release@?$__crt_unique_heap_ptr@U__acrt_ptd@@U__crt_internal_free_policy@@@@QAEXXZ 10037793 f i libucrt:per_thread_data.obj
 0001:00036807       ?value@?$dual_state_global@PAU__crt_locale_data@@@__crt_state_management@@QAEAAPAU__crt_locale_data@@XZ 10037807 f i libucrt:per_thread_data.obj
 0001:0003680a       ___acrt_freeptd            1003780a f   libucrt:per_thread_data.obj
 0001:00036836       ___acrt_getptd             10037836 f   libucrt:per_thread_data.obj
 0001:000368f3       ___acrt_getptd_head        100378f3 f   libucrt:per_thread_data.obj
 0001:0003698d       ___acrt_getptd_noexit      1003798d f   libucrt:per_thread_data.obj
 0001:00036a42       ___acrt_initialize_ptd     10037a42 f   libucrt:per_thread_data.obj
 0001:00036a6e       ___acrt_uninitialize_ptd   10037a6e f   libucrt:per_thread_data.obj
 0001:00036a88       ___threadhandle            10037a88 f   libucrt:per_thread_data.obj
 0001:00036a8e       ___threadid                10037a8e f   libucrt:per_thread_data.obj
 0001:00036aa1       ??$?B$$A6GHPA_WKJ@Z@__crt_fast_encoded_nullptr_t@@QBEP6GHPA_WKJ@ZXZ 10037aa1 f i libucrt:winapi_thunks.obj
 0001:00036b49       ??$__crt_fast_decode_pointer@P6GHPA_WKJ@Z@@YAP6GHPA_WKJ@ZQ6GH0KJ@Z@Z 10037b49 f i libucrt:winapi_thunks.obj
 0001:00036b5f       ??$__crt_fast_decode_pointer@PAX@@YAPAXQAX@Z 10037b5f f i libucrt:winapi_thunks.obj
 0001:00036b75       ??$__crt_fast_encode_pointer@P6GHPA_WKJ@Z@@YAP6GHPA_WKJ@ZQ6GH0KJ@Z@Z 10037b75 f i libucrt:winapi_thunks.obj
 0001:00037201       _GetCurrentThreadEffectiveToken 10038201 f i libucrt:winapi_thunks.obj
 0001:00037205       ___acrt_AppPolicyGetProcessTerminationMethodInternal@4 10038205 f   libucrt:winapi_thunks.obj
 0001:00037245       ___acrt_AppPolicyGetShowDeveloperDiagnosticInternal@4 10038245 f   libucrt:winapi_thunks.obj
 0001:00037285       ___acrt_AppPolicyGetThreadInitializationTypeInternal@4 10038285 f   libucrt:winapi_thunks.obj
 0001:000372c5       ___acrt_AppPolicyGetWindowingModelInternal@4 100382c5 f   libucrt:winapi_thunks.obj
 0001:00037305       ___acrt_AreFileApisANSI@0  10038305 f   libucrt:winapi_thunks.obj
 0001:00037324       ___acrt_CompareStringEx@36 10038324 f   libucrt:winapi_thunks.obj
 0001:00037381       ___acrt_EnumSystemLocalesEx@16 10038381 f   libucrt:winapi_thunks.obj
 0001:000373d5       ___acrt_FlsAlloc@4         100383d5 f   libucrt:winapi_thunks.obj
 0001:00037414       ___acrt_FlsFree@4          10038414 f   libucrt:winapi_thunks.obj
 0001:00037453       ___acrt_FlsGetValue@4      10038453 f   libucrt:winapi_thunks.obj
 0001:00037492       ___acrt_FlsSetValue@8      10038492 f   libucrt:winapi_thunks.obj
 0001:000374d4       ___acrt_GetDateFormatEx@28 100384d4 f   libucrt:winapi_thunks.obj
 0001:0003752b       ___acrt_GetEnabledXStateFeatures@0 1003852b f   libucrt:winapi_thunks.obj
 0001:0003755f       ___acrt_GetLocaleInfoEx@16 1003855f f   libucrt:winapi_thunks.obj
 0001:0003759e       ___acrt_GetSystemTimePreciseAsFileTime@4 1003859e f   libucrt:winapi_thunks.obj
 0001:000375dd       ___acrt_GetTimeFormatEx@24 100385dd f   libucrt:winapi_thunks.obj
 0001:00037622       ___acrt_GetUserDefaultLocaleName@8 10038622 f   libucrt:winapi_thunks.obj
 0001:0003765e       ___acrt_GetXStateFeaturesMask@8 1003865e f   libucrt:winapi_thunks.obj
 0001:0003769e       ___acrt_InitializeCriticalSectionEx@12 1003869e f   libucrt:winapi_thunks.obj
 0001:000376e9       ___acrt_IsValidLocaleName@4 100386e9 f   libucrt:winapi_thunks.obj
 0001:00037721       ___acrt_LCIDToLocaleName@16 10038721 f   libucrt:winapi_thunks.obj
 0001:00037760       ___acrt_LCMapStringEx@36   10038760 f   libucrt:winapi_thunks.obj
 0001:000377bd       ___acrt_LocaleNameToLCID@8 100387bd f   libucrt:winapi_thunks.obj
 0001:000377ee       ___acrt_LocateXStateFeature@12 100387ee f   libucrt:winapi_thunks.obj
 0001:0003781d       ___acrt_MessageBoxA@16     1003881d f   libucrt:winapi_thunks.obj
 0001:0003784f       ___acrt_MessageBoxW@16     1003884f f   libucrt:winapi_thunks.obj
 0001:00037881       ___acrt_RoInitialize@4     10038881 f   libucrt:winapi_thunks.obj
 0001:000378bc       ___acrt_RoUninitialize@0   100388bc f   libucrt:winapi_thunks.obj
 0001:000378ea       ___acrt_RtlGenRandom@8     100388ea f   libucrt:winapi_thunks.obj
 0001:0003792a       ___acrt_SetThreadStackGuarantee@4 1003892a f   libucrt:winapi_thunks.obj
 0001:00037965       ___acrt_can_show_message_box 10038965 f   libucrt:winapi_thunks.obj
 0001:0003798c       ___acrt_can_use_vista_locale_apis 1003898c f   libucrt:winapi_thunks.obj
 0001:00037997       ___acrt_can_use_xstate_apis 10038997 f   libucrt:winapi_thunks.obj
 0001:000379a2       ___acrt_eagerly_load_locale_apis 100389a2 f   libucrt:winapi_thunks.obj
 0001:000379d9       ___acrt_get_parent_window  100389d9 f   libucrt:winapi_thunks.obj
 0001:00037a41       ___acrt_initialize_winapi_thunks 10038a41 f   libucrt:winapi_thunks.obj
 0001:00037a6c       ___acrt_is_interactive     10038a6c f   libucrt:winapi_thunks.obj
 0001:00037b0b       ___acrt_uninitialize_winapi_thunks 10038b0b f   libucrt:winapi_thunks.obj
 0001:00037b41       ?value@?$dual_state_global@PAU__crt_multibyte_data@@@__crt_state_management@@QAEAAPAU__crt_multibyte_data@@XZ 10038b41 f i libucrt:locale_update.obj
 0001:00037b44       ___acrt_should_sync_with_global_locale 10038b44 f i libucrt:locale_update.obj
 0001:00037b60       ___acrt_update_locale_info 10038b60 f   libucrt:locale_update.obj
 0001:00037b8d       ___acrt_update_multibyte_info 10038b8d f   libucrt:locale_update.obj
 0001:00037cac       ??0__crt_seek_guard@@QAE@H_J@Z 10038cac f i libucrt:chsize.obj
 0001:00037cf9       ??1__crt_seek_guard@@QAE@XZ 10038cf9 f i libucrt:chsize.obj
 0001:00037d61       __chsize                   10038d61 f   libucrt:chsize.obj
 0001:00037d7d       __chsize_nolock            10038d7d f   libucrt:chsize.obj
 0001:00037eed       __chsize_s                 10038eed f   libucrt:chsize.obj
 0001:00037f9b       ??$?RU__crt_locale_data@@@__crt_internal_free_policy@@QBEXQBU__crt_locale_data@@@Z 10038f9b f i libucrt:wsetlocale.obj
 0001:00037fad       ??$?RU__crt_locale_pointers@@@__crt_internal_free_policy@@QBEXQBU__crt_locale_pointers@@@Z 10038fad f i libucrt:wsetlocale.obj
 0001:00037fbf       ??$?RU__crt_multibyte_data@@@__crt_internal_free_policy@@QBEXQBU__crt_multibyte_data@@@Z 10038fbf f i libucrt:wsetlocale.obj
 0001:00038368       ??0?$__crt_unique_heap_ptr@U__crt_locale_data@@U__crt_internal_free_policy@@@@QAE@QAU__crt_locale_data@@@Z 10039368 f i libucrt:wsetlocale.obj
 0001:00038378       ??0?$__crt_unique_heap_ptr@U__crt_locale_pointers@@U__crt_internal_free_policy@@@@QAE@QAU__crt_locale_pointers@@@Z 10039378 f i libucrt:wsetlocale.obj
 0001:00038388       ??0?$__crt_unique_heap_ptr@U__crt_multibyte_data@@U__crt_internal_free_policy@@@@QAE@QAU__crt_multibyte_data@@@Z 10039388 f i libucrt:wsetlocale.obj
 0001:00038398       ??0_expandlocale_locale_name_cache@@QAE@QA_WIQAU__crt_qualified_locale_data@@@Z 10039398 f i libucrt:wsetlocale.obj
 0001:000383e2       ??1?$__crt_unique_heap_ptr@U__crt_locale_data@@U__crt_internal_free_policy@@@@QAE@XZ 100393e2 f i libucrt:wsetlocale.obj
 0001:000383f4       ??1?$__crt_unique_heap_ptr@U__crt_locale_pointers@@U__crt_internal_free_policy@@@@QAE@XZ 100393f4 f i libucrt:wsetlocale.obj
 0001:00038406       ??1?$__crt_unique_heap_ptr@U__crt_multibyte_data@@U__crt_internal_free_policy@@@@QAE@XZ 10039406 f i libucrt:wsetlocale.obj
 0001:00038418       ??1_expandlocale_locale_name_cache@@QAE@XZ 10039418 f i libucrt:wsetlocale.obj
 0001:00038448       ??B?$__crt_unique_heap_ptr@U__crt_locale_data@@U__crt_internal_free_policy@@@@QBE_NXZ 10039448 f i libucrt:wsetlocale.obj
 0001:0003844f       ??B?$__crt_unique_heap_ptr@U__crt_locale_pointers@@U__crt_internal_free_policy@@@@QBE_NXZ 1003944f f i libucrt:wsetlocale.obj
 0001:00038456       ??B?$__crt_unique_heap_ptr@U__crt_multibyte_data@@U__crt_internal_free_policy@@@@QBE_NXZ 10039456 f i libucrt:wsetlocale.obj
 0001:00038676       ?commit_locale_name@_expandlocale_locale_name_cache@@QAEXQB_WI@Z 10039676 f i libucrt:wsetlocale.obj
 0001:000386ba       ?commit_locale_name_cache_already_updated@_expandlocale_locale_name_cache@@QAEXQB_WI@Z 100396ba f i libucrt:wsetlocale.obj
 0001:000386ef       ?detach@?$__crt_unique_heap_ptr@U__crt_locale_data@@U__crt_internal_free_policy@@@@QAEPAU__crt_locale_data@@XZ 100396ef f i libucrt:wsetlocale.obj
 0001:000386f5       ?detach@?$__crt_unique_heap_ptr@U__crt_locale_pointers@@U__crt_internal_free_policy@@@@QAEPAU__crt_locale_pointers@@XZ 100396f5 f i libucrt:wsetlocale.obj
 0001:000386fb       ?detach@?$__crt_unique_heap_ptr@U__crt_multibyte_data@@U__crt_internal_free_policy@@@@QAEPAU__crt_multibyte_data@@XZ 100396fb f i libucrt:wsetlocale.obj
 0001:00038701       ?get@?$__crt_unique_heap_ptr@U__crt_locale_data@@U__crt_internal_free_policy@@@@QBEPAU__crt_locale_data@@XZ 10039701 f i libucrt:wsetlocale.obj
 0001:00038704       ?get@?$__crt_unique_heap_ptr@U__crt_locale_pointers@@U__crt_internal_free_policy@@@@QBEPAU__crt_locale_pointers@@XZ 10039704 f i libucrt:wsetlocale.obj
 0001:00038707       ?get@?$__crt_unique_heap_ptr@U__crt_multibyte_data@@U__crt_internal_free_policy@@@@QBEPAU__crt_multibyte_data@@XZ 10039707 f i libucrt:wsetlocale.obj
 0001:0003870a       ?is_valid@?$__crt_unique_heap_ptr@U__crt_locale_data@@U__crt_internal_free_policy@@@@QBE_NXZ 1003970a f i libucrt:wsetlocale.obj
 0001:00038711       ?is_valid@?$__crt_unique_heap_ptr@U__crt_locale_pointers@@U__crt_internal_free_policy@@@@QBE_NXZ 10039711 f i libucrt:wsetlocale.obj
 0001:00038718       ?is_valid@?$__crt_unique_heap_ptr@U__crt_multibyte_data@@U__crt_internal_free_policy@@@@QBE_NXZ 10039718 f i libucrt:wsetlocale.obj
 0001:0003871f       ?release@?$__crt_unique_heap_ptr@U__crt_locale_data@@U__crt_internal_free_policy@@@@QAEXXZ 1003971f f i libucrt:wsetlocale.obj
 0001:00038731       ?release@?$__crt_unique_heap_ptr@U__crt_locale_pointers@@U__crt_internal_free_policy@@@@QAEXXZ 10039731 f i libucrt:wsetlocale.obj
 0001:00038743       ?release@?$__crt_unique_heap_ptr@U__crt_multibyte_data@@U__crt_internal_free_policy@@@@QAEXXZ 10039743 f i libucrt:wsetlocale.obj
 0001:00038755       ___acrt_copy_locale_name   10039755 f   libucrt:wsetlocale.obj
 0001:000387b5       ___acrt_set_locale_changed 100397b5 f   libucrt:wsetlocale.obj
 0001:000387c0       ___acrt_uninitialize_locale 100397c0 f   libucrt:wsetlocale.obj
 0001:000387e7       ___ascii_tolower           100397e7 f i libucrt:wsetlocale.obj
 0001:000387fe       ___ascii_towlower          100397fe f i libucrt:wsetlocale.obj
 0001:00038815       ___lc_lctowcs              10039815 f   libucrt:wsetlocale.obj
 0001:00038885       ___lc_wcstolc              10039885 f   libucrt:wsetlocale.obj
 0001:000389d5       __configthreadlocale       100399d5 f   libucrt:wsetlocale.obj
 0001:00038a66       __create_locale            10039a66 f   libucrt:wsetlocale.obj
 0001:00038e90       __free_locale              10039e90 f   libucrt:wsetlocale.obj
 0001:00038f52       __get_current_locale       10039f52 f   libucrt:wsetlocale.obj
 0001:00038fed       __wcreate_locale           10039fed f   libucrt:wsetlocale.obj
 0001:000390f4       __wcscats                  1003a0f4 f   libucrt:wsetlocale.obj
 0001:00039135       __wsetlocale               1003a135 f   libucrt:wsetlocale.obj
 0001:00039e9a       ___p___mb_cur_max          1003ae9a f   libucrt:nlsdata.obj
 0001:00039ebf       __umask                    1003aebf f   libucrt:umask.obj
 0001:00039ee2       __umask_s                  1003aee2 f   libucrt:umask.obj
 0001:00039f82       ___acrt_WideCharToMultiByte 1003af82 f   libucrt:widechartomultibyte.obj
 0001:0003a039       ?__wcsrtombs_utf8@__crt_mbstring@@YAIPADPAPB_WIPAU_Mbstatet@@@Z 1003b039 f   libucrt:wcrtomb.obj
 0001:0003a432       _wcrtomb                   1003b432 f   libucrt:wcrtomb.obj
 0001:0003a461       _wcrtomb_s                 1003b461 f   libucrt:wcrtomb.obj
 0001:0003a4d8       _wcsrtombs                 1003b4d8 f   libucrt:wcrtomb.obj
 0001:0003a4e3       _wcsrtombs_s               1003b4e3 f   libucrt:wcrtomb.obj
 0001:0003a57c       _wctob                     1003b57c f   libucrt:wcrtomb.obj
 0001:0003a5de       ??$make_c_string_character_source@DPAPAD@__crt_strtox@@YA?AV?$c_string_character_source@D@0@QBDQAPAD@Z 1003b5de f i libucrt:strtox.obj
 0001:0003a5f9       ??$make_c_string_character_source@_WPAPA_W@__crt_strtox@@YA?AV?$c_string_character_source@_W@0@QB_WQAPA_W@Z 1003b5f9 f i libucrt:strtox.obj
 0001:0003a614       ??$parse_integer_from_string@JDPAPAD@__crt_strtox@@YAJQBDQAPADHQAU__crt_locale_pointers@@@Z 1003b614 f i libucrt:strtox.obj
 0001:0003a63f       ??$parse_integer_from_string@J_WPAPA_W@__crt_strtox@@YAJQB_WQAPA_WHQAU__crt_locale_pointers@@@Z 1003b63f f i libucrt:strtox.obj
 0001:0003a66a       ??$parse_integer_from_string@KDPAPAD@__crt_strtox@@YAKQBDQAPADHQAU__crt_locale_pointers@@@Z 1003b66a f i libucrt:strtox.obj
 0001:0003a695       ??$parse_integer_from_string@K_WPAPA_W@__crt_strtox@@YAKQB_WQAPA_WHQAU__crt_locale_pointers@@@Z 1003b695 f i libucrt:strtox.obj
 0001:0003a6c0       ??$parse_integer_from_string@_JDPAPAD@__crt_strtox@@YA_JQBDQAPADHQAU__crt_locale_pointers@@@Z 1003b6c0 f i libucrt:strtox.obj
 0001:0003a6eb       ??$parse_integer_from_string@_J_WPAPA_W@__crt_strtox@@YA_JQB_WQAPA_WHQAU__crt_locale_pointers@@@Z 1003b6eb f i libucrt:strtox.obj
 0001:0003a716       ??$parse_integer_from_string@_KDPAPAD@__crt_strtox@@YA_KQBDQAPADHQAU__crt_locale_pointers@@@Z 1003b716 f i libucrt:strtox.obj
 0001:0003a741       ??$parse_integer_from_string@_K_WPAPA_W@__crt_strtox@@YA_KQB_WQAPA_WHQAU__crt_locale_pointers@@@Z 1003b741 f i libucrt:strtox.obj
 0001:0003a76c       __strtoi64                 1003b76c f   libucrt:strtox.obj
 0001:0003a796       __strtoi64_l               1003b796 f   libucrt:strtox.obj
 0001:0003a7c1       __strtoimax_l              1003b7c1 f   libucrt:strtox.obj
 0001:0003a7ec       __strtol_l                 1003b7ec f   libucrt:strtox.obj
 0001:0003a817       __strtoll_l                1003b817 f   libucrt:strtox.obj
 0001:0003a842       __strtoui64                1003b842 f   libucrt:strtox.obj
 0001:0003a86c       __strtoui64_l              1003b86c f   libucrt:strtox.obj
 0001:0003a897       __strtoul_l                1003b897 f   libucrt:strtox.obj
 0001:0003a8c2       __strtoull_l               1003b8c2 f   libucrt:strtox.obj
 0001:0003a8ed       __strtoumax_l              1003b8ed f   libucrt:strtox.obj
 0001:0003a918       __wcstoi64                 1003b918 f   libucrt:strtox.obj
 0001:0003a942       __wcstoi64_l               1003b942 f   libucrt:strtox.obj
 0001:0003a96d       __wcstoimax_l              1003b96d f   libucrt:strtox.obj
 0001:0003a998       __wcstol_l                 1003b998 f   libucrt:strtox.obj
 0001:0003a9c3       __wcstoll_l                1003b9c3 f   libucrt:strtox.obj
 0001:0003a9ee       __wcstoui64                1003b9ee f   libucrt:strtox.obj
 0001:0003aa18       __wcstoui64_l              1003ba18 f   libucrt:strtox.obj
 0001:0003aa43       __wcstoul_l                1003ba43 f   libucrt:strtox.obj
 0001:0003aa6e       __wcstoull_l               1003ba6e f   libucrt:strtox.obj
 0001:0003aa99       __wcstoumax_l              1003ba99 f   libucrt:strtox.obj
 0001:0003aac4       _strtoimax                 1003bac4 f   libucrt:strtox.obj
 0001:0003aaee       _strtol                    1003baee f   libucrt:strtox.obj
 0001:0003ab18       _strtoll                   1003bb18 f   libucrt:strtox.obj
 0001:0003ab42       _strtoul                   1003bb42 f   libucrt:strtox.obj
 0001:0003ab6c       _strtoull                  1003bb6c f   libucrt:strtox.obj
 0001:0003ab96       _strtoumax                 1003bb96 f   libucrt:strtox.obj
 0001:0003abc0       _wcstoimax                 1003bbc0 f   libucrt:strtox.obj
 0001:0003abea       _wcstol                    1003bbea f   libucrt:strtox.obj
 0001:0003ac14       _wcstoll                   1003bc14 f   libucrt:strtox.obj
 0001:0003ac3e       _wcstoul                   1003bc3e f   libucrt:strtox.obj
 0001:0003ac68       _wcstoull                  1003bc68 f   libucrt:strtox.obj
 0001:0003ac92       _wcstoumax                 1003bc92 f   libucrt:strtox.obj
 0001:0003acbc       __mbtowc_l                 1003bcbc f   libucrt:mbtowc.obj
 0001:0003adfe       _mbtowc                    1003bdfe f   libucrt:mbtowc.obj
 0001:0003ae18       __wctomb_l                 1003be18 f   libucrt:wctomb.obj
 0001:0003ae69       __wctomb_s_l               1003be69 f   libucrt:wctomb.obj
 0001:0003afc4       _wctomb                    1003bfc4 f   libucrt:wctomb.obj
 0001:0003aff6       _wctomb_s                  1003bff6 f   libucrt:wctomb.obj
 0001:0003b80e       ??1?$__crt_simd_cleanup_guard@$00@@QAE@XZ 1003c80e f i libucrt:strnlen.obj
 0001:0003b812       ??1?$__crt_simd_cleanup_guard@$0A@@@QAE@XZ 1003c812 f i libucrt:strnlen.obj
 0001:0003b815       ?compare_equals@?$__crt_simd_traits@$00E@@SA?AT__m256i@@T2@0@Z 1003c815 f i libucrt:strnlen.obj
 0001:0003b81a       ?compare_equals@?$__crt_simd_traits@$00G@@SA?AT__m256i@@T2@0@Z 1003c81a f i libucrt:strnlen.obj
 0001:0003b81f       ?compare_equals@?$__crt_simd_traits@$0A@E@@SA?AT__m128i@@T2@0@Z 1003c81f f i libucrt:strnlen.obj
 0001:0003b824       ?compare_equals@?$__crt_simd_traits@$0A@G@@SA?AT__m128i@@T2@0@Z 1003c824 f i libucrt:strnlen.obj
 0001:0003b829       ?compute_byte_mask@?$__crt_simd_pack_traits@$00@@SAHT__m256i@@@Z 1003c829 f i libucrt:strnlen.obj
 0001:0003b82e       ?compute_byte_mask@?$__crt_simd_pack_traits@$0A@@@SAHT__m128i@@@Z 1003c82e f i libucrt:strnlen.obj
 0001:0003b833       ?get_zero_pack@?$__crt_simd_pack_traits@$00@@SA?AT__m256i@@XZ 1003c833 f i libucrt:strnlen.obj
 0001:0003b838       ?get_zero_pack@?$__crt_simd_pack_traits@$0A@@@SA?AT__m128i@@XZ 1003c838 f i libucrt:strnlen.obj
 0001:0003b83c       _strnlen                   1003c83c f   libucrt:strnlen.obj
 0001:0003b95e       _wcslen                    1003c95e f   libucrt:strnlen.obj
 0001:0003ba86       _wcsnlen                   1003ca86 f   libucrt:strnlen.obj
 0001:0003bc36       ?__acrt_fp_classify@@YA?AW4__acrt_fp_class@@ABN@Z 1003cc36 f i libucrt:cvt.obj
 0001:0003bc98       ?__acrt_fp_is_negative@@YA_NABN@Z 1003cc98 f i libucrt:cvt.obj
 0001:0003c602       ?strrchr@@YAPADQADH@Z      1003d602 f i libucrt:cvt.obj
 0001:0003c60d       ___acrt_fp_format          1003d60d f   libucrt:cvt.obj
 0001:0003c799       __fputwc_nolock            1003d799 f   libucrt:fputwc.obj
 0001:0003c8c2       __fputwchar                1003d8c2 f   libucrt:fputwc.obj
 0001:0003c8dc       __putwc_nolock             1003d8dc f   libucrt:fputwc.obj
 0001:0003c8e7       _fputwc                    1003d8e7 f   libucrt:fputwc.obj
 0001:0003c965       _putwc                     1003d965 f   libucrt:fputwc.obj
 0001:0003c970       _putwchar                  1003d970 f   libucrt:fputwc.obj
 0001:0003c97b       __fileno                   1003d97b f   libucrt:fileno.obj
 0001:0003c9a2       ??$?RPAU__crt_stdio_stream_data@@@__crt_internal_free_policy@@QBEXQBQAU__crt_stdio_stream_data@@@Z 1003d9a2 f i libucrt:_file.obj
 0001:0003c9b4       ??0?$__crt_unique_heap_ptr@PAU__crt_stdio_stream_data@@U__crt_internal_free_policy@@@@QAE@QAPAU__crt_stdio_stream_data@@@Z 1003d9b4 f i libucrt:_file.obj
 0001:0003c9c4       ??1?$__crt_unique_heap_ptr@PAU__crt_stdio_stream_data@@U__crt_internal_free_policy@@@@QAE@XZ 1003d9c4 f i libucrt:_file.obj
 0001:0003c9d6       ?detach@?$__crt_unique_heap_ptr@PAU__crt_stdio_stream_data@@U__crt_internal_free_policy@@@@QAEPAPAU__crt_stdio_stream_data@@XZ 1003d9d6 f i libucrt:_file.obj
 0001:0003c9dc       ?release@?$__crt_unique_heap_ptr@PAU__crt_stdio_stream_data@@U__crt_internal_free_policy@@@@QAEXXZ 1003d9dc f i libucrt:_file.obj
 0001:0003c9ee       ___acrt_initialize_stdio   1003d9ee f   libucrt:_file.obj
 0001:0003cab6       ___acrt_iob_func           1003dab6 f   libucrt:_file.obj
 0001:0003cac6       ___acrt_uninitialize_stdio 1003dac6 f   libucrt:_file.obj
 0001:0003cb12       __get_stream_buffer_pointers 1003db12 f   libucrt:_file.obj
 0001:0003cb58       __lock_file                1003db58 f   libucrt:_file.obj
 0001:0003cb6c       __unlock_file              1003db6c f   libucrt:_file.obj
 0001:0003cb80       __fputc_nolock             1003db80 f   libucrt:fputc.obj
 0001:0003cba9       __fputchar                 1003dba9 f   libucrt:fputc.obj
 0001:0003cbc3       __putc_nolock              1003dbc3 f   libucrt:fputc.obj
 0001:0003cbce       _fputc                     1003dbce f   libucrt:fputc.obj
 0001:0003ccd8       _putc                      1003dcd8 f   libucrt:fputc.obj
 0001:0003cce3       _putchar                   1003dce3 f   libucrt:fputc.obj
 0001:0003ccee       __get_printf_count_output  1003dcee f   libucrt:printf_count_output.obj
 0001:0003cd03       __set_printf_count_output  1003dd03 f   libucrt:printf_count_output.obj
 0001:0003cd2d       ?has_temporary_buffer@__crt_stdio_stream@@QBE_NXZ 1003dd2d f i libucrt:_sftbuf.obj
 0001:0003cd39       ___acrt_should_use_temporary_buffer 1003dd39 f   libucrt:_sftbuf.obj
 0001:0003cd74       ___acrt_stdio_begin_temporary_buffering_nolock 1003dd74 f   libucrt:_sftbuf.obj
 0001:0003ce20       ___acrt_stdio_end_temporary_buffering_nolock 1003de20 f   libucrt:_sftbuf.obj
 0001:0003ce5a       __isatty                   1003de5a f   libucrt:isatty.obj
 0001:0003ceb0       __calloc_base              1003deb0 f   libucrt:calloc_base.obj
 0001:0003cf0d       ___sys_errlist             1003df0d f   libucrt:syserr.obj
 0001:0003cf13       ___sys_nerr                1003df13 f   libucrt:syserr.obj
 0001:0003d0bc       __mbstowcs_l               1003e0bc f   libucrt:mbstowcs.obj
 0001:0003d0c7       __mbstowcs_s_l             1003e0c7 f   libucrt:mbstowcs.obj
 0001:0003d1a7       _mbstowcs                  1003e1a7 f   libucrt:mbstowcs.obj
 0001:0003d1d1       _mbstowcs_s                1003e1d1 f   libucrt:mbstowcs.obj
 0001:0003d2a4       _strncpy_s                 1003e2a4 f   libucrt:strncpy_s.obj
 0001:0003d2af       ___pctype_func             1003e2af f   libucrt:ctype.obj
 0001:0003d2d3       ___pwctype_func            1003e2d3 f   libucrt:ctype.obj
 0001:0003d305       ?__mbrtowc_utf8@__crt_mbstring@@YAIPA_WPBDIPAU_Mbstatet@@@Z 1003e305 f   libucrt:mbrtowc.obj
 0001:0003d345       ?__mbsrtowcs_utf8@__crt_mbstring@@YAIPA_WPAPBDIPAU_Mbstatet@@@Z 1003e345 f   libucrt:mbrtowc.obj
 0001:0003d757       _btowc                     1003e757 f   libucrt:mbrtowc.obj
 0001:0003d7af       _mbrlen                    1003e7af f   libucrt:mbrtowc.obj
 0001:0003d7e1       _mbrtowc                   1003e7e1 f   libucrt:mbrtowc.obj
 0001:0003d832       _mbsrtowcs                 1003e832 f   libucrt:mbrtowc.obj
 0001:0003d83d       _mbsrtowcs_s               1003e83d f   libucrt:mbrtowc.obj
 0001:0003d9b6       __putwch                   1003e9b6 f   libucrt:putwch.obj
 0001:0003d9e3       __putwch_nolock            1003e9e3 f   libucrt:putwch.obj
 0001:0003da15       ??$?RU__crt_stdio_stream_data@@@__crt_internal_free_policy@@QBEXQBU__crt_stdio_stream_data@@@Z 1003ea15 f i libucrt:stream.obj
 0001:0003da27       ??0?$__crt_unique_heap_ptr@U__crt_stdio_stream_data@@U__crt_internal_free_policy@@@@QAE@QAU__crt_stdio_stream_data@@@Z 1003ea27 f i libucrt:stream.obj
 0001:0003da37       ??0__crt_stdio_stream@@QAE@QAU__crt_stdio_stream_data@@@Z 1003ea37 f i libucrt:stream.obj
 0001:0003da47       ??0__crt_stdio_stream@@QAE@XZ 1003ea47 f i libucrt:stream.obj
 0001:0003da4d       ??1?$__crt_unique_heap_ptr@U__crt_stdio_stream_data@@U__crt_internal_free_policy@@@@QAE@XZ 1003ea4d f i libucrt:stream.obj
 0001:0003da5f       ?__acrt_stdio_allocate_stream@@YA?AV__crt_stdio_stream@@XZ 1003ea5f f   libucrt:stream.obj
 0001:0003dac8       ?__acrt_stdio_free_stream@@YAXV__crt_stdio_stream@@@Z 1003eac8 f   libucrt:stream.obj
 0001:0003db03       ?deallocate@__crt_stdio_stream@@QAEXXZ 1003eb03 f i libucrt:stream.obj
 0001:0003db0d       ?detach@?$__crt_unique_heap_ptr@U__crt_stdio_stream_data@@U__crt_internal_free_policy@@@@QAEPAU__crt_stdio_stream_data@@XZ 1003eb0d f i libucrt:stream.obj
 0001:0003dbd5       ?lock@__crt_stdio_stream@@QBEXXZ 1003ebd5 f i libucrt:stream.obj
 0001:0003dbde       ?release@?$__crt_unique_heap_ptr@U__crt_stdio_stream_data@@U__crt_internal_free_policy@@@@QAEXXZ 1003ebde f i libucrt:stream.obj
 0001:0003dbf0       ?try_allocate@__crt_stdio_stream@@QAE_NXZ 1003ebf0 f i libucrt:stream.obj
 0001:0003dc10       ??$__acrt_stdio_parse_mode@D@@YA?AU__acrt_stdio_stream_mode@@QBD@Z 1003ec10 f i libucrt:openfile.obj
 0001:0003de3a       ??$__acrt_stdio_parse_mode@_W@@YA?AU__acrt_stdio_stream_mode@@QB_W@Z 1003ee3a f i libucrt:openfile.obj
 0001:0003e1ab       ??$tcsncmp@AAPBDAAY02$$CBDI@?$__crt_char_traits@D@@SAHAAPBDAAY02$$CBD$$QAI@Z 1003f1ab f i libucrt:openfile.obj
 0001:0003e1c7       ??$tcsncmp@AAPB_WAAY02$$CB_WI@?$__crt_char_traits@_W@@SAHAAPB_WAAY02$$CB_W$$QAI@Z 1003f1c7 f i libucrt:openfile.obj
 0001:0003e1e3       ??$tcsnicmp@AAPBDAAY04$$CBDI@?$__crt_char_traits@D@@SAHAAPBDAAY04$$CBD$$QAI@Z 1003f1e3 f i libucrt:openfile.obj
 0001:0003e1ff       ??$tcsnicmp@AAPBDAAY06$$CBDI@?$__crt_char_traits@D@@SAHAAPBDAAY06$$CBD$$QAI@Z 1003f1ff f i libucrt:openfile.obj
 0001:0003e21b       ??$tcsnicmp@AAPBDAAY07$$CBDI@?$__crt_char_traits@D@@SAHAAPBDAAY07$$CBD$$QAI@Z 1003f21b f i libucrt:openfile.obj
 0001:0003e237       ??$tcsnicmp@AAPB_WAAY04$$CB_WI@?$__crt_char_traits@_W@@SAHAAPB_WAAY04$$CB_W$$QAI@Z 1003f237 f i libucrt:openfile.obj
 0001:0003e253       ??$tcsnicmp@AAPB_WAAY06$$CB_WI@?$__crt_char_traits@_W@@SAHAAPB_WAAY06$$CB_W$$QAI@Z 1003f253 f i libucrt:openfile.obj
 0001:0003e26f       ??$tcsnicmp@AAPB_WAAY07$$CB_WI@?$__crt_char_traits@_W@@SAHAAPB_WAAY07$$CB_W$$QAI@Z 1003f26f f i libucrt:openfile.obj
 0001:0003e28b       ??$tsopen_s@PAHABQBDABHABHH@?$__crt_char_traits@D@@SAH$$QAPAHABQBDABH2$$QAH@Z 1003f28b f i libucrt:openfile.obj
 0001:0003e2b3       ??$tsopen_s@PAHABQB_WABHABHH@?$__crt_char_traits@_W@@SAH$$QAPAHABQB_WABH2$$QAH@Z 1003f2b3 f i libucrt:openfile.obj
 0001:0003e2db       ?__acrt_stdio_parse_mode_D@@YA_NAAU__acrt_stdio_stream_mode@@@Z 1003f2db f i libucrt:openfile.obj
 0001:0003e2f6       ?__acrt_stdio_parse_mode_N@@YA_NAAU__acrt_stdio_stream_mode@@@Z 1003f2f6 f i libucrt:openfile.obj
 0001:0003e308       ?__acrt_stdio_parse_mode_R@@YA_NAAU__acrt_stdio_stream_mode@@AA_N@Z 1003f308 f i libucrt:openfile.obj
 0001:0003e326       ?__acrt_stdio_parse_mode_S@@YA_NAAU__acrt_stdio_stream_mode@@AA_N@Z 1003f326 f i libucrt:openfile.obj
 0001:0003e344       ?__acrt_stdio_parse_mode_T@@YA_NAAU__acrt_stdio_stream_mode@@@Z 1003f344 f i libucrt:openfile.obj
 0001:0003e363       ?__acrt_stdio_parse_mode_b@@YA_NAAU__acrt_stdio_stream_mode@@@Z 1003f363 f i libucrt:openfile.obj
 0001:0003e383       ?__acrt_stdio_parse_mode_c@@YA_NAAU__acrt_stdio_stream_mode@@AA_N@Z 1003f383 f i libucrt:openfile.obj
 0001:0003e3a5       ?__acrt_stdio_parse_mode_n@@YA_NAAU__acrt_stdio_stream_mode@@AA_N@Z 1003f3a5 f i libucrt:openfile.obj
 0001:0003e3c7       ?__acrt_stdio_parse_mode_plus@@YA_NAAU__acrt_stdio_stream_mode@@AA_N@Z 1003f3c7 f i libucrt:openfile.obj
 0001:0003e3fd       ?__acrt_stdio_parse_mode_t@@YA_NAAU__acrt_stdio_stream_mode@@@Z 1003f3fd f i libucrt:openfile.obj
 0001:0003e41d       ?__acrt_stdio_parse_mode_x@@YA_NAAU__acrt_stdio_stream_mode@@@Z 1003f41d f i libucrt:openfile.obj
 0001:0003e43d       __openfile                 1003f43d f   libucrt:openfile.obj
 0001:0003e448       __wopenfile                1003f448 f   libucrt:openfile.obj
 0001:0003e453       ___acrt_stdio_free_buffer_nolock 1003f453 f   libucrt:_freebuf.obj
 0001:0003e93b       ___acrt_stdio_flush_nolock 1003f93b f   libucrt:fflush.obj
 0001:0003e9a0       __fflush_nolock            1003f9a0 f   libucrt:fflush.obj
 0001:0003e9e8       __flushall                 1003f9e8 f   libucrt:fflush.obj
 0001:0003e9f1       _fflush                    1003f9f1 f   libucrt:fflush.obj
 0001:0003ee49       ___acrt_stdio_flush_and_write_narrow_nolock 1003fe49 f   libucrt:_flsbuf.obj
 0001:0003ee54       ___acrt_stdio_flush_and_write_wide_nolock 1003fe54 f   libucrt:_flsbuf.obj
 0001:0003f267       ___acrt_stdio_refill_and_read_narrow_nolock 10040267 f   libucrt:_filbuf.obj
 0001:0003f272       ___acrt_stdio_refill_and_read_wide_nolock 10040272 f   libucrt:_filbuf.obj
 0001:0003f27d       ___acrt_initialize_locks   1004027d f   libucrt:locks.obj
 0001:0003f2be       ___acrt_lock               100402be f   libucrt:locks.obj
 0001:0003f2d5       ___acrt_uninitialize_locks 100402d5 f   libucrt:locks.obj
 0001:0003f306       ___acrt_unlock             10040306 f   libucrt:locks.obj
 0001:0003f31d       __lock_locales             1004031d f   libucrt:locks.obj
 0001:0003f32b       __unlock_locales           1004032b f   libucrt:locks.obj
 0001:0003f4db       ___acrt_get_begin_thread_init_policy 100404db f   libucrt:win_policies.obj
 0001:0003f51f       ___acrt_get_developer_information_policy 1004051f f   libucrt:win_policies.obj
 0001:0003f563       ___acrt_get_process_end_policy 10040563 f   libucrt:win_policies.obj
 0001:0003f594       ___acrt_get_windowing_model_policy 10040594 f   libucrt:win_policies.obj
 0001:0003f7a1       ??$__acrt_wcs_to_mbs_cp@U__crt_win32_buffer_internal_dynamic_resizing@@@@YAHQB_WAAV?$__crt_win32_buffer@DU__crt_win32_buffer_internal_dynamic_resizing@@@@I@Z 100407a1 f i libucrt:argv_wildcards.obj
 0001:00040103       ??$tcslen@ABQBD@?$__crt_char_traits@D@@SAIABQBD@Z 10041103 f i libucrt:argv_wildcards.obj
 0001:0004011b       ??$tcslen@ABQB_W@?$__crt_char_traits@_W@@SAIABQB_W@Z 1004111b f i libucrt:argv_wildcards.obj
 0001:00040139       ??$tcsncpy_s@AAPADIAAPADABI@?$__crt_char_traits@D@@SAHAAPAD$$QAI0ABI@Z 10041139 f i libucrt:argv_wildcards.obj
 0001:0004015c       ??$tcsncpy_s@AAPA_WIAAPA_WABI@?$__crt_char_traits@_W@@SAHAAPA_W$$QAI0ABI@Z 1004115c f i libucrt:argv_wildcards.obj
 0001:0004017f       ??$tcsncpy_s@PADABIABQBDABI@?$__crt_char_traits@D@@SAH$$QAPADABIABQBD1@Z 1004117f f i libucrt:argv_wildcards.obj
 0001:000401a2       ??$tcsncpy_s@PADIABQBDABI@?$__crt_char_traits@D@@SAH$$QAPAD$$QAIABQBDABI@Z 100411a2 f i libucrt:argv_wildcards.obj
 0001:000401c5       ??$tcsncpy_s@PA_WABIABQB_WABI@?$__crt_char_traits@_W@@SAH$$QAPA_WABIABQB_W1@Z 100411c5 f i libucrt:argv_wildcards.obj
 0001:000401e8       ??$tcsncpy_s@PA_WIABQB_WABI@?$__crt_char_traits@_W@@SAH$$QAPA_W$$QAIABQB_WABI@Z 100411e8 f i libucrt:argv_wildcards.obj
 0001:0004020b       ??$tcspbrk@AAPADAAY02$$CBD@?$__crt_char_traits@D@@SAPADAAPADAAY02$$CBD@Z 1004120b f i libucrt:argv_wildcards.obj
 0001:00040221       ??$tcspbrk@AAPA_WAAY02$$CB_W@?$__crt_char_traits@_W@@SAPA_WAAPA_WAAY02$$CB_W@Z 10041221 f i libucrt:argv_wildcards.obj
 0001:00040237       ??0?$__crt_unique_handle_t@U__crt_findfile_traits@@@@QAE@QAX@Z 10041237 f i libucrt:argv_wildcards.obj
 0001:00040247       ??0?$__crt_win32_buffer@DU__crt_win32_buffer_internal_dynamic_resizing@@@@QAE@XZ 10041247 f i libucrt:argv_wildcards.obj
 0001:00040277       ??1?$__crt_unique_handle_t@U__crt_findfile_traits@@@@QAE@XZ 10041277 f i libucrt:argv_wildcards.obj
 0001:0004028e       ??1?$__crt_win32_buffer@DU__crt_win32_buffer_internal_dynamic_resizing@@@@QAE@XZ 1004128e f i libucrt:argv_wildcards.obj
 0001:000403ac       ?_deallocate@?$__crt_win32_buffer@DU__crt_win32_buffer_internal_dynamic_resizing@@@@AAEXXZ 100413ac f i libucrt:argv_wildcards.obj
 0001:000403c6       ?allocate@?$__crt_win32_buffer@DU__crt_win32_buffer_internal_dynamic_resizing@@@@QAEHI@Z 100413c6 f i libucrt:argv_wildcards.obj
 0001:00040472       ?capacity@?$__crt_win32_buffer@DU__crt_win32_buffer_internal_dynamic_resizing@@@@QBEIXZ 10041472 f i libucrt:argv_wildcards.obj
 0001:00040476       ?close@?$__crt_unique_handle_t@U__crt_findfile_traits@@@@QAEXXZ 10041476 f i libucrt:argv_wildcards.obj
 0001:0004048d       ?close@__crt_findfile_traits@@SA_NPAX@Z 1004148d f i libucrt:argv_wildcards.obj
 0001:000404a2       ?data@?$__crt_win32_buffer@DU__crt_win32_buffer_internal_dynamic_resizing@@@@QAEPADXZ 100414a2 f i libucrt:argv_wildcards.obj
 0001:000404a6       ?debug_info@?$__crt_win32_buffer@DU__crt_win32_buffer_internal_dynamic_resizing@@@@QBEABV__crt_win32_buffer_empty_debug_info@@XZ 100414a6 f i libucrt:argv_wildcards.obj
 0001:000405bf       ?get@?$__crt_unique_handle_t@U__crt_findfile_traits@@@@QBEPAXXZ 100415bf f i libucrt:argv_wildcards.obj
 0001:000405f5       ?get_invalid_value@__crt_findfile_traits@@SAPAXXZ 100415f5 f i libucrt:argv_wildcards.obj
 0001:00040644       ?set_to_nullptr@?$__crt_win32_buffer@DU__crt_win32_buffer_internal_dynamic_resizing@@@@QAEXXZ 10041644 f i libucrt:argv_wildcards.obj
 0001:0004065b       ?size@?$__crt_win32_buffer@DU__crt_win32_buffer_internal_dynamic_resizing@@@@QAEXI@Z 1004165b f i libucrt:argv_wildcards.obj
 0001:0004067c       ?strpbrk@@YAPADQADQBD@Z    1004167c f i libucrt:argv_wildcards.obj
 0001:00040687       ?wcspbrk@@YAPA_WPA_WPB_W@Z 10041687 f i libucrt:argv_wildcards.obj
 0001:00040692       ___acrt_expand_narrow_argv_wildcards 10041692 f   libucrt:argv_wildcards.obj
 0001:0004069d       ___acrt_expand_wide_argv_wildcards 1004169d f   libucrt:argv_wildcards.obj
 0001:0004076f       ??$__acrt_wcs_to_mbs_cp@U__crt_win32_buffer_no_resizing@@@@YAHQB_WAAV?$__crt_win32_buffer@DU__crt_win32_buffer_no_resizing@@@@I@Z 1004176f f i libucrt:getmodulefilenamea.obj
 0001:0004078c       ??0?$__crt_win32_buffer@DU__crt_win32_buffer_no_resizing@@@@QAE@QADI@Z 1004178c f i libucrt:getmodulefilenamea.obj
 0001:000407b0       ??1?$__crt_win32_buffer@DU__crt_win32_buffer_no_resizing@@@@QAE@XZ 100417b0 f i libucrt:getmodulefilenamea.obj
 0001:000407df       ?_deallocate@?$__crt_win32_buffer@DU__crt_win32_buffer_no_resizing@@@@AAEXXZ 100417df f i libucrt:getmodulefilenamea.obj
 0001:000407ea       ?allocate@?$__crt_win32_buffer@DU__crt_win32_buffer_no_resizing@@@@QAEHI@Z 100417ea f i libucrt:getmodulefilenamea.obj
 0001:00040811       ?allocate@__crt_win32_buffer_no_resizing@@SAHQAPAXIABV__crt_win32_buffer_empty_debug_info@@@Z 10041811 f i libucrt:getmodulefilenamea.obj
 0001:0004081e       ?capacity@?$__crt_win32_buffer@DU__crt_win32_buffer_no_resizing@@@@QBEIXZ 1004181e f i libucrt:getmodulefilenamea.obj
 0001:00040822       ?data@?$__crt_win32_buffer@DU__crt_win32_buffer_no_resizing@@@@QAEPADXZ 10041822 f i libucrt:getmodulefilenamea.obj
 0001:00040826       ?deallocate@__crt_win32_buffer_no_resizing@@SAXQAXABV__crt_win32_buffer_empty_debug_info@@@Z 10041826 f i libucrt:getmodulefilenamea.obj
 0001:00040829       ?debug_info@?$__crt_win32_buffer@DU__crt_win32_buffer_no_resizing@@@@QBEABV__crt_win32_buffer_empty_debug_info@@XZ 10041829 f i libucrt:getmodulefilenamea.obj
 0001:0004082c       ?set_to_nullptr@?$__crt_win32_buffer@DU__crt_win32_buffer_no_resizing@@@@QAEXXZ 1004182c f i libucrt:getmodulefilenamea.obj
 0001:00040840       ?size@?$__crt_win32_buffer@DU__crt_win32_buffer_no_resizing@@@@QAEXI@Z 10041840 f i libucrt:getmodulefilenamea.obj
 0001:0004084f       ?size@?$__crt_win32_buffer@DU__crt_win32_buffer_no_resizing@@@@QBEIXZ 1004184f f i libucrt:getmodulefilenamea.obj
 0001:00040853       ___acrt_GetModuleFileNameA 10041853 f   libucrt:getmodulefilenamea.obj
 0001:00040967       ??$initialize_from_array@$$BY10BAA@E@?$dual_state_global@PAE@__crt_state_management@@QAAXAAY10BAA@E@Z 10041967 f i libucrt:mbctype.obj
 0001:00040976       ??$initialize_from_array@$$BY10BAB@E@?$dual_state_global@PAE@__crt_state_management@@QAAXAAY10BAB@E@Z 10041976 f i libucrt:mbctype.obj
 0001:00040a92       ?dangerous_get_state_array@?$dual_state_global@PAE@__crt_state_management@@QAEPAPAEXZ 10041a92 f i libucrt:mbctype.obj
 0001:00040a95       ?dangerous_get_state_array@?$dual_state_global@PAU__crt_multibyte_data@@@__crt_state_management@@QAEPAPAU__crt_multibyte_data@@XZ 10041a95 f i libucrt:mbctype.obj
 0001:00040b09       ?initialize@?$dual_state_global@PAU__crt_multibyte_data@@@__crt_state_management@@QAEXQAU__crt_multibyte_data@@@Z 10041b09 f i libucrt:mbctype.obj
 0001:00040ec8       ?value@?$dual_state_global@PAE@__crt_state_management@@QAEAAPAEXZ 10041ec8 f i libucrt:mbctype.obj
 0001:00040ecb       ___acrt_initialize_multibyte 10041ecb f   libucrt:mbctype.obj
 0001:00040f13       ___acrt_update_thread_multibyte_data 10041f13 f   libucrt:mbctype.obj
 0001:00040f26       ___p__mbcasemap            10041f26 f   libucrt:mbctype.obj
 0001:00040f2c       ___p__mbctype              10041f2c f   libucrt:mbctype.obj
 0001:00040f32       __getmbcp                  10041f32 f   libucrt:mbctype.obj
 0001:00040f66       __setmbcp                  10041f66 f   libucrt:mbctype.obj
 0001:00040f85       __setmbcp_nolock           10041f85 f   libucrt:mbctype.obj
 0001:00041250       __ismbbalnum               10042250 f   libucrt:ismbbyte.obj
 0001:0004126b       __ismbbalnum_l             1004226b f   libucrt:ismbbyte.obj
 0001:00041287       __ismbbalpha               10042287 f   libucrt:ismbbyte.obj
 0001:000412a2       __ismbbalpha_l             100422a2 f   libucrt:ismbbyte.obj
 0001:000412be       __ismbbblank               100422be f   libucrt:ismbbyte.obj
 0001:000412e1       __ismbbblank_l             100422e1 f   libucrt:ismbbyte.obj
 0001:00041305       __ismbbgraph               10042305 f   libucrt:ismbbyte.obj
 0001:00041320       __ismbbgraph_l             10042320 f   libucrt:ismbbyte.obj
 0001:0004133c       __ismbbkalnum              1004233c f   libucrt:ismbbyte.obj
 0001:00041354       __ismbbkalnum_l            10042354 f   libucrt:ismbbyte.obj
 0001:0004136d       __ismbbkana                1004236d f   libucrt:ismbbyte.obj
 0001:00041380       __ismbbkana_l              10042380 f   libucrt:ismbbyte.obj
 0001:000413cf       __ismbbkprint              100423cf f   libucrt:ismbbyte.obj
 0001:000413e7       __ismbbkprint_l            100423e7 f   libucrt:ismbbyte.obj
 0001:00041400       __ismbbkpunct              10042400 f   libucrt:ismbbyte.obj
 0001:00041418       __ismbbkpunct_l            10042418 f   libucrt:ismbbyte.obj
 0001:00041431       __ismbblead                10042431 f   libucrt:ismbbyte.obj
 0001:00041449       __ismbblead_l              10042449 f   libucrt:ismbbyte.obj
 0001:00041462       __ismbbprint               10042462 f   libucrt:ismbbyte.obj
 0001:0004147d       __ismbbprint_l             1004247d f   libucrt:ismbbyte.obj
 0001:00041499       __ismbbpunct               10042499 f   libucrt:ismbbyte.obj
 0001:000414b1       __ismbbpunct_l             100424b1 f   libucrt:ismbbyte.obj
 0001:000414ca       __ismbbtrail               100424ca f   libucrt:ismbbyte.obj
 0001:000414e2       __ismbbtrail_l             100424e2 f   libucrt:ismbbyte.obj
 0001:000414fb       ___acrt_initialize_command_line 100424fb f   libucrt:argv_data.obj
 0001:00041514       ___acrt_uninitialize_command_line 10042514 f   libucrt:argv_data.obj
 0001:00041517       ___p___argc                10042517 f   libucrt:argv_data.obj
 0001:0004151d       ___p___argv                1004251d f   libucrt:argv_data.obj
 0001:00041523       ___p___wargv               10042523 f   libucrt:argv_data.obj
 0001:00041529       ___p__acmdln               10042529 f   libucrt:argv_data.obj
 0001:0004152f       ___p__pgmptr               1004252f f   libucrt:argv_data.obj
 0001:00041535       ___p__wcmdln               10042535 f   libucrt:argv_data.obj
 0001:0004153b       ___p__wpgmptr              1004253b f   libucrt:argv_data.obj
 0001:00041541       __get_pgmptr               10042541 f   libucrt:argv_data.obj
 0001:00041572       __get_wpgmptr              10042572 f   libucrt:argv_data.obj
 0001:00041603       _wcscpy_s                  10042603 f   libucrt:wcscpy_s.obj
 0001:00041702       ___dcrt_get_narrow_environment_from_os 10042702 f   libucrt:get_environment_from_os.obj
 0001:00041786       ___dcrt_get_wide_environment_from_os 10042786 f   libucrt:get_environment_from_os.obj
 0001:00041eb6       ??$get_or_create_environment_nolock@$$V@?$__crt_char_traits@D@@SAPAPADXZ 10042eb6 f i libucrt:setenv.obj
 0001:00041ebb       ??$get_or_create_environment_nolock@$$V@?$__crt_char_traits@_W@@SAPAPA_WXZ 10042ebb f i libucrt:setenv.obj
 0001:00041ec0       ??$set_environment_variable@ABQADQAD@?$__crt_char_traits@D@@SAHABQAD$$QBQAD@Z 10042ec0 f i libucrt:setenv.obj
 0001:00041ed8       ??$set_environment_variable@ABQA_WQA_W@?$__crt_char_traits@_W@@SAHABQA_W$$QBQA_W@Z 10042ed8 f i libucrt:setenv.obj
 0001:00041eef       ??$tcschr@ABQADD@?$__crt_char_traits@D@@SAPADABQAD$$QAD@Z 10042eef f i libucrt:setenv.obj
 0001:00041f09       ??$tcschr@ABQA_WD@?$__crt_char_traits@_W@@SAPA_WABQA_W$$QAD@Z 10042f09 f i libucrt:setenv.obj
 0001:00041f27       ??$tcscpy_s@AAPADABIAAPAD@?$__crt_char_traits@D@@SAHAAPADABI0@Z 10042f27 f i libucrt:setenv.obj
 0001:00041f45       ??$tcscpy_s@AAPA_WABIAAPA_W@?$__crt_char_traits@_W@@SAHAAPA_WABI0@Z 10042f45 f i libucrt:setenv.obj
 0001:00041f63       ??$tcscpy_s@ABQADABIABQAD@?$__crt_char_traits@D@@SAHABQADABI0@Z 10042f63 f i libucrt:setenv.obj
 0001:00041f81       ??$tcscpy_s@ABQA_WABIABQA_W@?$__crt_char_traits@_W@@SAHABQA_WABI0@Z 10042f81 f i libucrt:setenv.obj
 0001:00041f9f       ??$tcslen@ABQAD@?$__crt_char_traits@D@@SAIABQAD@Z 10042f9f f i libucrt:setenv.obj
 0001:00041fb7       ??$tcslen@ABQA_W@?$__crt_char_traits@_W@@SAIABQA_W@Z 10042fb7 f i libucrt:setenv.obj
 0001:00041fd5       ??$tcsnicoll@ABQBDAAPADABI@?$__crt_char_traits@D@@SAHABQBDAAPADABI@Z 10042fd5 f i libucrt:setenv.obj
 0001:00041ff3       ??$tcsnicoll@ABQB_WAAPA_WABI@?$__crt_char_traits@_W@@SAHABQB_WAAPA_WABI@Z 10042ff3 f i libucrt:setenv.obj
 0001:00042035       ?strchr@@YAPADQADH@Z       10043035 f i libucrt:setenv.obj
 0001:00042040       ?wcschr@@YAPA_WPA_W_W@Z    10043040 f i libucrt:setenv.obj
 0001:0004204b       ___dcrt_set_variable_in_narrow_environment_nolock 1004304b f   libucrt:setenv.obj
 0001:00042056       ___dcrt_set_variable_in_wide_environment_nolock 10043056 f   libucrt:setenv.obj
 0001:00042061       __recalloc                 10043061 f   libucrt:recalloc.obj
 0001:0004206c       __recalloc_base            1004306c f   libucrt:recalloc.obj
 0001:000420d9       ___acrt_getheap            100430d9 f   libucrt:heap_handle.obj
 0001:000420df       ___acrt_initialize_heap    100430df f   libucrt:heap_handle.obj
 0001:000420f0       ___acrt_uninitialize_heap  100430f0 f   libucrt:heap_handle.obj
 0001:000420fa       __get_heap_handle          100430fa f   libucrt:heap_handle.obj
 0001:00042100       ___acrt_execute_initializers 10043100 f   libucrt:shared_initialization.obj
 0001:00042168       ___acrt_execute_uninitializers 10043168 f   libucrt:shared_initialization.obj
 0001:00042199       ??$?B$$A6AHI@Z@__crt_fast_encoded_nullptr_t@@QBEP6AHI@ZXZ 10043199 f i libucrt:new_handler.obj
 0001:0004219f       ??$__crt_fast_decode_pointer@P6AHI@Z@@YAP6AHI@ZQ6AHI@Z@Z 1004319f f i libucrt:new_handler.obj
 0001:000421b5       ??$__crt_fast_encode_pointer@P6AHI@Z@@YAP6AHI@ZQ6AHI@Z@Z 100431b5 f i libucrt:new_handler.obj
 0001:000421d4       ?_set_new_handler@@YAP6AHI@ZH@Z 100431d4 f   libucrt:new_handler.obj
 0001:000421e1       ?initialize@?$dual_state_global@P6AHI@Z@__crt_state_management@@QAEXQ6AHI@Z@Z 100431e1 f i libucrt:new_handler.obj
 0001:00042207       ?value@?$dual_state_global@P6AHI@Z@__crt_state_management@@QAEAAP6AHI@ZXZ 10043207 f i libucrt:new_handler.obj
 0001:0004220a       ___acrt_initialize_new_handler 1004320a f   libucrt:new_handler.obj
 0001:00042219       __callnewh                 10043219 f   libucrt:new_handler.obj
 0001:00042246       __query_new_handler        10043246 f   libucrt:new_handler.obj
 0001:000422a2       __set_new_handler          100432a2 f   libucrt:new_handler.obj
 0001:0004230c       ??$?B$$A6AXH@Z@__crt_fast_encoded_nullptr_t@@QBEP6AXH@ZXZ 1004330c f i libucrt:signal.obj
 0001:0004239c       ??$__crt_fast_decode_pointer@P6AXH@Z@@YAP6AXH@ZQ6AXH@Z@Z 1004339c f i libucrt:signal.obj
 0001:000423b2       ??$__crt_fast_encode_pointer@P6AXH@Z@@YAP6AXH@ZQ6AXH@Z@Z 100433b2 f i libucrt:signal.obj
 0001:00042506       ?initialize@?$dual_state_global@P6AXH@Z@__crt_state_management@@QAEXQ6AXH@Z@Z 10043506 f i libucrt:signal.obj
 0001:000425b9       ?value@?$dual_state_global@P6AXH@Z@__crt_state_management@@QAEAAP6AXH@ZXZ 100435b9 f i libucrt:signal.obj
 0001:000425bc       ___acrt_get_sigabrt_handler 100435bc f   libucrt:signal.obj
 0001:000425e3       ___acrt_initialize_signal_handlers 100435e3 f   libucrt:signal.obj
 0001:00042601       ___fpecode                 10043601 f   libucrt:signal.obj
 0001:0004260a       ___pxcptinfoptrs           1004360a f   libucrt:signal.obj
 0001:00042613       _raise                     10043613 f   libucrt:signal.obj
 0001:00042806       _signal                    10043806 f   libucrt:signal.obj
 0001:000429c5       ??$__crt_fast_decode_pointer@P6AHPAU_exception@@@Z@@YAP6AHPAU_exception@@@ZQ6AH0@Z@Z 100439c5 f i libucrt:matherr.obj
 0001:000429db       ??$__crt_fast_encode_pointer@P6AHPAU_exception@@@Z@@YAP6AHPAU_exception@@@ZQ6AH0@Z@Z 100439db f i libucrt:matherr.obj
 0001:000429fa       ?initialize@?$dual_state_global@P6AHPAU_exception@@@Z@__crt_state_management@@QAEXQ6AHPAU_exception@@@Z@Z 100439fa f i libucrt:matherr.obj
 0001:00042a20       ?value@?$dual_state_global@P6AHPAU_exception@@@Z@__crt_state_management@@QAEAAP6AHPAU_exception@@@ZXZ 10043a20 f i libucrt:matherr.obj
 0001:00042a23       ___acrt_has_user_matherr   10043a23 f   libucrt:matherr.obj
 0001:00042a3b       ___acrt_initialize_user_matherr 10043a3b f   libucrt:matherr.obj
 0001:00042a4a       ___acrt_invoke_user_matherr 10043a4a f   libucrt:matherr.obj
 0001:00042a7c       ___setusermatherr          10043a7c f   libucrt:matherr.obj
 0001:00042a91       __iswctype_l               10043a91 f   libucrt:iswctype.obj
 0001:00042aa5       _iswctype                  10043aa5 f   libucrt:iswctype.obj
 0001:00042b0e       __isctype                  10043b0e f   libucrt:isctype.obj
 0001:00042b41       __isctype_l                10043b41 f   libucrt:isctype.obj
 0001:00042c0c       __isleadbyte_fast_internal 10043c0c f i libucrt:isctype.obj
 0001:00042cc8       ___acrt_report_runtime_error 10043cc8 f   libucrt:report_runtime_error.obj
 0001:00042ddd       __query_app_type           10043ddd f   libucrt:report_runtime_error.obj
 0001:00042de3       __set_app_type             10043de3 f   libucrt:report_runtime_error.obj
 0001:00042df2       ?value@?$dual_state_global@J@__crt_state_management@@QAEAAJXZ 10043df2 f i libucrt:new_mode.obj
 0001:00042df5       __query_new_mode           10043df5 f   libucrt:new_mode.obj
 0001:00042dfc       __set_new_mode             10043dfc f   libucrt:new_mode.obj
 0001:00042e2b       ?dangerous_get_state_array@?$dual_state_global@H@__crt_state_management@@QAEPAHXZ 10043e2b f i libucrt:txtmode.obj
 0001:00042e2e       ___acrt_initialize_fmode   10043e2e f   libucrt:txtmode.obj
 0001:00042e44       ___p__fmode                10043e44 f   libucrt:txtmode.obj
 0001:00042e4a       ___acrt_add_locale_ref     10043e4a f   libucrt:locale_refcounting.obj
 0001:00042ec7       ___acrt_free_locale        10043ec7 f   libucrt:locale_refcounting.obj
 0001:0004300f       ___acrt_locale_add_lc_time_reference 1004400f f   libucrt:locale_refcounting.obj
 0001:00043038       ___acrt_locale_free_lc_time_if_unreferenced 10044038 f   libucrt:locale_refcounting.obj
 0001:00043069       ___acrt_locale_release_lc_time_reference 10044069 f   libucrt:locale_refcounting.obj
 0001:00043092       ___acrt_release_locale_ref 10044092 f   libucrt:locale_refcounting.obj
 0001:00043113       ___acrt_update_thread_locale_data 10044113 f   libucrt:locale_refcounting.obj
 0001:00043194       __updatetlocinfoEx_nolock  10044194 f   libucrt:locale_refcounting.obj
 0001:0004326b       ___acrt_DownlevelLCIDToLocaleName 1004426b f   libucrt:lcidtoname_downlevel.obj
 0001:00043315       ___acrt_DownlevelLocaleNameToLCID 10044315 f   libucrt:lcidtoname_downlevel.obj
 0001:00043341       ??$?RG@__crt_internal_free_policy@@QBEXQBG@Z 10044341 f i libucrt:initctype.obj
 0001:00043353       ??$?RJ@__crt_internal_free_policy@@QBEXQBJ@Z 10044353 f i libucrt:initctype.obj
 0001:00043365       ??0?$__crt_unique_heap_ptr@GU__crt_internal_free_policy@@@@QAE@QAG@Z 10044365 f i libucrt:initctype.obj
 0001:00043375       ??0?$__crt_unique_heap_ptr@JU__crt_internal_free_policy@@@@QAE@QAJ@Z 10044375 f i libucrt:initctype.obj
 0001:00043385       ??1?$__crt_unique_heap_ptr@GU__crt_internal_free_policy@@@@QAE@XZ 10044385 f i libucrt:initctype.obj
 0001:00043397       ??1?$__crt_unique_heap_ptr@JU__crt_internal_free_policy@@@@QAE@XZ 10044397 f i libucrt:initctype.obj
 0001:000433a9       ?detach@?$__crt_unique_heap_ptr@GU__crt_internal_free_policy@@@@QAEPAGXZ 100443a9 f i libucrt:initctype.obj
 0001:000433af       ?detach@?$__crt_unique_heap_ptr@JU__crt_internal_free_policy@@@@QAEPAJXZ 100443af f i libucrt:initctype.obj
 0001:000433b5       ?release@?$__crt_unique_heap_ptr@GU__crt_internal_free_policy@@@@QAEXXZ 100443b5 f i libucrt:initctype.obj
 0001:000433c7       ?release@?$__crt_unique_heap_ptr@JU__crt_internal_free_policy@@@@QAEXXZ 100443c7 f i libucrt:initctype.obj
 0001:000433d9       ____lc_codepage_func       100443d9 f   libucrt:initctype.obj
 0001:000433fe       ____lc_collate_cp_func     100443fe f   libucrt:initctype.obj
 0001:00043423       ____lc_locale_name_func    10044423 f   libucrt:initctype.obj
 0001:0004344a       ____mb_cur_max_func        1004444a f   libucrt:initctype.obj
 0001:0004346f       ____mb_cur_max_l_func      1004446f f   libucrt:initctype.obj
 0001:00043488       ___acrt_locale_initialize_ctype 10044488 f   libucrt:initctype.obj
 0001:000438e6       ??$?RUlconv@@@__crt_internal_free_policy@@QBEXQBUlconv@@@Z 100448e6 f i libucrt:initmon.obj
 0001:000438f8       ??0?$__crt_unique_heap_ptr@Ulconv@@U__crt_internal_free_policy@@@@QAE@QAUlconv@@@Z 100448f8 f i libucrt:initmon.obj
 0001:00043908       ??1?$__crt_unique_heap_ptr@Ulconv@@U__crt_internal_free_policy@@@@QAE@XZ 10044908 f i libucrt:initmon.obj
 0001:0004391a       ?detach@?$__crt_unique_heap_ptr@Ulconv@@U__crt_internal_free_policy@@@@QAEPAUlconv@@XZ 1004491a f i libucrt:initmon.obj
 0001:00043920       ?release@?$__crt_unique_heap_ptr@Ulconv@@U__crt_internal_free_policy@@@@QAEXXZ 10044920 f i libucrt:initmon.obj
 0001:00043932       ___acrt_locale_free_monetary 10044932 f   libucrt:initmon.obj
 0001:00043a30       ___acrt_locale_initialize_monetary 10044a30 f   libucrt:initmon.obj
 0001:00043e1d       ___acrt_locale_free_numeric 10044e1d f   libucrt:initnum.obj
 0001:00043e86       ___acrt_locale_initialize_numeric 10044e86 f   libucrt:initnum.obj
 0001:000440cb       ??$?RU__crt_lc_time_data@@@__crt_internal_free_policy@@QBEXQBU__crt_lc_time_data@@@Z 100450cb f i libucrt:inittime.obj
 0001:0004414f       ??0?$__crt_unique_heap_ptr@U__crt_lc_time_data@@U__crt_internal_free_policy@@@@QAE@QAU__crt_lc_time_data@@@Z 1004514f f i libucrt:inittime.obj
 0001:0004415f       ??1?$__crt_unique_heap_ptr@U__crt_lc_time_data@@U__crt_internal_free_policy@@@@QAE@XZ 1004515f f i libucrt:inittime.obj
 0001:00044171       ??B?$__crt_unique_heap_ptr@U__crt_lc_time_data@@U__crt_internal_free_policy@@@@QBE_NXZ 10045171 f i libucrt:inittime.obj
 0001:00044178       ?detach@?$__crt_unique_heap_ptr@U__crt_lc_time_data@@U__crt_internal_free_policy@@@@QAEPAU__crt_lc_time_data@@XZ 10045178 f i libucrt:inittime.obj
 0001:000441b6       ?get@?$__crt_unique_heap_ptr@U__crt_lc_time_data@@U__crt_internal_free_policy@@@@QBEPAU__crt_lc_time_data@@XZ 100451b6 f i libucrt:inittime.obj
 0001:00044496       ?is_valid@?$__crt_unique_heap_ptr@U__crt_lc_time_data@@U__crt_internal_free_policy@@@@QBE_NXZ 10045496 f i libucrt:inittime.obj
 0001:0004449d       ?release@?$__crt_unique_heap_ptr@U__crt_lc_time_data@@U__crt_internal_free_policy@@@@QAEXXZ 1004549d f i libucrt:inittime.obj
 0001:000444af       ___acrt_locale_free_time   100454af f   libucrt:inittime.obj
 0001:00044593       ___acrt_locale_initialize_time 10045593 f   libucrt:inittime.obj
 0001:00044680       _wcscat_s                  10045680 f   libucrt:wcscat_s.obj
 0001:000447dc       _wcsncat_s                 100457dc f   libucrt:wcsncat_s.obj
 0001:000448b2       _wcsncpy_s                 100458b2 f   libucrt:wcsncpy_s.obj
 0001:000448bd       _wcscspn                   100458bd f   libucrt:wcscspn.obj
 0001:00044916       _wcspbrk                   10045916 f   libucrt:wcspbrk.obj
 0001:00044964       ??0?$__crt_scoped_stack_ptr@_W@@QAE@U?$__crt_scoped_stack_ptr_tag@_W@@@Z 10045964 f i libucrt:getstringtypea.obj
 0001:00044974       ??0?$__crt_scoped_stack_ptr_tag@_W@@QAE@QA_W@Z 10045974 f i libucrt:getstringtypea.obj
 0001:00044984       ??1?$__crt_scoped_stack_ptr@_W@@QAE@XZ 10045984 f i libucrt:getstringtypea.obj
 0001:0004498d       ?get@?$__crt_scoped_stack_ptr@_W@@QBEPA_WXZ 1004598d f i libucrt:getstringtypea.obj
 0001:00044990       __MallocaComputeSize       10045990 f i libucrt:getstringtypea.obj
 0001:000449a3       __MarkAllocaS              100459a3 f i libucrt:getstringtypea.obj
 0001:000449b9       ___acrt_GetStringTypeA     100459b9 f   libucrt:getstringtypea.obj
 0001:00044abc       __freea_crt                10045abc f i libucrt:getstringtypea.obj
 0001:0004521e       ___acrt_get_qualified_locale 1004621e f   libucrt:get_qualified_locale.obj
 0001:00045b9d       ___acrt_get_qualified_locale_downlevel 10046b9d f   libucrt:getqloc_downlevel.obj
 0001:00045d92       _localeconv                10046d92 f   libucrt:localeconv.obj
 0001:00045dba       ?__c16rtomb_utf8@__crt_mbstring@@YAIPAD_SPAU_Mbstatet@@@Z 10046dba f   libucrt:c16rtomb.obj
 0001:00045eaf       ?reset_and_return@__crt_mbstring@@YAIIPAU_Mbstatet@@@Z 10046eaf f i libucrt:c16rtomb.obj
 0001:00045ec3       ?return_illegal_sequence@__crt_mbstring@@YAIPAU_Mbstatet@@@Z 10046ec3 f i libucrt:c16rtomb.obj
 0001:00045efe       _c16rtomb                  10046efe f   libucrt:c16rtomb.obj
 0001:00045f09       ?__c32rtomb_utf8@__crt_mbstring@@YAIPAD_UPAU_Mbstatet@@@Z 10046f09 f   libucrt:c32rtomb.obj
 0001:00045fb4       _c32rtomb                  10046fb4 f   libucrt:c32rtomb.obj
 0001:00045fbf       ___iswcsym                 10046fbf f i libucrt:_wctype.obj
 0001:00045fe5       ___iswcsymf                10046fe5 f i libucrt:_wctype.obj
 0001:0004600b       __isleadbyte_l             1004700b f i libucrt:_wctype.obj
 0001:00046045       __iswalnum_l               10047045 f i libucrt:_wctype.obj
 0001:0004605b       __iswalpha_l               1004705b f i libucrt:_wctype.obj
 0001:00046071       __iswblank_l               10047071 f i libucrt:_wctype.obj
 0001:0004608e       __iswcntrl_l               1004708e f i libucrt:_wctype.obj
 0001:000460a1       __iswcsym_l                100470a1 f i libucrt:_wctype.obj
 0001:000460c7       __iswcsymf_l               100470c7 f i libucrt:_wctype.obj
 0001:000460ed       __iswdigit_l               100470ed f i libucrt:_wctype.obj
 0001:00046100       __iswgraph_l               10047100 f i libucrt:_wctype.obj
 0001:00046116       __iswlower_l               10047116 f i libucrt:_wctype.obj
 0001:00046129       __iswprint_l               10047129 f i libucrt:_wctype.obj
 0001:0004613f       __iswpunct_l               1004713f f i libucrt:_wctype.obj
 0001:00046152       __iswspace_l               10047152 f i libucrt:_wctype.obj
 0001:00046165       __iswupper_l               10047165 f i libucrt:_wctype.obj
 0001:00046178       __iswxdigit_l              10047178 f i libucrt:_wctype.obj
 0001:0004618e       _isleadbyte                1004718e f i libucrt:_wctype.obj
 0001:000461a1       _iswalnum                  100471a1 f i libucrt:_wctype.obj
 0001:000461b7       _iswalpha                  100471b7 f i libucrt:_wctype.obj
 0001:000461cd       _iswascii                  100471cd f i libucrt:_wctype.obj
 0001:000461e1       _iswblank                  100471e1 f i libucrt:_wctype.obj
 0001:000461fe       _iswcntrl                  100471fe f i libucrt:_wctype.obj
 0001:00046211       _iswdigit                  10047211 f i libucrt:_wctype.obj
 0001:00046224       _iswgraph                  10047224 f i libucrt:_wctype.obj
 0001:0004623a       _iswlower                  1004723a f i libucrt:_wctype.obj
 0001:0004624d       _iswprint                  1004724d f i libucrt:_wctype.obj
 0001:00046263       _iswpunct                  10047263 f i libucrt:_wctype.obj
 0001:00046276       _iswspace                  10047276 f i libucrt:_wctype.obj
 0001:00046289       _iswupper                  10047289 f i libucrt:_wctype.obj
 0001:0004629c       _iswxdigit                 1004729c f i libucrt:_wctype.obj
 0001:0004634d       ___acrt_fp_strflt_to_string 1004734d f   libucrt:_fptostr.obj
 0001:000477c0       ??0big_integer@__crt_strtox@@QAE@ABU01@@Z 100487c0 f i libucrt:cfout.obj
 0001:00047800       ??0big_integer@__crt_strtox@@QAE@XZ 10048800 f i libucrt:cfout.obj
 0001:00047850       ??4big_integer@__crt_strtox@@QAEAAU01@ABU01@@Z 10048850 f i libucrt:cfout.obj
 0001:00047890       ??8__crt_strtox@@YA_NABUbig_integer@0@0@Z 10048890 f i libucrt:cfout.obj
 0001:000478d0       ??9__crt_strtox@@YA_NABUbig_integer@0@0@Z 100488d0 f i libucrt:cfout.obj
 0001:00047910       ?add_carry@__crt_strtox@@YAIAAIII@Z 10048910 f i libucrt:cfout.obj
 0001:00047930       ?add_multiply_carry@__crt_strtox@@YAIAAIIII@Z 10048930 f i libucrt:cfout.obj
 0001:00047960       ?bit_scan_reverse@__crt_strtox@@YAII@Z 10048960 f i libucrt:cfout.obj
 0001:00047980       ?count_sequential_high_zeroes@__crt_strtox@@YAII@Z 10048980 f i libucrt:cfout.obj
 0001:000479a0       ?divide@__crt_strtox@@YA_KAAUbig_integer@1@ABU21@@Z 100489a0 f i libucrt:cfout.obj
 0001:00047e40       ?is_zero@__crt_strtox@@YA_NABUbig_integer@1@@Z 10048e40 f i libucrt:cfout.obj
 0001:00047e50       ?make_big_integer@__crt_strtox@@YA?AUbig_integer@1@_K@Z 10048e50 f i libucrt:cfout.obj
 0001:00047e70       ?make_big_integer_power_of_two@__crt_strtox@@YA?AUbig_integer@1@I@Z 10048e70 f i libucrt:cfout.obj
 0001:00047ec0       ?multiply@__crt_strtox@@YA_NAAUbig_integer@1@ABU21@@Z 10048ec0 f i libucrt:cfout.obj
 0001:00048200       ?multiply@__crt_strtox@@YA_NAAUbig_integer@1@I@Z 10049200 f i libucrt:cfout.obj
 0001:000482d0       ?multiply_64_32@__crt_strtox@@YA_K_KI@Z 100492d0 f i libucrt:cfout.obj
 0001:000482f0       ?multiply_by_power_of_ten@__crt_strtox@@YA_NAAUbig_integer@1@I@Z 100492f0 f i libucrt:cfout.obj
 0001:00048820       ?multiply_core@__crt_strtox@@YAIQAIII@Z 10049820 f i libucrt:cfout.obj
 0001:00048860       ?shift_left@__crt_strtox@@YA_NAAUbig_integer@1@I@Z 10049860 f i libucrt:cfout.obj
 0001:0004898f       ___acrt_fltout             1004998f f   libucrt:cfout.obj
 0001:00049f17       ___fpe_flt_rounds          1004af17 f   libucrt:fegetround.obj
 0001:00049f4b       _fegetround                1004af4b f   libucrt:fegetround.obj
 0001:00049f58       __fcloseall                1004af58 f   libucrt:closeall.obj
 0001:0004a003       ?__mbrtoc32_utf8@__crt_mbstring@@YAIPA_UPBDIPAU_Mbstatet@@@Z 1004b003 f   libucrt:mbrtoc32.obj
 0001:0004a1aa       _mbrtoc32                  1004b1aa f   libucrt:mbrtoc32.obj
 0001:0004a265       ___dcrt_lowio_ensure_console_output_initialized 1004b265 f   libucrt:initcon.obj
 0001:0004a284       ___dcrt_terminate_console_output 1004b284 f   libucrt:initcon.obj
 0001:0004a29b       ___dcrt_write_console      1004b29b f   libucrt:initcon.obj
 0001:0004a2f0       ___ascii_wcsnicmp          1004b2f0 f   libucrt:wcsnicmp.obj
 0001:0004a33f       __towlower_fast_internal   1004b33f f i libucrt:wcsnicmp.obj
 0001:0004a36a       __towlower_internal        1004b36a f i libucrt:wcsnicmp.obj
 0001:0004a3a9       __wcsnicmp                 1004b3a9 f   libucrt:wcsnicmp.obj
 0001:0004a3f5       __wcsnicmp_l               1004b3f5 f   libucrt:wcsnicmp.obj
 0001:0004a4c8       __strnicmp                 1004b4c8 f   libucrt:strnicmp.obj
 0001:0004a535       __strnicmp_l               1004b535 f   libucrt:strnicmp.obj
 0001:0004a5fe       ___p__commode              1004b5fe f   libucrt:ncommode.obj
 0001:0004a767       __commit                   1004b767 f   libucrt:commit.obj
 0001:0004a7e4       ___acrt_stdio_allocate_buffer_nolock 1004b7e4 f   libucrt:_getbuf.obj
 0001:0004a900       _qsort                     1004b900 f   libucrt:qsort.obj
 0001:0004adf0       _strpbrk                   1004bdf0 f   libucrt:strpbrk.obj
 0001:0004ae30       __mbsdec                   1004be30 f   libucrt:mbsdec.obj
 0001:0004ae47       __mbsdec_l                 1004be47 f   libucrt:mbsdec.obj
 0001:0004aed4       ??B?$__crt_scoped_stack_ptr@_W@@QBE_NXZ 1004bed4 f i libucrt:lcmapstringa.obj
 0001:0004b0c5       ___acrt_LCMapStringA       1004c0c5 f   libucrt:lcmapstringa.obj
 0001:0004b11d       __wcsnicoll                1004c11d f   libucrt:wcsnicol.obj
 0001:0004b18a       __wcsnicoll_l              1004c18a f   libucrt:wcsnicol.obj
 0001:0004b24a       __strnicoll                1004c24a f   libucrt:strnicol.obj
 0001:0004b273       __strnicoll_l              1004c273 f   libucrt:strnicol.obj
 0001:0004b40e       ___acrt_SetEnvironmentVariableA 1004c40e f   libucrt:setenvironmentvariablea.obj
 0001:0004b4a3       __msize                    1004c4a3 f   libucrt:msize.obj
 0001:0004b4ae       __msize_base               1004c4ae f   libucrt:msize.obj
 0001:0004b4e1       __realloc_base             1004c4e1 f   libucrt:realloc_base.obj
 0001:0004b54a       ___acrt_GetStringTypeW     1004c54a f   libucrt:getstringtypew.obj
 0001:0004b563       __set_error_mode           1004c563 f   libucrt:set_error_mode.obj
 0001:0004b69d       ??$message_box@$$TABQBDABQBDK@?$__crt_char_traits@D@@SAH$$QA$$TABQBD1$$QAK@Z 1004c69d f i libucrt:crtmbox.obj
 0001:0004b6bd       ??$message_box@$$TABQB_WABQB_WK@?$__crt_char_traits@_W@@SAH$$QA$$TABQB_W1$$QAK@Z 1004c6bd f i libucrt:crtmbox.obj
 0001:0004b6dd       ??$message_box@PAUHWND__@@ABQBDABQBDABI@?$__crt_char_traits@D@@SAH$$QAPAUHWND__@@ABQBD1ABI@Z 1004c6dd f i libucrt:crtmbox.obj
 0001:0004b6fd       ??$message_box@PAUHWND__@@ABQB_WABQB_WABI@?$__crt_char_traits@_W@@SAH$$QAPAUHWND__@@ABQB_W1ABI@Z 1004c6fd f i libucrt:crtmbox.obj
 0001:0004b71d       ??$output_debug_string@ABQBD@?$__crt_char_traits@D@@SAXABQBD@Z 1004c71d f i libucrt:crtmbox.obj
 0001:0004b72e       ??$output_debug_string@ABQB_W@?$__crt_char_traits@_W@@SAXABQB_W@Z 1004c72e f i libucrt:crtmbox.obj
 0001:0004b740       ___acrt_show_narrow_message_box 1004c740 f   libucrt:crtmbox.obj
 0001:0004b74b       ___acrt_show_wide_message_box 1004c74b f   libucrt:crtmbox.obj
 0001:0004b835       ___acrt_GetLocaleInfoA     1004c835 f   libucrt:getlocaleinfoa.obj
 0001:0004bea5       __i64toa                   1004cea5 f   libucrt:xtoa.obj
 0001:0004bee6       __i64toa_s                 1004cee6 f   libucrt:xtoa.obj
 0001:0004bf25       __i64tow                   1004cf25 f   libucrt:xtoa.obj
 0001:0004bf66       __i64tow_s                 1004cf66 f   libucrt:xtoa.obj
 0001:0004bfa5       __itoa                     1004cfa5 f   libucrt:xtoa.obj
 0001:0004bfda       __itoa_s                   1004cfda f   libucrt:xtoa.obj
 0001:0004c00d       __itow                     1004d00d f   libucrt:xtoa.obj
 0001:0004c042       __itow_s                   1004d042 f   libucrt:xtoa.obj
 0001:0004c075       __ltoa                     1004d075 f   libucrt:xtoa.obj
 0001:0004c0aa       __ltoa_s                   1004d0aa f   libucrt:xtoa.obj
 0001:0004c0dd       __ltow                     1004d0dd f   libucrt:xtoa.obj
 0001:0004c112       __ltow_s                   1004d112 f   libucrt:xtoa.obj
 0001:0004c145       __ui64toa                  1004d145 f   libucrt:xtoa.obj
 0001:0004c167       __ui64toa_s                1004d167 f   libucrt:xtoa.obj
 0001:0004c187       __ui64tow                  1004d187 f   libucrt:xtoa.obj
 0001:0004c1a9       __ui64tow_s                1004d1a9 f   libucrt:xtoa.obj
 0001:0004c1c9       __ultoa                    1004d1c9 f   libucrt:xtoa.obj
 0001:0004c1e8       __ultoa_s                  1004d1e8 f   libucrt:xtoa.obj
 0001:0004c205       __ultow                    1004d205 f   libucrt:xtoa.obj
 0001:0004c224       __ultow_s                  1004d224 f   libucrt:xtoa.obj
 0001:0004c241       ___ascii_wcsicmp           1004d241 f   libucrt:wcsicmp.obj
 0001:0004c27e       __wcsicmp                  1004d27e f   libucrt:wcsicmp.obj
 0001:0004c2c7       __wcsicmp_l                1004d2c7 f   libucrt:wcsicmp.obj
 0001:0004c37f       __controlfp_s              1004d37f f   libucrt:contrlfp.obj
 0001:0004c3de       _fegetenv                  1004d3de f   libucrt:fegetenv.obj
 0001:0004c3fb       _fesetenv                  1004d3fb f   libucrt:fesetenv.obj
 0001:0004c446       _feholdexcept              1004d446 f   libucrt:feholdexcept.obj
 0001:0004c4a0       __CIlog10                  1004d4a0 f   libucrt:log10_impl.obj
 0001:0004c4db       __CIlog10_default          1004d4db f   libucrt:log10_impl.obj
 0001:0004c4ef       __log10_default            1004d4ef     libucrt:log10_impl.obj
 0001:0004c5b0       _ceil                      1004d5b0 f   libucrt:ceil_pentium4.obj
 0001:0004c5f0       __ceil_pentium4            1004d5f0 f   libucrt:ceil_pentium4.obj
 0001:0004c6cd       ??$__acrt_fenv_shift_bits@W4__acrt_fenv_abstract_control@@@@YA?AW4__acrt_fenv_abstract_control@@W40@0I@Z 1004d6cd f i libucrt:_fenvutils.obj
 0001:0004c6df       ??$__acrt_fenv_shift_bits@W4__acrt_fenv_abstract_status@@@@YA?AW4__acrt_fenv_abstract_status@@W40@0I@Z 1004d6df f i libucrt:_fenvutils.obj
 0001:0004c6f1       ??$__acrt_fenv_translate_bit@W4__acrt_fenv_abstract_control@@W4__acrt_fenv_machine_sse_control@@@@YA?AW4__acrt_fenv_abstract_control@@W4__acrt_fenv_machine_sse_control@@0W40@1@Z 1004d6f1 f i libucrt:_fenvutils.obj
 0001:0004c709       ??$__acrt_fenv_translate_bit@W4__acrt_fenv_abstract_control@@W4__acrt_fenv_machine_x87_control@@@@YA?AW4__acrt_fenv_abstract_control@@W4__acrt_fenv_machine_x87_control@@0W40@1@Z 1004d709 f i libucrt:_fenvutils.obj
 0001:0004c721       ??$__acrt_fenv_translate_bit@W4__acrt_fenv_abstract_status@@W4__acrt_fenv_machine_sse_status@@@@YA?AW4__acrt_fenv_abstract_status@@W4__acrt_fenv_machine_sse_status@@0W40@1@Z 1004d721 f i libucrt:_fenvutils.obj
 0001:0004c736       ??$__acrt_fenv_translate_bit@W4__acrt_fenv_abstract_status@@W4__acrt_fenv_machine_x87_status@@@@YA?AW4__acrt_fenv_abstract_status@@W4__acrt_fenv_machine_x87_status@@0W40@1@Z 1004d736 f i libucrt:_fenvutils.obj
 0001:0004c74b       ??$__acrt_fenv_translate_bit@W4__acrt_fenv_machine_sse_control@@W4__acrt_fenv_abstract_control@@@@YA?AW4__acrt_fenv_machine_sse_control@@W4__acrt_fenv_abstract_control@@0W40@1@Z 1004d74b f i libucrt:_fenvutils.obj
 0001:0004c762       ??$__acrt_fenv_translate_bit@W4__acrt_fenv_machine_sse_status@@W4__acrt_fenv_abstract_status@@@@YA?AW4__acrt_fenv_machine_sse_status@@W4__acrt_fenv_abstract_status@@0W40@1@Z 1004d762 f i libucrt:_fenvutils.obj
 0001:0004c777       ??$__acrt_fenv_translate_bit@W4__acrt_fenv_machine_x87_control@@W4__acrt_fenv_abstract_control@@@@YA?AW4__acrt_fenv_machine_x87_control@@W4__acrt_fenv_abstract_control@@0W40@1@Z 1004d777 f i libucrt:_fenvutils.obj
 0001:0004c78e       ??$__acrt_fenv_translate_bit@W4__acrt_fenv_machine_x87_status@@W4__acrt_fenv_abstract_status@@@@YA?AW4__acrt_fenv_machine_x87_status@@W4__acrt_fenv_abstract_status@@0W40@1@Z 1004d78e f i libucrt:_fenvutils.obj
 0001:0004c7a3       ??$__acrt_fenv_unshift_bits@W4__acrt_fenv_abstract_control@@@@YA?AW4__acrt_fenv_abstract_control@@W40@0I@Z 1004d7a3 f i libucrt:_fenvutils.obj
 0001:0004c7b5       ??$__acrt_fenv_unshift_bits@W4__acrt_fenv_abstract_status@@@@YA?AW4__acrt_fenv_abstract_status@@W40@0I@Z 1004d7b5 f i libucrt:_fenvutils.obj
 0001:0004cc5a       ??I@YA?AW4__acrt_fenv_abstract_control@@W40@0@Z 1004dc5a f i libucrt:_fenvutils.obj
 0001:0004cc67       ??I@YA?AW4__acrt_fenv_abstract_status@@W40@0@Z 1004dc67 f i libucrt:_fenvutils.obj
 0001:0004cc74       ??I@YA?AW4__acrt_fenv_machine_sse_control@@W40@0@Z 1004dc74 f i libucrt:_fenvutils.obj
 0001:0004cc81       ??I@YA?AW4__acrt_fenv_machine_sse_status@@W40@0@Z 1004dc81 f i libucrt:_fenvutils.obj
 0001:0004cc8e       ??I@YA?AW4__acrt_fenv_machine_x87_control@@W40@0@Z 1004dc8e f i libucrt:_fenvutils.obj
 0001:0004cc9b       ??I@YA?AW4__acrt_fenv_machine_x87_status@@W40@0@Z 1004dc9b f i libucrt:_fenvutils.obj
 0001:0004cca8       ??U@YA?AW4__acrt_fenv_abstract_control@@W40@0@Z 1004dca8 f i libucrt:_fenvutils.obj
 0001:0004ccb5       ??U@YA?AW4__acrt_fenv_abstract_status@@W40@0@Z 1004dcb5 f i libucrt:_fenvutils.obj
 0001:0004ccc2       ??U@YA?AW4__acrt_fenv_machine_sse_control@@W40@0@Z 1004dcc2 f i libucrt:_fenvutils.obj
 0001:0004cccf       ??U@YA?AW4__acrt_fenv_machine_x87_control@@W40@0@Z 1004dccf f i libucrt:_fenvutils.obj
 0001:0004ccdc       ??_5@YAAAW4__acrt_fenv_abstract_control@@AAW40@W40@@Z 1004dcdc f i libucrt:_fenvutils.obj
 0001:0004cceb       ??_5@YAAAW4__acrt_fenv_abstract_status@@AAW40@W40@@Z 1004dceb f i libucrt:_fenvutils.obj
 0001:0004ccfa       ??_5@YAAAW4__acrt_fenv_machine_sse_control@@AAW40@W40@@Z 1004dcfa f i libucrt:_fenvutils.obj
 0001:0004cd0b       ??_5@YAAAW4__acrt_fenv_machine_sse_status@@AAW40@W40@@Z 1004dd0b f i libucrt:_fenvutils.obj
 0001:0004cd1a       ??_5@YAAAW4__acrt_fenv_machine_x87_control@@AAW40@W40@@Z 1004dd1a f i libucrt:_fenvutils.obj
 0001:0004cd2b       ??_5@YAAAW4__acrt_fenv_machine_x87_status@@AAW40@W40@@Z 1004dd2b f i libucrt:_fenvutils.obj
 0001:0004cd3a       ?__acrt_fenv_shift_abstract_sse_control@@YA?AW4__acrt_fenv_abstract_control@@W41@@Z 1004dd3a f i libucrt:_fenvutils.obj
 0001:0004cd57       ?__acrt_fenv_shift_abstract_sse_status@@YA?AW4__acrt_fenv_abstract_status@@W41@@Z 1004dd57 f i libucrt:_fenvutils.obj
 0001:0004cd67       ?__acrt_fenv_shift_abstract_x87_control@@YA?AW4__acrt_fenv_abstract_control@@W41@@Z 1004dd67 f i libucrt:_fenvutils.obj
 0001:0004cd84       ?__acrt_fenv_shift_abstract_x87_status@@YA?AW4__acrt_fenv_abstract_status@@W41@@Z 1004dd84 f i libucrt:_fenvutils.obj
 0001:0004cd94       ?__acrt_fenv_unshift_abstract_sse_control@@YA?AW4__acrt_fenv_abstract_control@@W41@@Z 1004dd94 f i libucrt:_fenvutils.obj
 0001:0004cdb3       ?__acrt_fenv_unshift_abstract_sse_status@@YA?AW4__acrt_fenv_abstract_status@@W41@@Z 1004ddb3 f i libucrt:_fenvutils.obj
 0001:0004cdc3       ?__acrt_fenv_unshift_abstract_x87_control@@YA?AW4__acrt_fenv_abstract_control@@W41@@Z 1004ddc3 f i libucrt:_fenvutils.obj
 0001:0004cde2       ?__acrt_fenv_unshift_abstract_x87_status@@YA?AW4__acrt_fenv_abstract_status@@W41@@Z 1004dde2 f i libucrt:_fenvutils.obj
 0001:0004d351       ___acrt_fenv_expand_round_control 1004e351 f   libucrt:_fenvutils.obj
 0001:0004d387       ___acrt_fenv_get_common_round_control 1004e387 f   libucrt:_fenvutils.obj
 0001:0004d3a9       ___acrt_fenv_get_control   1004e3a9 f   libucrt:_fenvutils.obj
 0001:0004d429       ___acrt_fenv_get_fp_status_word_from_exception_mask 1004e429 f   libucrt:_fenvutils.obj
 0001:0004d443       ___acrt_fenv_get_status    1004e443 f   libucrt:_fenvutils.obj
 0001:0004d4fb       ___acrt_fenv_set_control   1004e4fb f   libucrt:_fenvutils.obj
 0001:0004d563       ___acrt_fenv_set_status    1004e563 f   libucrt:_fenvutils.obj
 0001:0004d65a       __towlower_l               1004e65a f   libucrt:towlower.obj
 0001:0004d6fc       _towlower                  1004e6fc f   libucrt:towlower.obj
 0001:0004d710       ___ascii_strnicmp          1004e710 f   libucrt:_strnicm.obj
 0001:0004d771       ___strncnt                 1004e771 f   libucrt:strncnt.obj
 0001:0004d78d       ___acrt_CompareStringW     1004e78d f   libucrt:comparestringw.obj
 0001:0004da7d       ___acrt_CompareStringA     1004ea7d f   libucrt:comparestringa.obj
 0001:0004dac3       ___acrt_OutputDebugStringA@4 1004eac3 f   libucrt:outputdebugstringa.obj
 0001:0004dc75       ___control87_2             1004ec75 f   libucrt:ieee87.obj
 0001:0004e10d       ___fpreset_sse2            1004f10d f   libucrt:ieee87.obj
 0001:0004e2e3       __clearfp                  1004f2e3 f   libucrt:ieee87.obj
 0001:0004e3c1       __control87                1004f3c1 f   libucrt:ieee87.obj
 0001:0004e6c2       __controlfp                1004f6c2 f   libucrt:ieee87.obj
 0001:0004e6dc       __fpreset                  1004f6dc f   libucrt:ieee87.obj
 0001:0004e7b2       __set_controlfp            1004f7b2 f   libucrt:ieee87.obj
 0001:0004e825       __statusfp                 1004f825 f   libucrt:ieee87.obj
 0001:0004e8c0       __statusfp2                1004f8c0 f   libucrt:ieee87.obj
 0001:0004e923       ___acrt_initialize_sse2    1004f923 f   libucrt:mathfcns.obj
 0001:0004e933       __set_SSE2_enable          1004f933 f   libucrt:mathfcns.obj
 0001:0004e960       __CIlog10_pentium4         1004f960 f   libucrt:log10_pentium4.obj
 0001:0004e978       __log10_pentium4           1004f978     libucrt:log10_pentium4.obj
 0001:0004ec10       __fFEXP                    1004fc10 f   libucrt:87tran.obj
 0001:0004ec67       __rtinfpopse               1004fc67     libucrt:87tran.obj
 0001:0004ec69       __rtinfnpopse              1004fc69     libucrt:87tran.obj
 0001:0004ec79       __fFLN                     1004fc79     libucrt:87tran.obj
 0001:0004ed2e       __rtinfpop                 1004fd2e     libucrt:87tran.obj
 0001:0004ed30       __rtinfnpop                1004fd30     libucrt:87tran.obj
 0001:0004ed40       __rtforexpinf              1004fd40 f   libucrt:87tran.obj
 0001:0004ed4d       __ffexpm1                  1004fd4d     libucrt:87tran.obj
 0001:0004ee00       __trandisp1                1004fe00 f   libucrt:87disp.obj
 0001:0004ee75       __trandisp2                1004fe75 f   libucrt:87disp.obj
 0001:0004ef0f       __rttospopde               1004ff0f     libucrt:87disp.obj
 0001:0004ef14       __rttospop                 1004ff14     libucrt:87disp.obj
 0001:0004ef20       __rtnospop                 1004ff20 f   libucrt:87disp.obj
 0001:0004ef30       __rttosnpop                1004ff30 f   libucrt:87disp.obj
 0001:0004ef31       __rtnospopde               1004ff31     libucrt:87disp.obj
 0001:0004ef38       __rtzeropop                1004ff38     libucrt:87disp.obj
 0001:0004ef3a       __rtzeronpop               1004ff3a     libucrt:87disp.obj
 0001:0004ef40       __rtzerospop               1004ff40 f   libucrt:87disp.obj
 0001:0004ef4d       __rtonepop                 1004ff4d     libucrt:87disp.obj
 0001:0004ef50       __rtonenpop                1004ff50 f   libucrt:87disp.obj
 0001:0004ef60       __tosnan1                  1004ff60 f   libucrt:87disp.obj
 0001:0004ef90       __nosnan2                  1004ff90 f   libucrt:87disp.obj
 0001:0004efa0       __tosnan2                  1004ffa0 f   libucrt:87disp.obj
 0001:0004efd0       __nan2                     1004ffd0 f   libucrt:87disp.obj
 0001:0004f010       __rtindfpop                10050010 f   libucrt:87disp.obj
 0001:0004f012       __rtindfnpop               10050012     libucrt:87disp.obj
 0001:0004f023       __rttosnpopde              10050023     libucrt:87disp.obj
 0001:0004f030       __rtatan2inf               10050030 f   libucrt:87disp.obj
 0001:0004f04d       __rtchsifneg               1005004d     libucrt:87disp.obj
 0001:0004f054       ___setfflag                10050054 f   libucrt:fp_flags.obj
 0001:0004f070       __twoToTOS                 10050070 f   libucrt:common.obj
 0001:0004f085       __load_CW                  10050085 f   libucrt:common.obj
 0001:0004f09c       __convertTOStoQNaN         1005009c f   libucrt:common.obj
 0001:0004f0b5       __fload_withFB             100500b5 f   libucrt:common.obj
 0001:0004f0f8       __checkTOS_withFB          100500f8 f   libucrt:common.obj
 0001:0004f10e       __fast_exit                1005010e f   libucrt:common.obj
 0001:0004f11b       __math_exit                1005011b f   libucrt:common.obj
 0001:0004f145       __check_overflow_exit      10050145 f   libucrt:common.obj
 0001:0004f159       __check_range_exit         10050159 f   libucrt:common.obj
 0001:0004f200       __startTwoArgErrorHandling 10050200 f   libucrt:genexcep.obj
 0001:0004f217       __startOneArgErrorHandling 10050217 f   libucrt:genexcep.obj
 0001:0004f253       ___libm_error_support      10050253 f   libucrt:libm_error.obj
 0001:0004f447       ___libm_setusermatherr     10050447 f   libucrt:libm_error.obj
 0001:0004f46e       __ceil_default             1005046e f   libucrt:ceil.obj
 0001:0004f523       ___acrt_LCMapStringW       10050523 f   libucrt:lcmapstringw.obj
 0001:0004f561       ___clrfp_sse2              10050561 f   libucrt:fpctrl.obj
 0001:0004f593       ___ctrlfp_sse2             10050593 f   libucrt:fpctrl.obj
 0001:0004f5ce       ___fclrf_sse2              100505ce f   libucrt:fpctrl.obj
 0001:0004f5eb       ___get_fpsr_sse2           100505eb f   libucrt:fpctrl.obj
 0001:0004f607       ___set_fpsr_sse2           10050607 f   libucrt:fpctrl.obj
 0001:0004f687       ___set_statfp_sse2         10050687 f   libucrt:fpctrl.obj
 0001:0004f6a2       ___statfp_sse2             100506a2 f   libucrt:fpctrl.obj
 0001:0004f6b7       __clrfp                    100506b7 f   libucrt:fpctrl.obj
 0001:0004f6c8       __ctrlfp                   100506c8 f   libucrt:fpctrl.obj
 0001:0004f6f2       __set_statfp               100506f2 f   libucrt:fpctrl.obj
 0001:0004f74b       __statfp                   1005074b f   libucrt:fpctrl.obj
 0001:0004f75b       __d_inttype                1005075b f   libucrt:powhlp.obj
 0001:0004f7c3       __powhlp                   100507c3 f   libucrt:powhlp.obj
 0001:0004f8ee       __87except                 100508ee f   libucrt:87except.obj
 0001:0004f9f8       __frnd                     100509f8 f   libucrt:frnd.obj
 0001:0004fa0c       __errcode                  10050a0c f   libucrt:fpexcept.obj
 0001:0004fa40       __except1                  10050a40 f   libucrt:fpexcept.obj
 0001:0004fb0e       __except2                  10050b0e f   libucrt:fpexcept.obj
 0001:0004fc16       __handle_exc               10050c16 f   libucrt:fpexcept.obj
 0001:0004fe01       __handle_qnan2             10050e01 f   libucrt:fpexcept.obj
 0001:0004fe0e       __raise_exc                10050e0e f   libucrt:fpexcept.obj
 0001:0004fe31       __raise_exc_ex             10050e31 f   libucrt:fpexcept.obj
 0001:00050127       __raise_excf               10051127 f   libucrt:fpexcept.obj
 0001:0005014a       __set_errno_from_matherr   1005114a f   libucrt:fpexcept.obj
 0001:00050179       __umatherr                 10051179 f   libucrt:fpexcept.obj
 0001:00050219       __add_exp                  10051219 f   libucrt:util.obj
 0001:00050248       __decomp                   10051248 f   libucrt:util.obj
 0001:0005031a       __get_exp                  1005131a f   libucrt:util.obj
 0001:00050332       __set_bexp                 10051332 f   libucrt:util.obj
 0001:00050359       __set_exp                  10051359 f   libucrt:util.obj
 0001:00050386       __sptype                   10051386 f   libucrt:util.obj
 0001:000503e4       __chgsign                  100513e4 f   libucrt:ieeemisc.obj
 0001:0005040c       __chgsignf                 1005140c f   libucrt:ieeemisc.obj
 0001:0005042d       __copysign                 1005142d f   libucrt:ieeemisc.obj
 0001:00050450       __copysignf                10051450 f   libucrt:ieeemisc.obj
 0001:0005046c       __finite                   1005146c f   libucrt:ieeemisc.obj
 0001:00050486       __fpclass                  10051486 f   libucrt:ieeemisc.obj
 0001:0005052a       __isnan                    1005152a f   libucrt:ieeemisc.obj
 0001:00050560       __logb                     10051560 f   libucrt:ieeemisc.obj
 0001:0005062f       __nextafter                1005162f f   libucrt:ieeemisc.obj
 0001:0005064e       __scalb                    1005164e f   libucrt:ieeemisc.obj
 0001:00050668       _ldexp                     10051668 f   libucrt:ldexp.obj
 0001:0005085a       _nextafter                 1005185a f   libucrt:nextafter.obj
 0001:00050879       _nexttoward                10051879 f   libucrt:nexttoward.obj
 0001:00050a4a       __d_int                    10051a4a f   libucrt:_test.obj
 0001:00050b50       __dtest                    10051b50 f   libucrt:_test.obj
 0001:00050bb4       __fd_int                   10051bb4 f   libucrt:_test.obj
 0001:00050c81       __fdtest                   10051c81 f   libucrt:_test.obj
 0001:00050ccf       __fperrraise               10051ccf f   libucrt:_test.obj
 0001:00050cf0       __ld_int                   10051cf0 f   libucrt:_test.obj
 0001:00050cfb       __ldtest                   10051cfb f   libucrt:_test.obj
 0001:00050d06       ??_4@YAAAW4__acrt_fenv_abstract_status@@AAW40@W40@@Z 10051d06 f i libucrt:fegetexceptflag.obj
 0001:00050d15       _fegetexceptflag           10051d15 f   libucrt:fegetexceptflag.obj
 0001:00050d46       ??S@YA?AW4__acrt_fenv_abstract_status@@W40@@Z 10051d46 f i libucrt:fesetexceptflag.obj
 0001:00050d52       _fesetexceptflag           10051d52 f   libucrt:fesetexceptflag.obj
 0001:00050dab       _fetestexcept              10051dab f   libucrt:fetestexcept.obj
 0001:00050dcb       _QueryPerformanceCounter@4 10051dcb f   kernel32:KERNEL32.dll
 0001:00050dd1       _GetCurrentProcessId@0     10051dd1 f   kernel32:KERNEL32.dll
 0001:00050dd7       _GetCurrentThreadId@0      10051dd7 f   kernel32:KERNEL32.dll
 0001:00050ddd       _GetSystemTimeAsFileTime@4 10051ddd f   kernel32:KERNEL32.dll
 0001:00050de3       _InitializeSListHead@4     10051de3 f   kernel32:KERNEL32.dll
 0001:00050de9       _IsDebuggerPresent@0       10051de9 f   kernel32:KERNEL32.dll
 0001:00050def       _UnhandledExceptionFilter@4 10051def f   kernel32:KERNEL32.dll
 0001:00050df5       _SetUnhandledExceptionFilter@4 10051df5 f   kernel32:KERNEL32.dll
 0001:00050dfb       _GetStartupInfoW@4         10051dfb f   kernel32:KERNEL32.dll
 0001:00050e01       _IsProcessorFeaturePresent@4 10051e01 f   kernel32:KERNEL32.dll
 0001:00050e07       _GetModuleHandleW@4        10051e07 f   kernel32:KERNEL32.dll
 0001:00050e0d       _GetCurrentProcess@0       10051e0d f   kernel32:KERNEL32.dll
 0001:00050e13       _TerminateProcess@8        10051e13 f   kernel32:KERNEL32.dll
 0001:00050e19       _InterlockedPushEntrySList@8 10051e19 f   kernel32:KERNEL32.dll
 0001:00050e1f       _InterlockedFlushSList@4   10051e1f f   kernel32:KERNEL32.dll
 0001:00050e25       _RtlUnwind@16              10051e25 f   kernel32:KERNEL32.dll
 0001:00050e2b       _SetLastError@4            10051e2b f   kernel32:KERNEL32.dll
 0001:00050e31       _EnterCriticalSection@4    10051e31 f   kernel32:KERNEL32.dll
 0001:00050e37       _LeaveCriticalSection@4    10051e37 f   kernel32:KERNEL32.dll
 0001:00050e3d       _DeleteCriticalSection@4   10051e3d f   kernel32:KERNEL32.dll
 0001:00050e43       _InitializeCriticalSectionAndSpinCount@8 10051e43 f   kernel32:KERNEL32.dll
 0001:00050e49       _TlsAlloc@0                10051e49 f   kernel32:KERNEL32.dll
 0001:00050e4f       _TlsGetValue@4             10051e4f f   kernel32:KERNEL32.dll
 0001:00050e55       _TlsSetValue@8             10051e55 f   kernel32:KERNEL32.dll
 0001:00050e5b       _TlsFree@4                 10051e5b f   kernel32:KERNEL32.dll
 0001:00050e61       _FreeLibrary@4             10051e61 f   kernel32:KERNEL32.dll
 0001:00050e67       _GetProcAddress@8          10051e67 f   kernel32:KERNEL32.dll
 0001:00050e6d       _LoadLibraryExW@12         10051e6d f   kernel32:KERNEL32.dll
 0001:00050e73       _EncodePointer@4           10051e73 f   kernel32:KERNEL32.dll
 0001:00050e79       _RaiseException@16         10051e79 f   kernel32:KERNEL32.dll
 0001:00050e7f       _SetFilePointerEx@20       10051e7f f   kernel32:KERNEL32.dll
 0001:00050e85       _GetFileType@4             10051e85 f   kernel32:KERNEL32.dll
 0001:00050e8b       _GetConsoleMode@8          10051e8b f   kernel32:KERNEL32.dll
 0001:00050e91       _ReadConsoleW@20           10051e91 f   kernel32:KERNEL32.dll
 0001:00050e97       _GetConsoleOutputCP@0      10051e97 f   kernel32:KERNEL32.dll
 0001:00050e9d       _ExitProcess@4             10051e9d f   kernel32:KERNEL32.dll
 0001:00050ea3       _GetModuleHandleExW@12     10051ea3 f   kernel32:KERNEL32.dll
 0001:00050ea9       _GetModuleFileNameW@12     10051ea9 f   kernel32:KERNEL32.dll
 0001:00050eaf       _SetStdHandle@8            10051eaf f   kernel32:KERNEL32.dll
 0001:00050eb5       _GetStdHandle@4            10051eb5 f   kernel32:KERNEL32.dll
 0001:00050ebb       _HeapFree@12               10051ebb f   kernel32:KERNEL32.dll
 0001:00050ec1       _HeapAlloc@12              10051ec1 f   kernel32:KERNEL32.dll
 0001:00050ec7       _MultiByteToWideChar@24    10051ec7 f   kernel32:KERNEL32.dll
 0001:00050ecd       _GetCurrentThread@0        10051ecd f   kernel32:KERNEL32.dll
 0001:00050ed3       _GetDateFormatW@24         10051ed3 f   kernel32:KERNEL32.dll
 0001:00050ed9       _GetTimeFormatW@24         10051ed9 f   kernel32:KERNEL32.dll
 0001:00050edf       _CompareStringW@24         10051edf f   kernel32:KERNEL32.dll
 0001:00050ee5       _LCMapStringW@24           10051ee5 f   kernel32:KERNEL32.dll
 0001:00050eeb       _GetLocaleInfoW@16         10051eeb f   kernel32:KERNEL32.dll
 0001:00050ef1       _IsValidLocale@8           10051ef1 f   kernel32:KERNEL32.dll
 0001:00050ef7       _GetUserDefaultLCID@0      10051ef7 f   kernel32:KERNEL32.dll
 0001:00050efd       _EnumSystemLocalesW@8      10051efd f   kernel32:KERNEL32.dll
 0001:00050f03       _SetEndOfFile@4            10051f03 f   kernel32:KERNEL32.dll
 0001:00050f09       _WideCharToMultiByte@32    10051f09 f   kernel32:KERNEL32.dll
 0001:00050f0f       _GetFileSizeEx@8           10051f0f f   kernel32:KERNEL32.dll
 0001:00050f15       _FindClose@4               10051f15 f   kernel32:KERNEL32.dll
 0001:00050f1b       _FindFirstFileExW@24       10051f1b f   kernel32:KERNEL32.dll
 0001:00050f21       _FindNextFileW@8           10051f21 f   kernel32:KERNEL32.dll
 0001:00050f27       _IsValidCodePage@4         10051f27 f   kernel32:KERNEL32.dll
 0001:00050f2d       _GetACP@0                  10051f2d f   kernel32:KERNEL32.dll
 0001:00050f33       _GetOEMCP@0                10051f33 f   kernel32:KERNEL32.dll
 0001:00050f39       _GetCPInfo@8               10051f39 f   kernel32:KERNEL32.dll
 0001:00050f3f       _GetCommandLineA@0         10051f3f f   kernel32:KERNEL32.dll
 0001:00050f45       _GetCommandLineW@0         10051f45 f   kernel32:KERNEL32.dll
 0001:00050f4b       _GetEnvironmentStringsW@0  10051f4b f   kernel32:KERNEL32.dll
 0001:00050f51       _FreeEnvironmentStringsW@4 10051f51 f   kernel32:KERNEL32.dll
 0001:00050f57       _SetEnvironmentVariableW@8 10051f57 f   kernel32:KERNEL32.dll
 0001:00050f5d       _GetProcessHeap@0          10051f5d f   kernel32:KERNEL32.dll
 0001:00050f63       _SetConsoleCtrlHandler@8   10051f63 f   kernel32:KERNEL32.dll
 0001:00050f69       _GetStringTypeW@16         10051f69 f   kernel32:KERNEL32.dll
 0001:00050f6f       _WriteConsoleW@20          10051f6f f   kernel32:KERNEL32.dll
 0001:00050f75       _FlushFileBuffers@4        10051f75 f   kernel32:KERNEL32.dll
 0001:00050f7b       _HeapSize@12               10051f7b f   kernel32:KERNEL32.dll
 0001:00050f81       _HeapReAlloc@16            10051f81 f   kernel32:KERNEL32.dll
 0001:00050f87       _OutputDebugStringW@4      10051f87 f   kernel32:KERNEL32.dll
 0001:00050f8d       _DecodePointer@4           10051f8d f   kernel32:KERNEL32.dll
 0001:00050fa0       __FindPESection            10051fa0 f   LIBCMT:pesect.obj
 0001:00050ff0       __IsNonwritableInCurrentImage 10051ff0 f   LIBCMT:pesect.obj
 0001:000510b0       __ValidateImageBase        100520b0 f   LIBCMT:pesect.obj
 0001:000510e1       ??1type_info@@UAE@XZ       100520e1 f   LIBCMT:std_type_info_static.obj
 0001:000510e8       ??_Gtype_info@@UAEPAXI@Z   100520e8 f i LIBCMT:std_type_info_static.obj
 0001:000510e8       ??_Etype_info@@UAEPAXI@Z   100520e8 f i LIBCMT:std_type_info_static.obj
 0001:0005110b       __EH_epilog3               1005210b f   LIBCMT:ehprolg3.obj
 0001:0005111f       __EH_epilog3_GS            1005211f f   LIBCMT:ehprolg3.obj
 0001:0005112e       __EH_epilog3_catch_GS      1005212e f   LIBCMT:ehprolg3.obj
 0001:0005113d       __EH_prolog3               1005213d f   LIBCMT:ehprolg3.obj
 0001:00051170       __EH_prolog3_GS            10052170 f   LIBCMT:ehprolg3.obj
 0001:000511a6       __EH_prolog3_catch         100521a6 f   LIBCMT:ehprolg3.obj
 0001:000511dc       __EH_prolog3_catch_GS      100521dc f   LIBCMT:ehprolg3.obj
 0001:00051220       __aulldiv                  10052220 f   LIBCMT:ulldiv.obj
 0001:00051290       __aullrem                  10052290 f   LIBCMT:ullrem.obj
 0001:00051305       ??3@YAXPAXI@Z              10052305 f   LIBCMT:delete_scalar_size.obj
 0001:00051320       __aulldvrm                 10052320 f   LIBCMT:ulldvrm.obj
 0001:000513c0       __chkstk                   100523c0 f   LIBCMT:chkstk.obj
 0001:000513c0       __alloca_probe             100523c0 f   LIBCMT:chkstk.obj
 0001:000513f0       __alldiv                   100523f0 f   LIBCMT:lldiv.obj
 0001:000514a0       __alldvrm                  100524a0 f   LIBCMT:lldvrm.obj
 0001:00051580       __allrem                   10052580 f   LIBCMT:llrem.obj
 0001:00051640       __allmul                   10052640 f   LIBCMT:llmul.obj
 0001:00051680       __allshl                   10052680 f   LIBCMT:llshl.obj
 0001:000516a0       __aullshr                  100526a0 f   LIBCMT:ullshr.obj
 0001:000516c0       __alloca_probe_16          100526c0 f   LIBCMT:alloca16.obj
 0001:000516d6       __alloca_probe_8           100526d6     LIBCMT:alloca16.obj
 0001:000516f0       __ftol2_sse_excpt          100526f0 f   LIBCMT:ftol2.obj
 0001:00051700       __ftol2_sse                10052700 f   LIBCMT:ftol2.obj
 0001:00051710       __ftoi2                    10052710 f   LIBCMT:ftol2.obj
 0001:00051790       __ftoui2                   10052790 f   LIBCMT:ftol2.obj
 0001:00051840       __ftol2                    10052840 f   LIBCMT:ftol2.obj
 0001:000518f0       __ftoul2                   100528f0 f   LIBCMT:ftol2.obj
 0001:000519a9       __initialize_default_precision 100529a9 f   LIBCMT:default_precision.obj
 0001:000519ca       ??3@YAXPAX@Z               100529ca f   LIBCMT:delete_scalar.obj
 0001:00051aec       _memcmp                    10052aec f   libvcruntime:memcmp.obj
 0001:00054750       _strrchr                   10055750 f   libvcruntime:strrchr.obj
 0001:00054890       _strchr                    10055890 f   libvcruntime:strchr.obj
 0001:000548fe       ___from_strstr_to_strchr   100558fe     libvcruntime:strchr.obj
 0001:000549bb       _wcschr                    100559bb f   libvcruntime:wcschr.obj
 0001:00054a82       __filter_x86_sse2_floating_point_exception 10055a82 f   LIBCMT:x86_exception_filter.obj
 0001:00054a82       __filter_x86_sse2_floating_point_exception_default 10055a82 f   LIBCMT:x86_exception_filter.obj
 0001:00054b00       _memchr                    10055b00 f   libvcruntime:memchr.obj
 0002:00000000       __imp__ReadFile@20         10056000     kernel32:KERNEL32.dll
 0002:00000004       __imp__WriteFile@20        10056004     kernel32:KERNEL32.dll
 0002:00000008       __imp__SetFilePointer@16   10056008     kernel32:KERNEL32.dll
 0002:0000000c       __imp__CreateFileW@28      1005600c     kernel32:KERNEL32.dll
 0002:00000010       __imp__GetLastError@0      10056010     kernel32:KERNEL32.dll
 0002:00000014       __imp__CreateFileA@28      10056014     kernel32:KERNEL32.dll
 0002:00000018       __imp__CloseHandle@4       10056018     kernel32:KERNEL32.dll
 0002:0000001c       __imp__OutputDebugStringW@4 1005601c     kernel32:KERNEL32.dll
 0002:00000020       __imp__QueryPerformanceCounter@4 10056020     kernel32:KERNEL32.dll
 0002:00000024       __imp__GetCurrentProcessId@0 10056024     kernel32:KERNEL32.dll
 0002:00000028       __imp__GetCurrentThreadId@0 10056028     kernel32:KERNEL32.dll
 0002:0000002c       __imp__GetSystemTimeAsFileTime@4 1005602c     kernel32:KERNEL32.dll
 0002:00000030       __imp__InitializeSListHead@4 10056030     kernel32:KERNEL32.dll
 0002:00000034       __imp__IsDebuggerPresent@0 10056034     kernel32:KERNEL32.dll
 0002:00000038       __imp__UnhandledExceptionFilter@4 10056038     kernel32:KERNEL32.dll
 0002:0000003c       __imp__SetUnhandledExceptionFilter@4 1005603c     kernel32:KERNEL32.dll
 0002:00000040       __imp__GetStartupInfoW@4   10056040     kernel32:KERNEL32.dll
 0002:00000044       __imp__IsProcessorFeaturePresent@4 10056044     kernel32:KERNEL32.dll
 0002:00000048       __imp__GetModuleHandleW@4  10056048     kernel32:KERNEL32.dll
 0002:0000004c       __imp__GetCurrentProcess@0 1005604c     kernel32:KERNEL32.dll
 0002:00000050       __imp__TerminateProcess@8  10056050     kernel32:KERNEL32.dll
 0002:00000054       __imp__InterlockedPushEntrySList@8 10056054     kernel32:KERNEL32.dll
 0002:00000058       __imp__InterlockedFlushSList@4 10056058     kernel32:KERNEL32.dll
 0002:0000005c       __imp__RtlUnwind@16        1005605c     kernel32:KERNEL32.dll
 0002:00000060       __imp__SetLastError@4      10056060     kernel32:KERNEL32.dll
 0002:00000064       __imp__EnterCriticalSection@4 10056064     kernel32:KERNEL32.dll
 0002:00000068       __imp__LeaveCriticalSection@4 10056068     kernel32:KERNEL32.dll
 0002:0000006c       __imp__DeleteCriticalSection@4 1005606c     kernel32:KERNEL32.dll
 0002:00000070       __imp__InitializeCriticalSectionAndSpinCount@8 10056070     kernel32:KERNEL32.dll
 0002:00000074       __imp__TlsAlloc@0          10056074     kernel32:KERNEL32.dll
 0002:00000078       __imp__TlsGetValue@4       10056078     kernel32:KERNEL32.dll
 0002:0000007c       __imp__TlsSetValue@8       1005607c     kernel32:KERNEL32.dll
 0002:00000080       __imp__TlsFree@4           10056080     kernel32:KERNEL32.dll
 0002:00000084       __imp__FreeLibrary@4       10056084     kernel32:KERNEL32.dll
 0002:00000088       __imp__GetProcAddress@8    10056088     kernel32:KERNEL32.dll
 0002:0000008c       __imp__LoadLibraryExW@12   1005608c     kernel32:KERNEL32.dll
 0002:00000090       __imp__EncodePointer@4     10056090     kernel32:KERNEL32.dll
 0002:00000094       __imp__RaiseException@16   10056094     kernel32:KERNEL32.dll
 0002:00000098       __imp__SetFilePointerEx@20 10056098     kernel32:KERNEL32.dll
 0002:0000009c       __imp__GetFileType@4       1005609c     kernel32:KERNEL32.dll
 0002:000000a0       __imp__GetConsoleMode@8    100560a0     kernel32:KERNEL32.dll
 0002:000000a4       __imp__ReadConsoleW@20     100560a4     kernel32:KERNEL32.dll
 0002:000000a8       __imp__GetConsoleOutputCP@0 100560a8     kernel32:KERNEL32.dll
 0002:000000ac       __imp__ExitProcess@4       100560ac     kernel32:KERNEL32.dll
 0002:000000b0       __imp__GetModuleHandleExW@12 100560b0     kernel32:KERNEL32.dll
 0002:000000b4       __imp__GetModuleFileNameW@12 100560b4     kernel32:KERNEL32.dll
 0002:000000b8       __imp__SetStdHandle@8      100560b8     kernel32:KERNEL32.dll
 0002:000000bc       __imp__GetStdHandle@4      100560bc     kernel32:KERNEL32.dll
 0002:000000c0       __imp__HeapFree@12         100560c0     kernel32:KERNEL32.dll
 0002:000000c4       __imp__HeapAlloc@12        100560c4     kernel32:KERNEL32.dll
 0002:000000c8       __imp__MultiByteToWideChar@24 100560c8     kernel32:KERNEL32.dll
 0002:000000cc       __imp__GetCurrentThread@0  100560cc     kernel32:KERNEL32.dll
 0002:000000d0       __imp__GetDateFormatW@24   100560d0     kernel32:KERNEL32.dll
 0002:000000d4       __imp__GetTimeFormatW@24   100560d4     kernel32:KERNEL32.dll
 0002:000000d8       __imp__CompareStringW@24   100560d8     kernel32:KERNEL32.dll
 0002:000000dc       __imp__LCMapStringW@24     100560dc     kernel32:KERNEL32.dll
 0002:000000e0       __imp__GetLocaleInfoW@16   100560e0     kernel32:KERNEL32.dll
 0002:000000e4       __imp__IsValidLocale@8     100560e4     kernel32:KERNEL32.dll
 0002:000000e8       __imp__GetUserDefaultLCID@0 100560e8     kernel32:KERNEL32.dll
 0002:000000ec       __imp__EnumSystemLocalesW@8 100560ec     kernel32:KERNEL32.dll
 0002:000000f0       __imp__SetEndOfFile@4      100560f0     kernel32:KERNEL32.dll
 0002:000000f4       __imp__WideCharToMultiByte@32 100560f4     kernel32:KERNEL32.dll
 0002:000000f8       __imp__GetFileSizeEx@8     100560f8     kernel32:KERNEL32.dll
 0002:000000fc       __imp__FindClose@4         100560fc     kernel32:KERNEL32.dll
 0002:00000100       __imp__FindFirstFileExW@24 10056100     kernel32:KERNEL32.dll
 0002:00000104       __imp__FindNextFileW@8     10056104     kernel32:KERNEL32.dll
 0002:00000108       __imp__IsValidCodePage@4   10056108     kernel32:KERNEL32.dll
 0002:0000010c       __imp__GetACP@0            1005610c     kernel32:KERNEL32.dll
 0002:00000110       __imp__GetOEMCP@0          10056110     kernel32:KERNEL32.dll
 0002:00000114       __imp__GetCPInfo@8         10056114     kernel32:KERNEL32.dll
 0002:00000118       __imp__GetCommandLineA@0   10056118     kernel32:KERNEL32.dll
 0002:0000011c       __imp__GetCommandLineW@0   1005611c     kernel32:KERNEL32.dll
 0002:00000120       __imp__GetEnvironmentStringsW@0 10056120     kernel32:KERNEL32.dll
 0002:00000124       __imp__FreeEnvironmentStringsW@4 10056124     kernel32:KERNEL32.dll
 0002:00000128       __imp__SetEnvironmentVariableW@8 10056128     kernel32:KERNEL32.dll
 0002:0000012c       __imp__GetProcessHeap@0    1005612c     kernel32:KERNEL32.dll
 0002:00000130       __imp__SetConsoleCtrlHandler@8 10056130     kernel32:KERNEL32.dll
 0002:00000134       __imp__GetStringTypeW@16   10056134     kernel32:KERNEL32.dll
 0002:00000138       __imp__WriteConsoleW@20    10056138     kernel32:KERNEL32.dll
 0002:0000013c       __imp__FlushFileBuffers@4  1005613c     kernel32:KERNEL32.dll
 0002:00000140       __imp__HeapSize@12         10056140     kernel32:KERNEL32.dll
 0002:00000144       __imp__HeapReAlloc@16      10056144     kernel32:KERNEL32.dll
 0002:00000148       __imp__DecodePointer@4     10056148     kernel32:KERNEL32.dll
 0002:0000014c       \177KERNEL32_NULL_THUNK_DATA 1005614c     kernel32:KERNEL32.dll
 0002:00000150       ___guard_check_icall_fptr  10056150     LIBCMT:guard_support.obj
 0002:00000154       ___guard_xfg_check_icall_fptr 10056154     LIBCMT:guard_support.obj
 0002:00000158       ___castguard_check_failure_os_handled_fptr 10056158     LIBCMT:guard_support.obj
 0002:0000015c       ___xc_a                    1005615c     LIBCMT:initializers.obj
 0002:00000160       ___xc_z                    10056160     LIBCMT:initializers.obj
 0002:00000164       ___xi_a                    10056164     LIBCMT:initializers.obj
 0002:00000168       ___acrt_stdio_initializer  10056168     libucrt:stdio_initializer.obj
 0002:0000016c       ___acrt_multibyte_initializer 1005616c     libucrt:multibyte_initializer.obj
 0002:00000170       ___acrt_fmode_initializer  10056170     libucrt:fmode_initializer.obj
 0002:00000174       ___acrt_tran_sse2_initializer 10056174     libucrt:sse2_initializer.obj
 0002:00000178       ___xi_z                    10056178     LIBCMT:initializers.obj
 0002:0000017c       ___xp_a                    1005617c     LIBCMT:initializers.obj
 0002:00000180       ___acrt_locale_terminator  10056180     libucrt:locale_initializer.obj
 0002:00000184       ___dcrt_console_output_terminator 10056184     libucrt:console_output_initializer.obj
 0002:00000188       ___acrt_stdio_terminator   10056188     libucrt:stdio_initializer.obj
 0002:0000018c       ___xp_z                    1005618c     LIBCMT:initializers.obj
 0002:00000190       ___xt_a                    10056190     LIBCMT:initializers.obj
 0002:00000194       ___xt_z                    10056194     LIBCMT:initializers.obj
 0002:000001a0       __pRawDllMain              100561a0     LIBCMT:dll_dllmain.obj
 0002:000001a0       __pDefaultRawDllMain       100561a0     LIBCMT:dll_dllmain.obj
 0002:000001ac       __pDestructExceptionObject 100561ac     libvcruntime:ehhelpers.obj
 0002:00000538       ??_C@_08EHJDFFNH@__based?$CI@ 10056538     libvcruntime:undname.obj
 0002:00000544       ??_C@_07KOLFKCDI@__cdecl@  10056544     libvcruntime:undname.obj
 0002:0000054c       ??_C@_08GHMPAG@__pascal@   1005654c     libvcruntime:undname.obj
 0002:00000558       ??_C@_09IFJBGAPI@__stdcall@ 10056558     libvcruntime:undname.obj
 0002:00000564       ??_C@_0L@NPHFGOKO@__thiscall@ 10056564     libvcruntime:undname.obj
 0002:00000570       ??_C@_0L@JMKHOMEK@__fastcall@ 10056570     libvcruntime:undname.obj
 0002:0000057c       ??_C@_0N@BCKKPABJ@__vectorcall@ 1005657c     libvcruntime:undname.obj
 0002:0000058c       ??_C@_09HIJEGCPM@__clrcall@ 1005658c     libvcruntime:undname.obj
 0002:00000598       ??_C@_06GHPCKEAG@__eabi@   10056598     libvcruntime:undname.obj
 0002:000005a0       ??_C@_09IOPIDJLG@__swift_1@ 100565a0     libvcruntime:undname.obj
 0002:000005ac       ??_C@_09KFNFGKHF@__swift_2@ 100565ac     libvcruntime:undname.obj
 0002:000005b8       ??_C@_09LMMOFLDE@__swift_3@ 100565b8     libvcruntime:undname.obj
 0002:000005c4       ??_C@_07JOMMBBKO@__ptr64@  100565c4     libvcruntime:undname.obj
 0002:000005cc       ??_C@_0L@PILCLIHE@__restrict@ 100565cc     libvcruntime:undname.obj
 0002:000005d8       ??_C@_0M@GFIIJFMG@__unaligned@ 100565d8     libvcruntime:undname.obj
 0002:000005e4       ??_C@_09DHDLOLLB@restrict?$CI@ 100565e4     libvcruntime:undname.obj
 0002:000005f0       ??_C@_04NIHEBCM@?5new@     100565f0     libvcruntime:undname.obj
 0002:000005f8       ??_C@_07FPCDHGMM@?5delete@ 100565f8     libvcruntime:undname.obj
 0002:00000600       ??_C@_01NEMOKFLO@?$DN@     10056600     libvcruntime:undname.obj
 0002:00000604       ??_C@_02GPIOPFAK@?$DO?$DO@ 10056604     libvcruntime:undname.obj
 0002:00000608       ??_C@_02FODMEDOG@?$DM?$DM@ 10056608     libvcruntime:undname.obj
 0002:0000060c       ??_C@_01DCLJPIOD@?$CB@     1005660c     libvcruntime:undname.obj
 0002:00000610       ??_C@_02EGOFBIJA@?$DN?$DN@ 10056610     libvcruntime:undname.obj
 0002:00000614       ??_C@_02FDNJECIE@?$CB?$DN@ 10056614     libvcruntime:undname.obj
 0002:00000618       ??_C@_02GPECMEKF@?$FL?$FN@ 10056618     libvcruntime:undname.obj
 0002:0000061c       ??_C@_08LHJFAFGD@operator@ 1005661c     libvcruntime:undname.obj
 0002:00000628       ??_C@_02HBOOOICD@?9?$DO@   10056628     libvcruntime:undname.obj
 0002:0000062c       ??_C@_01NBENCBCI@?$CK@     1005662c     libvcruntime:undname.obj
 0002:00000630       ??_C@_02ECNGHCIF@?$CL?$CL@ 10056630     libvcruntime:undname.obj
 0002:00000634       ??_C@_02BAABKJLB@?9?9@     10056634     libvcruntime:undname.obj
 0002:00000638       ??_C@_01MIFGBAGJ@?$CL@     10056638     libvcruntime:undname.obj
 0002:0000063c       ??_C@_01HNPIGOCE@?$CG@     1005663c     libvcruntime:undname.obj
 0002:00000640       ??_C@_03MNHNFDLC@?9?$DO?$CK@ 10056640     libvcruntime:undname.obj
 0002:00000644       ??_C@_01KMDKNFGN@?1@       10056644     libvcruntime:undname.obj
 0002:00000648       ??_C@_01FGNFDNOH@?$CF@     10056648     libvcruntime:undname.obj
 0002:0000064c       ??_C@_01MNNFJEPP@?$DM@     1005664c     libvcruntime:undname.obj
 0002:00000650       ??_C@_02EHCHHCKH@?$DM?$DN@ 10056650     libvcruntime:undname.obj
 0002:00000654       ??_C@_01PPODPGHN@?$DO@     10056654     libvcruntime:undname.obj
 0002:00000658       ??_C@_02EEKDKGMJ@?$DO?$DN@ 10056658     libvcruntime:undname.obj
 0002:0000065c       ??_C@_01IHBHIGKO@?0@       1005665c     libvcruntime:undname.obj
 0002:00000660       ??_C@_02HCKGKOFO@?$CI?$CJ@ 10056660     libvcruntime:undname.obj
 0002:00000664       ??_C@_01PJKLJHI@?$HO@      10056664     libvcruntime:undname.obj
 0002:00000668       ??_C@_01JKBOJNNK@?$FO@     10056668     libvcruntime:undname.obj
 0002:0000066c       ??_C@_01DNKMNLPK@?$HM@     1005666c     libvcruntime:undname.obj
 0002:00000670       ??_C@_02PPKAJPJL@?$CG?$CG@ 10056670     libvcruntime:undname.obj
 0002:00000674       ??_C@_02NONPIBCD@?$HM?$HM@ 10056674     libvcruntime:undname.obj
 0002:00000678       ??_C@_02FPIMKNGF@?$CK?$DN@ 10056678     libvcruntime:undname.obj
 0002:0000067c       ??_C@_02FOEOMHFC@?$CL?$DN@ 1005667c     libvcruntime:undname.obj
 0002:00000680       ??_C@_02FKMDLLOA@?9?$DN@   10056680     libvcruntime:undname.obj
 0002:00000684       ??_C@_02FJEHGPIO@?1?$DN@   10056684     libvcruntime:undname.obj
 0002:00000688       ??_C@_02FENAOKFI@?$CF?$DN@ 10056688     libvcruntime:undname.obj
 0002:0000068c       ??_C@_03IKFCCPFF@?$DO?$DO?$DN@ 1005668c     libvcruntime:undname.obj
 0002:00000690       ??_C@_03CDNPDDLA@?$DM?$DM?$DN@ 10056690     libvcruntime:undname.obj
 0002:00000694       ??_C@_02FGJGFEAB@?$CG?$DN@ 10056694     libvcruntime:undname.obj
 0002:00000698       ??_C@_02DHLNPPGH@?$HM?$DN@ 10056698     libvcruntime:undname.obj
 0002:0000069c       ??_C@_02MHEGNOJ@?$FO?$DN@  1005669c     libvcruntime:undname.obj
 0002:000006a0       ??_C@_09IFPLHPGF@?$GAvftable?8@ 100566a0     libvcruntime:undname.obj
 0002:000006ac       ??_C@_09BLBHBJP@?$GAvbtable?8@ 100566ac     libvcruntime:undname.obj
 0002:000006b8       ??_C@_07FEEIOKP@?$GAvcall?8@ 100566b8     libvcruntime:undname.obj
 0002:000006c0       ??_C@_08LLFFHHDJ@?$GAtypeof?8@ 100566c0     libvcruntime:undname.obj
 0002:000006cc       ??_C@_0BF@KDPPACIK@?$GAlocal?5static?5guard?8@ 100566cc     libvcruntime:undname.obj
 0002:000006e4       ??_C@_08OBABFOLI@?$GAstring?8@ 100566e4     libvcruntime:undname.obj
 0002:000006f0       ??_C@_0BD@JDLKDPAB@?$GAvbase?5destructor?8@ 100566f0     libvcruntime:undname.obj
 0002:00000704       ??_C@_0BN@DEGPLNFK@?$GAvector?5deleting?5destructor?8@ 10056704     libvcruntime:undname.obj
 0002:00000724       ??_C@_0BO@OBMKPJIG@?$GAdefault?5constructor?5closure?8@ 10056724     libvcruntime:undname.obj
 0002:00000744       ??_C@_0BN@IMDCHIKM@?$GAscalar?5deleting?5destructor?8@ 10056744     libvcruntime:undname.obj
 0002:00000764       ??_C@_0BO@PFGOCPJJ@?$GAvector?5constructor?5iterator?8@ 10056764     libvcruntime:undname.obj
 0002:00000784       ??_C@_0BN@LFPFMEDL@?$GAvector?5destructor?5iterator?8@ 10056784     libvcruntime:undname.obj
 0002:000007a4       ??_C@_0CE@IKBNEHA@?$GAvector?5vbase?5constructor?5itera@ 100567a4     libvcruntime:undname.obj
 0002:000007c8       ??_C@_0BL@NILFHHPC@?$GAvirtual?5displacement?5map?8@ 100567c8     libvcruntime:undname.obj
 0002:000007e4       ??_C@_0CB@JONCMFFK@?$GAeh?5vector?5constructor?5iterator@ 100567e4     libvcruntime:undname.obj
 0002:00000808       ??_C@_0CA@GCEOPDGL@?$GAeh?5vector?5destructor?5iterator?8@ 10056808     libvcruntime:undname.obj
 0002:00000828       ??_C@_0CH@OOJPLCPH@?$GAeh?5vector?5vbase?5constructor?5it@ 10056828     libvcruntime:undname.obj
 0002:00000850       ??_C@_0BL@LLKPOHJI@?$GAcopy?5constructor?5closure?8@ 10056850     libvcruntime:undname.obj
 0002:0000086c       ??_C@_0BA@KBCDOMBN@?$GAudt?5returning?8@ 1005686c     libvcruntime:undname.obj
 0002:0000087c       ??_C@_03KLGMFNMG@?$GAEH@   1005687c     libvcruntime:undname.obj
 0002:00000880       ??_C@_05KHLCHHI@?$GARTTI@  10056880     libvcruntime:undname.obj
 0002:00000888       ??_C@_0BA@KKLDJDLB@?$GAlocal?5vftable?8@ 10056888     libvcruntime:undname.obj
 0002:00000898       ??_C@_0CE@IIHCMGGL@?$GAlocal?5vftable?5constructor?5clos@ 10056898     libvcruntime:undname.obj
 0002:000008bc       ??_C@_06FHBGPFGH@?5new?$FL?$FN@ 100568bc     libvcruntime:undname.obj
 0002:000008c4       ??_C@_09LBNFPBCA@?5delete?$FL?$FN@ 100568c4     libvcruntime:undname.obj
 0002:000008d0       ??_C@_0P@HJKNJFNN@?$GAomni?5callsig?8@ 100568d0     libvcruntime:undname.obj
 0002:000008e0       ??_C@_0BL@CNOONJFP@?$GAplacement?5delete?5closure?8@ 100568e0     libvcruntime:undname.obj
 0002:000008fc       ??_C@_0BN@CKNJLHMB@?$GAplacement?5delete?$FL?$FN?5closure?8@ 100568fc     libvcruntime:undname.obj
 0002:0000091c       ??_C@_0CG@CFDHKGGD@?$GAmanaged?5vector?5constructor?5ite@ 1005691c     libvcruntime:undname.obj
 0002:00000944       ??_C@_0CF@IMGKMJNO@?$GAmanaged?5vector?5destructor?5iter@ 10056944     libvcruntime:undname.obj
 0002:0000096c       ??_C@_0CG@HLDDJMAG@?$GAeh?5vector?5copy?5constructor?5ite@ 1005696c     libvcruntime:undname.obj
 0002:00000994       ??_C@_0CM@FCBBDIGB@?$GAeh?5vector?5vbase?5copy?5construct@ 10056994     libvcruntime:undname.obj
 0002:000009c0       ??_C@_0BL@CLIPGLGB@?$GAdynamic?5initializer?5for?5?8@ 100569c0     libvcruntime:undname.obj
 0002:000009dc       ??_C@_0CB@PDBIFEP@?$GAdynamic?5atexit?5destructor?5for?5@ 100569dc     libvcruntime:undname.obj
 0002:00000a00       ??_C@_0CD@CGAJBKEJ@?$GAvector?5copy?5constructor?5iterat@ 10056a00     libvcruntime:undname.obj
 0002:00000a24       ??_C@_0CJ@GJELGAMM@?$GAvector?5vbase?5copy?5constructor?5@ 10056a24     libvcruntime:undname.obj
 0002:00000a50       ??_C@_0CL@FGIJHLCE@?$GAmanaged?5vector?5copy?5constructo@ 10056a50     libvcruntime:undname.obj
 0002:00000a7c       ??_C@_0BM@PMGGMLDN@?$GAlocal?5static?5thread?5guard?8@ 10056a7c     libvcruntime:undname.obj
 0002:00000a98       ??_C@_0N@BDNMDMOL@operator?5?$CC?$CC?5@ 10056a98     libvcruntime:undname.obj
 0002:00000aa8       ??_C@_0BC@GGEBGALA@operator?5co_await@ 10056aa8     libvcruntime:undname.obj
 0002:00000abc       ??_C@_0M@GAAIMMOH@operator?$DM?$DN?$DO@ 10056abc     libvcruntime:undname.obj
 0002:00000ac8       ??_C@_0BC@DAFEJGAK@?5Type?5Descriptor?8@ 10056ac8     libvcruntime:undname.obj
 0002:00000adc       ??_C@_0BM@LDKODKLH@?5Base?5Class?5Descriptor?5at?5?$CI@ 10056adc     libvcruntime:undname.obj
 0002:00000af8       ??_C@_0BD@LGICGFMM@?5Base?5Class?5Array?8@ 10056af8     libvcruntime:undname.obj
 0002:00000b0c       ??_C@_0BN@MECKDCOJ@?5Class?5Hierarchy?5Descriptor?8@ 10056b0c     libvcruntime:undname.obj
 0002:00000b2c       ??_C@_0BK@CFCOFLF@?5Complete?5Object?5Locator?8@ 10056b2c     libvcruntime:undname.obj
 0002:00000b48       ??_C@_0BG@JNJLAMPM@?$GAanonymous?5namespace?8@ 10056b48     libvcruntime:undname.obj
 0002:00000b60       ??_C@_04HEJADOOB@CV?3?5@   10056b60     libvcruntime:undname.obj
 0002:00000b68       ??_C@_02MOLJINC@?3?3@      10056b68     libvcruntime:undname.obj
 0002:00000b6c       ??_C@_0BE@JAEOCHPE@template?9parameter?9@ 10056b6c     libvcruntime:undname.obj
 0002:00000b80       ??_C@_0BF@LNLGBBNL@?$GAtemplate?9parameter?9@ 10056b80     libvcruntime:undname.obj
 0002:00000b98       ??_C@_0O@KHGCOMHP@generic?9type?9@ 10056b98     libvcruntime:undname.obj
 0002:00000ba8       ??_C@_0P@ODDENDLM@?$GAgeneric?9type?9@ 10056ba8     libvcruntime:undname.obj
 0002:00000bb8       ??_C@_02OHHJMEON@?8?8@     10056bb8     libvcruntime:undname.obj
 0002:00000bbc       ??_C@_0BN@IBLMMFAP@?$GAnon?9type?9template?9parameter@ 10056bbc     libvcruntime:undname.obj
 0002:00000bdc       ??_C@_03DLDNIBIK@?$CFlf@   10056bdc     libvcruntime:undname.obj
 0002:00000be0       ??_C@_04OFALKAJ@?$DP?$DP_C@ 10056be0     libvcruntime:undname.obj
 0002:00000be8       ??_C@_03KHICJKCI@?4?4?4@   10056be8     libvcruntime:undname.obj
 0002:00000bec       ??_C@_04HIBGFPH@NULL@      10056bec     libvcruntime:undname.obj
 0002:00000bf4       ??_C@_02DPKJAMEF@?$CFd@    10056bf4     libvcruntime:undname.obj
 0002:00000bf8       ??_C@_0BK@IHCCFNEL@?$GAtemplate?9type?9parameter?9@ 10056bf8     libvcruntime:undname.obj
 0002:00000c14       ??_C@_0BK@OFCNNNKO@?$GAgeneric?9class?9parameter?9@ 10056c14     libvcruntime:undname.obj
 0002:00000c30       ??_C@_0BL@NGJBLFIL@?$GAgeneric?9method?9parameter?9@ 10056c30     libvcruntime:undname.obj
 0002:00000c4c       ??_C@_07OHNGEDJK@nullptr@  10056c4c     libvcruntime:undname.obj
 0002:00000c54       ??_C@_06COJIGPIB@lambda@   10056c54     libvcruntime:undname.obj
 0002:00000c5c       ??_C@_04GKJNKENE@void@     10056c5c     libvcruntime:undname.obj
 0002:00000c64       ??_C@_0BE@EODMJLIF@?$GAtemplate?9parameter@ 10056c64     libvcruntime:undname.obj
 0002:00000c78       ??_C@_03OPGICMGF@?$HN?8?5@ 10056c78     libvcruntime:undname.obj
 0002:00000c7c       ??_C@_02IGFCGPIL@?$HN?8@   10056c7c     libvcruntime:undname.obj
 0002:00000c80       ??_C@_0N@CBHHHENL@?$GAvtordispex?$HL@ 10056c80     libvcruntime:undname.obj
 0002:00000c90       ??_C@_0L@GHPFDFH@?$GAvtordisp?$HL@ 10056c90     libvcruntime:undname.obj
 0002:00000c9c       ??_C@_0L@HNGCOGAE@?$GAadjustor?$HL@ 10056c9c     libvcruntime:undname.obj
 0002:00000ca8       ??_C@_0CB@KJDOOODE@?$GAlocal?5static?5destructor?5helper@ 10056ca8     libvcruntime:undname.obj
 0002:00000ccc       ??_C@_0DB@ILEFOCIJ@?$GAtemplate?5static?5data?5member?5co@ 10056ccc     libvcruntime:undname.obj
 0002:00000d00       ??_C@_0DA@HGFJFBBE@?$GAtemplate?5static?5data?5member?5de@ 10056d00     libvcruntime:undname.obj
 0002:00000d30       ??_C@_07PGOEDBHP@static?5@ 10056d30     libvcruntime:undname.obj
 0002:00000d38       ??_C@_08NIEOINHE@virtual?5@ 10056d38     libvcruntime:undname.obj
 0002:00000d44       ??_C@_09LAPHOOG@private?3?5@ 10056d44     libvcruntime:undname.obj
 0002:00000d50       ??_C@_0M@GAIFPFIP@protected?3?5@ 10056d50     libvcruntime:undname.obj
 0002:00000d5c       ??_C@_08GPDDCMKI@public?3?5@ 10056d5c     libvcruntime:undname.obj
 0002:00000d68       ??_C@_08KJLFOPNE@?$FLthunk?$FN?3@ 10056d68     libvcruntime:undname.obj
 0002:00000d74       ??_C@_0M@DHNBOJMP@extern?5?$CCC?$CC?5@ 10056d74     libvcruntime:undname.obj
 0002:00000d80       ??_C@_02KCKGHPCA@?$CJ?5@   10056d80     libvcruntime:undname.obj
 0002:00000d84       ??_C@_05CIHEBHNO@char?5@   10056d84     libvcruntime:undname.obj
 0002:00000d8c       ??_C@_06EHJMALKF@short?5@  10056d8c     libvcruntime:undname.obj
 0002:00000d94       ??_C@_04LAHKHJMA@int?5@    10056d94     libvcruntime:undname.obj
 0002:00000d9c       ??_C@_05CJIMAING@long?5@   10056d9c     libvcruntime:undname.obj
 0002:00000da4       ??_C@_09EBBEKKIH@unsigned?5@ 10056da4     libvcruntime:undname.obj
 0002:00000db0       ??_C@_05BEFAKPML@void?5@   10056db0     libvcruntime:undname.obj
 0002:00000db8       ??_C@_09GAIEOBLP@volatile?5@ 10056db8     libvcruntime:undname.obj
 0002:00000dc4       ??_C@_08PABEKFH@volatile@  10056dc4     libvcruntime:undname.obj
 0002:00000dd0       ??_C@_0BA@LKIJLKPP@std?3?3nullptr_t?5@ 10056dd0     libvcruntime:undname.obj
 0002:00000de0       ??_C@_0P@GCOCNKDM@std?3?3nullptr_t@ 10056de0     libvcruntime:undname.obj
 0002:00000df0       ??_C@_0L@EGPHHEKN@?$DMellipsis?$DO@ 10056df0     libvcruntime:undname.obj
 0002:00000dfc       ??_C@_04EENFHACM@?0?4?4?4@ 10056dfc     libvcruntime:undname.obj
 0002:00000e04       ??_C@_0M@ELJOJFFH@?0?$DMellipsis?$DO@ 10056e04     libvcruntime:undname.obj
 0002:00000e10       ??_C@_09DNHFEOJI@?5noexcept@ 10056e10     libvcruntime:undname.obj
 0002:00000e1c       ??_C@_03PBJBJNON@cpu@      10056e1c     libvcruntime:undname.obj
 0002:00000e20       ??_C@_03DCBBJBAA@amp@      10056e20     libvcruntime:undname.obj
 0002:00000e24       ??_C@_02KEGNLNML@?0?5@     10056e24     libvcruntime:undname.obj
 0002:00000e28       ??_C@_04ENMBGAPA@char@     10056e28     libvcruntime:undname.obj
 0002:00000e30       ??_C@_05BFKKPKCG@short@    10056e30     libvcruntime:undname.obj
 0002:00000e38       ??_C@_03JBIPMCLC@int@      10056e38     libvcruntime:undname.obj
 0002:00000e3c       ??_C@_04GOKPGOLB@long@     10056e3c     libvcruntime:undname.obj
 0002:00000e44       ??_C@_05KNFBNCOH@float@    10056e44     libvcruntime:undname.obj
 0002:00000e4c       ??_C@_06BNJCAIGJ@double@   10056e4c     libvcruntime:undname.obj
 0002:00000e54       ??_C@_04DDKJGDCM@bool@     10056e54     libvcruntime:undname.obj
 0002:00000e5c       ??_C@_06EBGKOKIG@__int8@   10056e5c     libvcruntime:undname.obj
 0002:00000e64       ??_C@_07ICFHOGAF@__int16@  10056e64     libvcruntime:undname.obj
 0002:00000e6c       ??_C@_07OFLPPHGP@__int32@  10056e6c     libvcruntime:undname.obj
 0002:00000e74       ??_C@_07LFCOJCAC@__int64@  10056e74     libvcruntime:undname.obj
 0002:00000e7c       ??_C@_08GAHOLHEO@__int128@ 10056e7c     libvcruntime:undname.obj
 0002:00000e88       ??_C@_09EEKGDCPH@?$DMunknown?$DO@ 10056e88     libvcruntime:undname.obj
 0002:00000e94       ??_C@_07CFHGOPCN@char8_t@  10056e94     libvcruntime:undname.obj
 0002:00000e9c       ??_C@_08HBIPOFJB@char16_t@ 10056e9c     libvcruntime:undname.obj
 0002:00000ea8       ??_C@_08IECNCBKG@char32_t@ 10056ea8     libvcruntime:undname.obj
 0002:00000eb4       ??_C@_07CLGGIAMF@wchar_t@  10056eb4     libvcruntime:undname.obj
 0002:00000ebc       ??_C@_04HAPDLBFF@auto@     10056ebc     libvcruntime:undname.obj
 0002:00000ec4       ??_C@_0P@LHCGKIGK@decltype?$CIauto?$CJ@ 10056ec4     libvcruntime:undname.obj
 0002:00000ed4       ??_C@_06GCICPBLB@__w64?5@  10056ed4     libvcruntime:undname.obj
 0002:00000edc       ??_C@_07NFANNNEC@UNKNOWN@  10056edc     libvcruntime:undname.obj
 0002:00000ee4       ??_C@_07EDHNAJHC@signed?5@ 10056ee4     libvcruntime:undname.obj
 0002:00000eec       ??_C@_05BNCCCJPP@const@    10056eec     libvcruntime:undname.obj
 0002:00000ef4       ??_C@_09EFNPDFFP@?5volatile@ 10056ef4     libvcruntime:undname.obj
 0002:00000f00       ??_C@_0P@GCIFDJCJ@?$GAunknown?5ecsu?8@ 10056f00     libvcruntime:undname.obj
 0002:00000f10       ??_C@_06MOJHIBMG@union?5@  10056f10     libvcruntime:undname.obj
 0002:00000f18       ??_C@_07DIBCDNGL@struct?5@ 10056f18     libvcruntime:undname.obj
 0002:00000f20       ??_C@_06LJBABKPM@class?5@  10056f20     libvcruntime:undname.obj
 0002:00000f28       ??_C@_08KOFANOFK@coclass?5@ 10056f28     libvcruntime:undname.obj
 0002:00000f34       ??_C@_0N@DLIEFKNA@cointerface?5@ 10056f34     libvcruntime:undname.obj
 0002:00000f44       ??_C@_05LJGMCFOG@enum?5@   10056f44     libvcruntime:undname.obj
 0002:00000f4c       ??_C@_06LIJLOJAG@const?5@  10056f4c     libvcruntime:undname.obj
 0002:00000f54       ??_C@_02KJPKDIBN@?$CG?5@   10056f54     libvcruntime:undname.obj
 0002:00000f58       ??_C@_03PCKGMOPB@?$CG?$CG?5@ 10056f58     libvcruntime:undname.obj
 0002:00000f5c       ??_C@_0M@EALIELKG@cli?3?3array?$DM@ 10056f5c     libvcruntime:undname.obj
 0002:00000f68       ??_C@_0O@GKABPPIF@cli?3?3pin_ptr?$DM@ 10056f68     libvcruntime:undname.obj
 0002:00000f78       ??_C@_02GOGNNPBN@?$CJ?$FL@ 10056f78     libvcruntime:undname.obj
 0002:00000f7c       ??_C@_06EEGAIFAK@?$HLflat?$HN@ 10056f7c     libvcruntime:undname.obj
 0002:00000f84       ??_C@_05JIBOFOHK@?$HLfor?5@ 10056f84     libvcruntime:undname.obj
 0002:00000f8c       ??_C@_02MDINNEEG@s?5@      10056f8c     libvcruntime:undname.obj
 0002:00000f94       ??_7DNameNode@@6B@         10056f94     libvcruntime:undname.obj
 0002:00000fa8       ??_7charNode@@6B@          10056fa8     libvcruntime:undname.obj
 0002:00000fbc       ??_7pcharNode@@6B@         10056fbc     libvcruntime:undname.obj
 0002:00000fd0       ??_7pDNameNode@@6B@        10056fd0     libvcruntime:undname.obj
 0002:00000fe4       ??_7DNameStatusNode@@6B@   10056fe4     libvcruntime:undname.obj
 0002:00000ff8       ??_7pairNode@@6B@          10056ff8     libvcruntime:undname.obj
 0002:00001108       ??_C@_04OKOHEJBO@?5?$DP?$DP?5@ 10057108     libvcruntime:undname.obj
 0002:00001110       ?nodes@?1??make@DNameStatusNode@@SAPBV2@W4DNameStatus@@@Z@4QBV2@B 10057110     libvcruntime:undname.obj
 0002:0000114c       ??_C@_1DM@KHCHBNEB@?$AAa?$AAp?$AAi?$AA?9?$AAm?$AAs?$AA?9?$AAw?$AAi?$AAn?$AA?9?$AAc?$AAo?$AAr?$AAe@ 1005714c     libvcruntime:winapi_downlevel.obj
 0002:00001188       ??_C@_1DK@LPPGFMPP@?$AAa?$AAp?$AAi?$AA?9?$AAm?$AAs?$AA?9?$AAw?$AAi?$AAn?$AA?9?$AAc?$AAo?$AAr?$AAe@ 10057188     libvcruntime:winapi_downlevel.obj
 0002:000011c4       ??_C@_1BC@GDMECMAK@?$AAk?$AAe?$AAr?$AAn?$AAe?$AAl?$AA3?$AA2@ 100571c4     libvcruntime:winapi_downlevel.obj
 0002:000011d8       ??_C@_1BA@PFFKHIOG@?$AAa?$AAp?$AAi?$AA?9?$AAm?$AAs?$AA?9@ 100571d8     libvcruntime:winapi_downlevel.obj
 0002:000011f0       ??_C@_08KNHFBNJ@FlsAlloc@  100571f0     libvcruntime:winapi_downlevel.obj
 0002:00001204       ??_C@_07PEJMOBNF@FlsFree@  10057204     libvcruntime:winapi_downlevel.obj
 0002:00001214       ??_C@_0M@GDNOONDI@FlsGetValue@ 10057214     libvcruntime:winapi_downlevel.obj
 0002:00001228       ??_C@_0M@JCPCPOEF@FlsSetValue@ 10057228     libvcruntime:winapi_downlevel.obj
 0002:0000123c       ??_C@_0BM@HCFOFFN@InitializeCriticalSectionEx@ 1005723c     libvcruntime:winapi_downlevel.obj
 0002:0000125c       ??_7exception@std@@6B@     1005725c     libvcruntime:frame.obj
 0002:00001264       ??_C@_0BC@EOODALEL@Unknown?5exception@ 10057264     libvcruntime:frame.obj
 0002:0000127c       ??_7bad_exception@std@@6B@ 1005727c     libvcruntime:frame.obj
 0002:00001284       ??_C@_0O@DPKOEFFH@bad?5exception@ 10057284     libvcruntime:frame.obj
 0002:00001298       ?standard_lookup_table_spectre@__crt_stdio_output@@3V?$spectre_mitigated_lookup_table@Ustate_transition_pair@__crt_stdio_output@@$0IA@@1@B 10057298     libucrt:output.obj
 0002:00001698       ?format_validation_lookup_table_spectre@__crt_stdio_output@@3V?$spectre_mitigated_lookup_table@Ustate_transition_pair@__crt_stdio_output@@$0IA@@1@B 10057698     libucrt:output.obj
 0002:00001a98       ??_C@_1O@CEDCILHN@?$AA?$CI?$AAn?$AAu?$AAl?$AAl?$AA?$CJ@ 10057a98     libucrt:output.obj
 0002:00001aa8       ??_C@_06OJHGLDPL@?$CInull?$CJ@ 10057aa8     libucrt:output.obj
 0002:00001c18       ??_C@_0EA@FCLIIPNN@Visual?5C?$CL?$CL?5CRT?3?5Not?5enough?5memo@ 10057c18     libucrt:strerror.obj
 0002:00001c58       ??_C@_1IA@JENHHBGD@?$AAV?$AAi?$AAs?$AAu?$AAa?$AAl?$AA?5?$AAC?$AA?$CL?$AA?$CL?$AA?5?$AAC?$AAR?$AAT?$AA?3@ 10057c58     libucrt:strerror.obj
 0002:00001cd8       ___acrt_exception_action_table 10057cd8     libucrt:exception_filter.obj
 0002:00001d68       ___acrt_signal_action_table_count 10057d68     libucrt:exception_filter.obj
 0002:00001d6c       ___acrt_signal_action_table_size 10057d6c     libucrt:exception_filter.obj
 0002:00001d70       ___acrt_signal_action_first_fpe_index 10057d70     libucrt:exception_filter.obj
 0002:00001d74       ___acrt_signal_action_fpe_count 10057d74     libucrt:exception_filter.obj
 0002:00001d78       _RtlNtPathSeperatorString  10057d78     libucrt:exit.obj
 0002:00001d80       ??_C@_13FPGAJAPJ@?$AA?2@   10057d80     libucrt:exit.obj
 0002:00001d84       _RtlDosPathSeperatorsString 10057d84     libucrt:exit.obj
 0002:00001d8c       ??_C@_15MNCACJLI@?$AA?2?$AA?1@ 10057d8c     libucrt:exit.obj
 0002:00001d94       _RtlAlternateDosPathSeperatorString 10057d94     libucrt:exit.obj
 0002:00001d9c       ??_C@_13CGOKJPIL@?$AA?1@   10057d9c     libucrt:exit.obj
 0002:00001da0       ??_C@_1BI@BGOHAHKC@?$AAm?$AAs?$AAc?$AAo?$AAr?$AAe?$AAe?$AA?4?$AAd?$AAl?$AAl@ 10057da0     libucrt:exit.obj
 0002:00001db8       ??_C@_0P@MIGLKIOC@CorExitProcess@ 10057db8     libucrt:exit.obj
 0002:00001e48       __Fenv1                    10057e48     libucrt:atox.obj
 0002:00001ea0       ??_C@_1EA@JGEFHKEI@?$AAa?$AAp?$AAi?$AA?9?$AAm?$AAs?$AA?9?$AAw?$AAi?$AAn?$AA?9?$AAc?$AAo?$AAr?$AAe@ 10057ea0     libucrt:winapi_thunks.obj
 0002:00001ee0       ??_C@_1DI@IJCEHOCB@?$AAa?$AAp?$AAi?$AA?9?$AAm?$AAs?$AA?9?$AAw?$AAi?$AAn?$AA?9?$AAc?$AAo?$AAr?$AAe@ 10057ee0     libucrt:winapi_thunks.obj
 0002:00001f18       ??_C@_1EI@MPIAOHOC@?$AAa?$AAp?$AAi?$AA?9?$AAm?$AAs?$AA?9?$AAw?$AAi?$AAn?$AA?9?$AAc?$AAo?$AAr?$AAe@ 10057f18     libucrt:winapi_thunks.obj
 0002:00001f60       ??_C@_1FK@FPHCKFIE@?$AAa?$AAp?$AAi?$AA?9?$AAm?$AAs?$AA?9?$AAw?$AAi?$AAn?$AA?9?$AAc?$AAo?$AAr?$AAe@ 10057f60     libucrt:winapi_thunks.obj
 0002:00001fc0       ??_C@_1EM@DILCGIIO@?$AAa?$AAp?$AAi?$AA?9?$AAm?$AAs?$AA?9?$AAw?$AAi?$AAn?$AA?9?$AAc?$AAo?$AAr?$AAe@ 10057fc0     libucrt:winapi_thunks.obj
 0002:0000200c       ??_C@_1DM@LNCGDDPN@?$AAa?$AAp?$AAi?$AA?9?$AAm?$AAs?$AA?9?$AAw?$AAi?$AAn?$AA?9?$AAc?$AAo?$AAr?$AAe@ 1005800c     libucrt:winapi_thunks.obj
 0002:00002048       ??_C@_1DO@FPAPJEMD@?$AAa?$AAp?$AAi?$AA?9?$AAm?$AAs?$AA?9?$AAw?$AAi?$AAn?$AA?9?$AAc?$AAo?$AAr?$AAe@ 10058048     libucrt:winapi_thunks.obj
 0002:00002088       ??_C@_1DK@NDHNAHIO@?$AAa?$AAp?$AAi?$AA?9?$AAm?$AAs?$AA?9?$AAw?$AAi?$AAn?$AA?9?$AAc?$AAo?$AAr?$AAe@ 10058088     libucrt:winapi_thunks.obj
 0002:000020c4       ??_C@_1DM@KGHDGBCM@?$AAa?$AAp?$AAi?$AA?9?$AAm?$AAs?$AA?9?$AAw?$AAi?$AAn?$AA?9?$AAc?$AAo?$AAr?$AAe@ 100580c4     libucrt:winapi_thunks.obj
 0002:00002100       ??_C@_1EO@IJIOEFOH@?$AAa?$AAp?$AAi?$AA?9?$AAm?$AAs?$AA?9?$AAw?$AAi?$AAn?$AA?9?$AAr?$AAt?$AAc?$AAo@ 10058100     libucrt:winapi_thunks.obj
 0002:00002150       ??_C@_1FG@HHGEKANL@?$AAa?$AAp?$AAi?$AA?9?$AAm?$AAs?$AA?9?$AAw?$AAi?$AAn?$AA?9?$AAs?$AAe?$AAc?$AAu@ 10058150     libucrt:winapi_thunks.obj
 0002:000021a8       ??_C@_1EG@DBIOJECG@?$AAe?$AAx?$AAt?$AA?9?$AAm?$AAs?$AA?9?$AAw?$AAi?$AAn?$AA?9?$AAn?$AAt?$AAu?$AAs@ 100581a8     libucrt:winapi_thunks.obj
 0002:000021f0       ??_C@_1EO@FIHMJCLF@?$AAe?$AAx?$AAt?$AA?9?$AAm?$AAs?$AA?9?$AAw?$AAi?$AAn?$AA?9?$AAn?$AAt?$AAu?$AAs@ 100581f0     libucrt:winapi_thunks.obj
 0002:00002240       ??_C@_1BC@DNHGCMLG@?$AAa?$AAd?$AAv?$AAa?$AAp?$AAi?$AA3?$AA2@ 10058240     libucrt:winapi_thunks.obj
 0002:00002254       ??_C@_1M@OAIMIKLP@?$AAn?$AAt?$AAd?$AAl?$AAl@ 10058254     libucrt:winapi_thunks.obj
 0002:00002260       ??_C@_1EG@DPGNFKGC@?$AAa?$AAp?$AAi?$AA?9?$AAm?$AAs?$AA?9?$AAw?$AAi?$AAn?$AA?9?$AAa?$AAp?$AAp?$AAm@ 10058260     libucrt:winapi_thunks.obj
 0002:000022a8       ??_C@_1O@BCCLBEOE@?$AAu?$AAs?$AAe?$AAr?$AA3?$AA2@ 100582a8     libucrt:winapi_thunks.obj
 0002:000022b8       ??_C@_1BA@IAIFMGEF@?$AAe?$AAx?$AAt?$AA?9?$AAm?$AAs?$AA?9@ 100582b8     libucrt:winapi_thunks.obj
 0002:000022cc       ??_C@_0BA@FHFNEAED@AreFileApisANSI@ 100582cc     libucrt:winapi_thunks.obj
 0002:000022e4       ??_C@_0BA@IHGNDAEB@CompareStringEx@ 100582e4     libucrt:winapi_thunks.obj
 0002:000022fc       ??_C@_0BE@LJANKFHF@EnumSystemLocalesEx@ 100582fc     libucrt:winapi_thunks.obj
 0002:00002338       ??_C@_0BA@HNOPNCHB@GetActiveWindow@ 10058338     libucrt:winapi_thunks.obj
 0002:00002350       ??_C@_0BA@EPCJIIPD@GetDateFormatEx@ 10058350     libucrt:winapi_thunks.obj
 0002:00002368       ??_C@_0BJ@DIBIJBHA@GetEnabledXStateFeatures@ 10058368     libucrt:winapi_thunks.obj
 0002:0000238c       ??_C@_0BD@HHGDFDBJ@GetLastActivePopup@ 1005838c     libucrt:winapi_thunks.obj
 0002:000023a8       ??_C@_0BA@ONOKGCMP@GetLocaleInfoEx@ 100583a8     libucrt:winapi_thunks.obj
 0002:000023c0       ??_C@_0BI@DFKBFLJE@GetProcessWindowStation@ 100583c0     libucrt:winapi_thunks.obj
 0002:000023dc       ??_C@_0BP@FPNJPEJC@GetSystemTimePreciseAsFileTime@ 100583dc     libucrt:winapi_thunks.obj
 0002:00002404       ??_C@_0BA@CIJJKCJJ@GetTimeFormatEx@ 10058404     libucrt:winapi_thunks.obj
 0002:0000241c       ??_C@_0BJ@PBCCBIPI@GetUserDefaultLocaleName@ 1005841c     libucrt:winapi_thunks.obj
 0002:00002440       ??_C@_0BK@DEKFELLI@GetUserObjectInformationW@ 10058440     libucrt:winapi_thunks.obj
 0002:00002464       ??_C@_0BG@IKLDMBLM@GetXStateFeaturesMask@ 10058464     libucrt:winapi_thunks.obj
 0002:0000248c       ??_C@_0BC@CELBKLLA@IsValidLocaleName@ 1005848c     libucrt:winapi_thunks.obj
 0002:000024a8       ??_C@_0O@KKBNKAPF@LCMapStringEx@ 100584a8     libucrt:winapi_thunks.obj
 0002:000024c0       ??_C@_0BB@CDHDDLLP@LCIDToLocaleName@ 100584c0     libucrt:winapi_thunks.obj
 0002:000024dc       ??_C@_0BB@HBDEELFH@LocaleNameToLCID@ 100584dc     libucrt:winapi_thunks.obj
 0002:000024f8       ??_C@_0BE@KINNKFDA@LocateXStateFeature@ 100584f8     libucrt:winapi_thunks.obj
 0002:00002514       ??_C@_0M@CHKKJDAI@MessageBoxA@ 10058514     libucrt:winapi_thunks.obj
 0002:00002528       ??_C@_0M@DLDCCGNP@MessageBoxW@ 10058528     libucrt:winapi_thunks.obj
 0002:00002538       ??_C@_0N@PPOMPGGK@RoInitialize@ 10058538     libucrt:winapi_thunks.obj
 0002:0000254c       ??_C@_0P@LLFHBIJD@RoUninitialize@ 1005854c     libucrt:winapi_thunks.obj
 0002:00002560       ??_C@_0CF@OJOFEIGO@AppPolicyGetProcessTerminationM@ 10058560     libucrt:winapi_thunks.obj
 0002:0000258c       ??_C@_0CF@NNDFDCOC@AppPolicyGetThreadInitializatio@ 1005858c     libucrt:winapi_thunks.obj
 0002:000025b8       ??_C@_0CE@OICFMIKE@AppPolicyGetShowDeveloperDiagno@ 100585b8     libucrt:winapi_thunks.obj
 0002:000025e0       ??_C@_0BL@ODDJNEDA@AppPolicyGetWindowingModel@ 100585e0     libucrt:winapi_thunks.obj
 0002:00002604       ??_C@_0BI@BKLFFAPO@SetThreadStackGuarantee@ 10058604     libucrt:winapi_thunks.obj
 0002:00002624       ??_C@_0BC@JEAENNKH@SystemFunction036@ 10058624     libucrt:winapi_thunks.obj
 0002:000026b8       ___lc_category             100586b8     libucrt:wsetlocale.obj
 0002:00002700       ??_C@_1O@GIFLHMA@?$AAL?$AAC?$AA_?$AAA?$AAL?$AAL@ 10058700     libucrt:wsetlocale.obj
 0002:00002710       ??_C@_1BG@PPOMIBNJ@?$AAL?$AAC?$AA_?$AAC?$AAO?$AAL?$AAL?$AAA?$AAT?$AAE@ 10058710     libucrt:wsetlocale.obj
 0002:00002728       ??_C@_1BC@FFJGAPJM@?$AAL?$AAC?$AA_?$AAC?$AAT?$AAY?$AAP?$AAE@ 10058728     libucrt:wsetlocale.obj
 0002:0000273c       ??_C@_1BI@PCKFNJFB@?$AAL?$AAC?$AA_?$AAM?$AAO?$AAN?$AAE?$AAT?$AAA?$AAR?$AAY@ 1005873c     libucrt:wsetlocale.obj
 0002:00002754       ??_C@_1BG@ENIEDKID@?$AAL?$AAC?$AA_?$AAN?$AAU?$AAM?$AAE?$AAR?$AAI?$AAC@ 10058754     libucrt:wsetlocale.obj
 0002:0000276c       ??_C@_1BA@HAAOMIIG@?$AAL?$AAC?$AA_?$AAT?$AAI?$AAM?$AAE@ 1005876c     libucrt:wsetlocale.obj
 0002:0000277c       ??_C@_15NBPDDFIP@?$AA?$DN?$AA?$DL@ 1005877c     libucrt:wsetlocale.obj
 0002:00002784       ??_C@_13PJJBFPED@?$AA?$DL@ 10058784     libucrt:wsetlocale.obj
 0002:00002788       ??_C@_13NMPKAAJP@?$AA?$DN@ 10058788     libucrt:wsetlocale.obj
 0002:0000278c       ??_C@_13IMODFHAA@?$AA?9@   1005878c     libucrt:wsetlocale.obj
 0002:00002790       ??_C@_17EFJLDFDO@?$AA?9?$AA_?$AA?4@ 10058790     libucrt:wsetlocale.obj
 0002:00002798       ??_C@_13FHBKNHDA@?$AAC@    10058798     libucrt:wsetlocale.obj
 0002:0000279c       ??_C@_17MBJJLFDM@?$AA_?$AA?4?$AA?0@ 1005879c     libucrt:wsetlocale.obj
 0002:000027a4       ??_C@_13ENNFDPBH@?$AA_@    100587a4     libucrt:wsetlocale.obj
 0002:000027a8       ??_C@_13JOFGPIOO@?$AA?4@   100587a8     libucrt:wsetlocale.obj
 0002:000027b0       ___lc_time_c               100587b0     libucrt:nlsdata.obj
 0002:00002914       ??_C@_03KOEHGMDN@Sun@      10058914     libucrt:nlsdata.obj
 0002:00002918       ??_C@_03PDAGKDH@Mon@       10058918     libucrt:nlsdata.obj
 0002:0000291c       ??_C@_03NAGEINEP@Tue@      1005891c     libucrt:nlsdata.obj
 0002:00002920       ??_C@_03MHOMLAJA@Wed@      10058920     libucrt:nlsdata.obj
 0002:00002924       ??_C@_03IOFIKPDN@Thu@      10058924     libucrt:nlsdata.obj
 0002:00002928       ??_C@_03IDIOELNC@Fri@      10058928     libucrt:nlsdata.obj
 0002:0000292c       ??_C@_03FEFJNEK@Sat@       1005892c     libucrt:nlsdata.obj
 0002:00002930       ??_C@_06OOPIFAJ@Sunday@    10058930     libucrt:nlsdata.obj
 0002:00002938       ??_C@_06JLEDEDGH@Monday@   10058938     libucrt:nlsdata.obj
 0002:00002940       ??_C@_07BAAGCFCM@Tuesday@  10058940     libucrt:nlsdata.obj
 0002:00002948       ??_C@_09DLIGFAKA@Wednesday@ 10058948     libucrt:nlsdata.obj
 0002:00002954       ??_C@_08HACCIKIA@Thursday@ 10058954     libucrt:nlsdata.obj
 0002:00002960       ??_C@_06JECMNKMI@Friday@   10058960     libucrt:nlsdata.obj
 0002:00002968       ??_C@_08INBOOONO@Saturday@ 10058968     libucrt:nlsdata.obj
 0002:00002974       ??_C@_03JIHJHPIE@Jan@      10058974     libucrt:nlsdata.obj
 0002:00002978       ??_C@_03HJBDCHOM@Feb@      10058978     libucrt:nlsdata.obj
 0002:0000297c       ??_C@_03ODNJBKGA@Mar@      1005897c     libucrt:nlsdata.obj
 0002:00002980       ??_C@_03LEOLGMJP@Apr@      10058980     libucrt:nlsdata.obj
 0002:00002984       ??_C@_03CNMDKL@May@        10058984     libucrt:nlsdata.obj
 0002:00002988       ??_C@_03IDFGHECI@Jun@      10058988     libucrt:nlsdata.obj
 0002:0000298c       ??_C@_03LBGABGKK@Jul@      1005898c     libucrt:nlsdata.obj
 0002:00002990       ??_C@_03IFJFEIGA@Aug@      10058990     libucrt:nlsdata.obj
 0002:00002994       ??_C@_03GGCAPAJC@Sep@      10058994     libucrt:nlsdata.obj
 0002:00002998       ??_C@_03BMAOKBAD@Oct@      10058998     libucrt:nlsdata.obj
 0002:0000299c       ??_C@_03JPJOFNIA@Nov@      1005899c     libucrt:nlsdata.obj
 0002:000029a0       ??_C@_03MKABNOCG@Dec@      100589a0     libucrt:nlsdata.obj
 0002:000029a4       ??_C@_07CGJPFGJA@January@  100589a4     libucrt:nlsdata.obj
 0002:000029ac       ??_C@_08GNJGEPFN@February@ 100589ac     libucrt:nlsdata.obj
 0002:000029b8       ??_C@_05HPCKOFNC@March@    100589b8     libucrt:nlsdata.obj
 0002:000029c0       ??_C@_05DMJDNLEJ@April@    100589c0     libucrt:nlsdata.obj
 0002:000029c8       ??_C@_04CNLMGBGM@June@     100589c8     libucrt:nlsdata.obj
 0002:000029d0       ??_C@_04MIEPOIFP@July@     100589d0     libucrt:nlsdata.obj
 0002:000029d8       ??_C@_06LBBHFDDG@August@   100589d8     libucrt:nlsdata.obj
 0002:000029e0       ??_C@_09BHHEALKD@September@ 100589e0     libucrt:nlsdata.obj
 0002:000029ec       ??_C@_07JJNFCEND@October@  100589ec     libucrt:nlsdata.obj
 0002:000029f4       ??_C@_08HCHEGEOA@November@ 100589f4     libucrt:nlsdata.obj
 0002:00002a00       ??_C@_08EDHMEBNP@December@ 10058a00     libucrt:nlsdata.obj
 0002:00002a0c       ??_C@_02DEDBPAFC@AM@       10058a0c     libucrt:nlsdata.obj
 0002:00002a10       ??_C@_02CJNFDJBF@PM@       10058a10     libucrt:nlsdata.obj
 0002:00002a14       ??_C@_08BPBNCDIB@MM?1dd?1yy@ 10058a14     libucrt:nlsdata.obj
 0002:00002a20       ??_C@_0BE@CKGJFCPC@dddd?0?5MMMM?5dd?0?5yyyy@ 10058a20     libucrt:nlsdata.obj
 0002:00002a34       ??_C@_08JCCMCCIL@HH?3mm?3ss@ 10058a34     libucrt:nlsdata.obj
 0002:00002a40       ??_C@_17MBGCMIPB@?$AAS?$AAu?$AAn@ 10058a40     libucrt:nlsdata.obj
 0002:00002a48       ??_C@_17KBOMKBF@?$AAM?$AAo?$AAn@ 10058a48     libucrt:nlsdata.obj
 0002:00002a50       ??_C@_17BMKGEGOJ@?$AAT?$AAu?$AAe@ 10058a50     libucrt:nlsdata.obj
 0002:00002a58       ??_C@_17CJEDCEPE@?$AAW?$AAe?$AAd@ 10058a58     libucrt:nlsdata.obj
 0002:00002a60       ??_C@_17PDPHAADD@?$AAT?$AAh?$AAu@ 10058a60     libucrt:nlsdata.obj
 0002:00002a68       ??_C@_17HFOLPPLP@?$AAF?$AAr?$AAi@ 10058a68     libucrt:nlsdata.obj
 0002:00002a70       ??_C@_17GGIBDPIH@?$AAS?$AAa?$AAt@ 10058a70     libucrt:nlsdata.obj
 0002:00002a78       ??_C@_1O@IHNHDHPB@?$AAS?$AAu?$AAn?$AAd?$AAa?$AAy@ 10058a78     libucrt:nlsdata.obj
 0002:00002a88       ??_C@_1O@MMNBFLIA@?$AAM?$AAo?$AAn?$AAd?$AAa?$AAy@ 10058a88     libucrt:nlsdata.obj
 0002:00002a98       ??_C@_1BA@ENFBFFEK@?$AAT?$AAu?$AAe?$AAs?$AAd?$AAa?$AAy@ 10058a98     libucrt:nlsdata.obj
 0002:00002aa8       ??_C@_1BE@EBOGMDOH@?$AAW?$AAe?$AAd?$AAn?$AAe?$AAs?$AAd?$AAa?$AAy@ 10058aa8     libucrt:nlsdata.obj
 0002:00002abc       ??_C@_1BC@HHMNLIHE@?$AAT?$AAh?$AAu?$AAr?$AAs?$AAd?$AAa?$AAy@ 10058abc     libucrt:nlsdata.obj
 0002:00002ad0       ??_C@_1O@PDICJHAG@?$AAF?$AAr?$AAi?$AAd?$AAa?$AAy@ 10058ad0     libucrt:nlsdata.obj
 0002:00002ae0       ??_C@_1BC@ENMNNPAJ@?$AAS?$AAa?$AAt?$AAu?$AAr?$AAd?$AAa?$AAy@ 10058ae0     libucrt:nlsdata.obj
 0002:00002af4       ??_C@_17DKNBKCHM@?$AAJ?$AAa?$AAn@ 10058af4     libucrt:nlsdata.obj
 0002:00002afc       ??_C@_17LMDJEKJN@?$AAF?$AAe?$AAb@ 10058afc     libucrt:nlsdata.obj
 0002:00002b04       ??_C@_17CKNLEDEC@?$AAM?$AAa?$AAr@ 10058b04     libucrt:nlsdata.obj
 0002:00002b0c       ??_C@_17LFPOIHDD@?$AAA?$AAp?$AAr@ 10058b0c     libucrt:nlsdata.obj
 0002:00002b14       ??_C@_17PNNKMEED@?$AAM?$AAa?$AAy@ 10058b14     libucrt:nlsdata.obj
 0002:00002b1c       ??_C@_17KCJGOCPB@?$AAJ?$AAu?$AAn@ 10058b1c     libucrt:nlsdata.obj
 0002:00002b24       ??_C@_17IJPCKHK@?$AAJ?$AAu?$AAl@ 10058b24     libucrt:nlsdata.obj
 0002:00002b2c       ??_C@_17ICPELBCN@?$AAA?$AAu?$AAg@ 10058b2c     libucrt:nlsdata.obj
 0002:00002b34       ??_C@_17HCHCOKMG@?$AAS?$AAe?$AAp@ 10058b34     libucrt:nlsdata.obj
 0002:00002b3c       ??_C@_17FNLKOI@?$AAO?$AAc?$AAt@ 10058b3c     libucrt:nlsdata.obj
 0002:00002b44       ??_C@_17BBDMLCIG@?$AAN?$AAo?$AAv@ 10058b44     libucrt:nlsdata.obj
 0002:00002b4c       ??_C@_17EGKACKIF@?$AAD?$AAe?$AAc@ 10058b4c     libucrt:nlsdata.obj
 0002:00002b54       ??_C@_1BA@EFMEIEBA@?$AAJ?$AAa?$AAn?$AAu?$AAa?$AAr?$AAy@ 10058b54     libucrt:nlsdata.obj
 0002:00002b64       ??_C@_1BC@JGDDFFAM@?$AAF?$AAe?$AAb?$AAr?$AAu?$AAa?$AAr?$AAy@ 10058b64     libucrt:nlsdata.obj
 0002:00002b78       ??_C@_1M@IKEENEDF@?$AAM?$AAa?$AAr?$AAc?$AAh@ 10058b78     libucrt:nlsdata.obj
 0002:00002b84       ??_C@_1M@GJNLMHFD@?$AAA?$AAp?$AAr?$AAi?$AAl@ 10058b84     libucrt:nlsdata.obj
 0002:00002b90       ??_C@_19EPFLPGAP@?$AAJ?$AAu?$AAn?$AAe@ 10058b90     libucrt:nlsdata.obj
 0002:00002b9c       ??_C@_19BIFMLPCD@?$AAJ?$AAu?$AAl?$AAy@ 10058b9c     libucrt:nlsdata.obj
 0002:00002ba8       ??_C@_1O@PAHLKOAC@?$AAA?$AAu?$AAg?$AAu?$AAs?$AAt@ 10058ba8     libucrt:nlsdata.obj
 0002:00002bb8       ??_C@_1BE@DKAAMBJL@?$AAS?$AAe?$AAp?$AAt?$AAe?$AAm?$AAb?$AAe?$AAr@ 10058bb8     libucrt:nlsdata.obj
 0002:00002bcc       ??_C@_1BA@EPANDLNG@?$AAO?$AAc?$AAt?$AAo?$AAb?$AAe?$AAr@ 10058bcc     libucrt:nlsdata.obj
 0002:00002bdc       ??_C@_1BC@BGLIFPF@?$AAN?$AAo?$AAv?$AAe?$AAm?$AAb?$AAe?$AAr@ 10058bdc     libucrt:nlsdata.obj
 0002:00002bf0       ??_C@_1BC@FEMKIFH@?$AAD?$AAe?$AAc?$AAe?$AAm?$AAb?$AAe?$AAr@ 10058bf0     libucrt:nlsdata.obj
 0002:00002c04       ??_C@_15ODEHAHHF@?$AAA?$AAM@ 10058c04     libucrt:nlsdata.obj
 0002:00002c0c       ??_C@_15CLMNNGEL@?$AAP?$AAM@ 10058c0c     libucrt:nlsdata.obj
 0002:00002c14       ??_C@_1BC@IEBCMHCM@?$AAM?$AAM?$AA?1?$AAd?$AAd?$AA?1?$AAy?$AAy@ 10058c14     libucrt:nlsdata.obj
 0002:00002c28       ??_C@_1CI@KNAKOEBC@?$AAd?$AAd?$AAd?$AAd?$AA?0?$AA?5?$AAM?$AAM?$AAM?$AAM?$AA?5?$AAd?$AAd?$AA?0?$AA?5@ 10058c28     libucrt:nlsdata.obj
 0002:00002c50       ??_C@_1BC@GDGBMEMK@?$AAH?$AAH?$AA?3?$AAm?$AAm?$AA?3?$AAs?$AAs@ 10058c50     libucrt:nlsdata.obj
 0002:00002c64       ??_C@_1M@BMHNFIME@?$AAe?$AAn?$AA?9?$AAU?$AAS@ 10058c64     libucrt:nlsdata.obj
 0002:00002cb0       ??_C@_03OEIAHPBN@INF@      10058cb0     libucrt:cvt.obj
 0002:00002cb4       ??_C@_03OJHLLCGB@inf@      10058cb4     libucrt:cvt.obj
 0002:00002cb8       ??_C@_03LKNCIKJB@NAN@      10058cb8     libucrt:cvt.obj
 0002:00002cbc       ??_C@_03LHCJEHON@nan@      10058cbc     libucrt:cvt.obj
 0002:00002cc0       ??_C@_09OFJJIMPC@NAN?$CISNAN?$CJ@ 10058cc0     libucrt:cvt.obj
 0002:00002ccc       ??_C@_09IPFBKMDL@nan?$CIsnan?$CJ@ 10058ccc     libucrt:cvt.obj
 0002:00002cd8       ??_C@_08IKHNHAJ@NAN?$CIIND?$CJ@ 10058cd8     libucrt:cvt.obj
 0002:00002ce4       ??_C@_08OFCDMILK@nan?$CIind?$CJ@ 10058ce4     libucrt:cvt.obj
 0002:00002cf0       ??_C@_05KLBDPFGC@e?$CL000@ 10058cf0     libucrt:cvt.obj
 0002:00002cf8       __sys_first_posix_error    10058cf8     libucrt:syserr.obj
 0002:00002cfc       __sys_last_posix_error     10058cfc     libucrt:syserr.obj
 0002:00002d00       __sys_posix_errlist        10058d00     libucrt:syserr.obj
 0002:00002da8       __sys_errlist              10058da8     libucrt:syserr.obj
 0002:00002e58       ??_C@_08INEPGKHH@No?5error@ 10058e58     libucrt:syserr.obj
 0002:00002e64       ??_C@_0BI@BJFCGOHL@Operation?5not?5permitted@ 10058e64     libucrt:syserr.obj
 0002:00002e7c       ??_C@_0BK@FMDHKPNF@No?5such?5file?5or?5directory@ 10058e7c     libucrt:syserr.obj
 0002:00002e98       ??_C@_0BA@FKIAIBGA@No?5such?5process@ 10058e98     libucrt:syserr.obj
 0002:00002ea8       ??_C@_0BK@FJBOAFDK@Interrupted?5function?5call@ 10058ea8     libucrt:syserr.obj
 0002:00002ec4       ??_C@_0BD@KKNFOBBD@Input?1output?5error@ 10058ec4     libucrt:syserr.obj
 0002:00002ed8       ??_C@_0BK@DPKMCKJ@No?5such?5device?5or?5address@ 10058ed8     libucrt:syserr.obj
 0002:00002ef4       ??_C@_0BC@MFFGCDFL@Arg?5list?5too?5long@ 10058ef4     libucrt:syserr.obj
 0002:00002f08       ??_C@_0BC@HKPNECK@Exec?5format?5error@ 10058f08     libucrt:syserr.obj
 0002:00002f1c       ??_C@_0BE@NFGDDCEF@Bad?5file?5descriptor@ 10058f1c     libucrt:syserr.obj
 0002:00002f30       ??_C@_0BD@LOHELEP@No?5child?5processes@ 10058f30     libucrt:syserr.obj
 0002:00002f44       ??_C@_0CB@EPFKGNAK@Resource?5temporarily?5unavailabl@ 10058f44     libucrt:syserr.obj
 0002:00002f68       ??_C@_0BB@IMDKMPFB@Not?5enough?5space@ 10058f68     libucrt:syserr.obj
 0002:00002f7c       ??_C@_0BC@HFNFNKAI@Permission?5denied@ 10058f7c     libucrt:syserr.obj
 0002:00002f90       ??_C@_0M@LOEHLCJD@Bad?5address@ 10058f90     libucrt:syserr.obj
 0002:00002f9c       ??_C@_0O@NIPGCINC@Unknown?5error@ 10058f9c     libucrt:syserr.obj
 0002:00002fac       ??_C@_0BA@BIBLIOEK@Resource?5device@ 10058fac     libucrt:syserr.obj
 0002:00002fbc       ??_C@_0M@NAAJNNGH@File?5exists@ 10058fbc     libucrt:syserr.obj
 0002:00002fc8       ??_C@_0O@OAMDNOCP@Improper?5link@ 10058fc8     libucrt:syserr.obj
 0002:00002fd8       ??_C@_0P@NLEIANHE@No?5such?5device@ 10058fd8     libucrt:syserr.obj
 0002:00002fe8       ??_C@_0BA@CJBACOOL@Not?5a?5directory@ 10058fe8     libucrt:syserr.obj
 0002:00002ff8       ??_C@_0P@NDHGCGKE@Is?5a?5directory@ 10058ff8     libucrt:syserr.obj
 0002:00003008       ??_C@_0BB@HMGGCEBG@Invalid?5argument@ 10059008     libucrt:syserr.obj
 0002:0000301c       ??_C@_0BO@IIFBODJE@Too?5many?5open?5files?5in?5system@ 1005901c     libucrt:syserr.obj
 0002:0000303c       ??_C@_0BE@INBJMKGG@Too?5many?5open?5files@ 1005903c     libucrt:syserr.obj
 0002:00003050       ??_C@_0CE@ONOKNLPF@Inappropriate?5I?1O?5control?5opera@ 10059050     libucrt:syserr.obj
 0002:00003074       ??_C@_0P@LFMMIPAE@File?5too?5large@ 10059074     libucrt:syserr.obj
 0002:00003084       ??_C@_0BI@FEALHKLD@No?5space?5left?5on?5device@ 10059084     libucrt:syserr.obj
 0002:0000309c       ??_C@_0N@FEHLOILP@Invalid?5seek@ 1005909c     libucrt:syserr.obj
 0002:000030ac       ??_C@_0BG@DDBFNKBH@Read?9only?5file?5system@ 100590ac     libucrt:syserr.obj
 0002:000030c4       ??_C@_0P@PKCJJLLM@Too?5many?5links@ 100590c4     libucrt:syserr.obj
 0002:000030d4       ??_C@_0M@LHEPIIOM@Broken?5pipe@ 100590d4     libucrt:syserr.obj
 0002:000030e0       ??_C@_0N@MMJPGLJK@Domain?5error@ 100590e0     libucrt:syserr.obj
 0002:000030f0       ??_C@_0BB@FCBJFCAJ@Result?5too?5large@ 100590f0     libucrt:syserr.obj
 0002:00003104       ??_C@_0BK@JAEBMJJM@Resource?5deadlock?5avoided@ 10059104     libucrt:syserr.obj
 0002:00003120       ??_C@_0BC@BEDIHIDK@Filename?5too?5long@ 10059120     libucrt:syserr.obj
 0002:00003134       ??_C@_0BD@CLHBCGPB@No?5locks?5available@ 10059134     libucrt:syserr.obj
 0002:00003148       ??_C@_0BJ@IHEHINLI@Function?5not?5implemented@ 10059148     libucrt:syserr.obj
 0002:00003164       ??_C@_0BE@ICMCHPHH@Directory?5not?5empty@ 10059164     libucrt:syserr.obj
 0002:00003178       ??_C@_0BG@KLEAJEFJ@Illegal?5byte?5sequence@ 10059178     libucrt:syserr.obj
 0002:00003190       ??_C@_0P@LDMLAFHI@address?5in?5use@ 10059190     libucrt:syserr.obj
 0002:000031a0       ??_C@_0BG@DHPCNBJB@address?5not?5available@ 100591a0     libucrt:syserr.obj
 0002:000031b8       ??_C@_0BN@LKKBCCDB@address?5family?5not?5supported@ 100591b8     libucrt:syserr.obj
 0002:000031d8       ??_C@_0BP@KAIHPOGN@connection?5already?5in?5progress@ 100591d8     libucrt:syserr.obj
 0002:000031f8       ??_C@_0M@PMMIEFCP@bad?5message@ 100591f8     libucrt:syserr.obj
 0002:00003204       ??_C@_0BD@MOLBPMEA@operation?5canceled@ 10059204     libucrt:syserr.obj
 0002:00003218       ??_C@_0BD@MGNDDEGM@connection?5aborted@ 10059218     libucrt:syserr.obj
 0002:0000322c       ??_C@_0BD@PJLIIJEL@connection?5refused@ 1005922c     libucrt:syserr.obj
 0002:00003240       ??_C@_0BB@IECNJNOI@connection?5reset@ 10059240     libucrt:syserr.obj
 0002:00003254       ??_C@_0BN@KDMIFEIP@destination?5address?5required@ 10059254     libucrt:syserr.obj
 0002:00003274       ??_C@_0BB@DHFDFGDM@host?5unreachable@ 10059274     libucrt:syserr.obj
 0002:00003288       ??_C@_0BD@JPHBMONG@identifier?5removed@ 10059288     libucrt:syserr.obj
 0002:0000329c       ??_C@_0BG@KDKHOPCO@operation?5in?5progress@ 1005929c     libucrt:syserr.obj
 0002:000032b4       ??_C@_0BC@DFIBIBIL@already?5connected@ 100592b4     libucrt:syserr.obj
 0002:000032c8       ??_C@_0BO@EFGOJEF@too?5many?5symbolic?5link?5levels@ 100592c8     libucrt:syserr.obj
 0002:000032e8       ??_C@_0N@IFLPBIOP@message?5size@ 100592e8     libucrt:syserr.obj
 0002:000032f8       ??_C@_0N@KIIEAAIO@network?5down@ 100592f8     libucrt:syserr.obj
 0002:00003308       ??_C@_0O@FNPDBHEE@network?5reset@ 10059308     libucrt:syserr.obj
 0002:00003318       ??_C@_0BE@IFNCKGE@network?5unreachable@ 10059318     libucrt:syserr.obj
 0002:0000332c       ??_C@_0BA@PFFCAOFK@no?5buffer?5space@ 1005932c     libucrt:syserr.obj
 0002:0000333c       ??_C@_0BF@PBGGPKKE@no?5message?5available@ 1005933c     libucrt:syserr.obj
 0002:00003354       ??_C@_07PLECNNKG@no?5link@ 10059354     libucrt:syserr.obj
 0002:0000335c       ??_C@_0L@EDOLMPAK@no?5message@ 1005935c     libucrt:syserr.obj
 0002:00003368       ??_C@_0BD@EAMBFIDF@no?5protocol?5option@ 10059368     libucrt:syserr.obj
 0002:0000337c       ??_C@_0BE@MKFDAFMP@no?5stream?5resources@ 1005937c     libucrt:syserr.obj
 0002:00003390       ??_C@_0N@LGAPMMPI@not?5a?5stream@ 10059390     libucrt:syserr.obj
 0002:000033a0       ??_C@_0O@GLMIBBEG@not?5connected@ 100593a0     libucrt:syserr.obj
 0002:000033b0       ??_C@_0BG@MPLKFPAE@state?5not?5recoverable@ 100593b0     libucrt:syserr.obj
 0002:000033c8       ??_C@_0N@POEIPGGF@not?5a?5socket@ 100593c8     libucrt:syserr.obj
 0002:000033d8       ??_C@_0O@NHEDABJP@not?5supported@ 100593d8     libucrt:syserr.obj
 0002:000033e8       ??_C@_0BI@LNEGIFLN@operation?5not?5supported@ 100593e8     libucrt:syserr.obj
 0002:00003400       ??_C@_0BA@KGKGOOJA@value?5too?5large@ 10059400     libucrt:syserr.obj
 0002:00003410       ??_C@_0L@BLPOFLNJ@owner?5dead@ 10059410     libucrt:syserr.obj
 0002:0000341c       ??_C@_0P@FNPOCJBE@protocol?5error@ 1005941c     libucrt:syserr.obj
 0002:0000342c       ??_C@_0BH@JPPPLHJB@protocol?5not?5supported@ 1005942c     libucrt:syserr.obj
 0002:00003444       ??_C@_0BE@MIEJDDNH@wrong?5protocol?5type@ 10059444     libucrt:syserr.obj
 0002:00003458       ??_C@_0P@DIIFGFCG@stream?5timeout@ 10059458     libucrt:syserr.obj
 0002:00003468       ??_C@_09KJPPMAOI@timed?5out@ 10059468     libucrt:syserr.obj
 0002:00003474       ??_C@_0P@IPFDMIFL@text?5file?5busy@ 10059474     libucrt:syserr.obj
 0002:00003484       ??_C@_0BG@OEMDKMEE@operation?5would?5block@ 10059484     libucrt:syserr.obj
 0002:0000349c       __sys_nerr                 1005949c     libucrt:syserr.obj
 0002:000034a0       ___newctype                100594a0     libucrt:ctype.obj
 0002:000037a0       ___newclmap                100597a0     libucrt:ctype.obj
 0002:00003920       ___newcumap                10059920     libucrt:ctype.obj
 0002:00003aa0       __wctype                   10059aa0     libucrt:ctype.obj
 0002:00003ca4       ?ccs@?1???$__acrt_stdio_parse_mode@D@@YA?AU__acrt_stdio_stream_mode@@QBD@Z@4QBDB 10059ca4     libucrt:openfile.obj
 0002:00003ca8       ?utf8_encoding@?1???$__acrt_stdio_parse_mode@D@@YA?AU__acrt_stdio_stream_mode@@QBD@Z@4QBDB 10059ca8     libucrt:openfile.obj
 0002:00003cb0       ?utf16_encoding@?1???$__acrt_stdio_parse_mode@D@@YA?AU__acrt_stdio_stream_mode@@QBD@Z@4QBDB 10059cb0     libucrt:openfile.obj
 0002:00003cb8       ?unicode_encoding@?1???$__acrt_stdio_parse_mode@D@@YA?AU__acrt_stdio_stream_mode@@QBD@Z@4QBDB 10059cb8     libucrt:openfile.obj
 0002:00003cc0       ?ccs@?1???$__acrt_stdio_parse_mode@_W@@YA?AU__acrt_stdio_stream_mode@@QB_W@Z@4QB_WB 10059cc0     libucrt:openfile.obj
 0002:00003cc8       ?utf8_encoding@?1???$__acrt_stdio_parse_mode@_W@@YA?AU__acrt_stdio_stream_mode@@QB_W@Z@4QB_WB 10059cc8     libucrt:openfile.obj
 0002:00003cd4       ?utf16_encoding@?1???$__acrt_stdio_parse_mode@_W@@YA?AU__acrt_stdio_stream_mode@@QB_W@Z@4QB_WB 10059cd4     libucrt:openfile.obj
 0002:00003ce4       ?unicode_encoding@?1???$__acrt_stdio_parse_mode@_W@@YA?AU__acrt_stdio_stream_mode@@QB_W@Z@4QB_WB 10059ce4     libucrt:openfile.obj
 0002:00003d04       ??_C@_1M@HPNHIDJI@?$AAj?$AAa?$AA?9?$AAJ?$AAP@ 10059d04     libucrt:mbctype.obj
 0002:00003d10       ??_C@_1M@BIBDDEMK@?$AAz?$AAh?$AA?9?$AAC?$AAN@ 10059d10     libucrt:mbctype.obj
 0002:00003d1c       ??_C@_1M@JLOOOEGK@?$AAk?$AAo?$AA?9?$AAK?$AAR@ 10059d1c     libucrt:mbctype.obj
 0002:00003d28       ??_C@_1M@CLNBBOPM@?$AAz?$AAh?$AA?9?$AAT?$AAW@ 10059d28     libucrt:mbctype.obj
 0002:00003d34       ??_C@_1DE@JNGNBFGO@?$AAR?$AAu?$AAn?$AAt?$AAi?$AAm?$AAe?$AA?5?$AAE?$AAr?$AAr?$AAo?$AAr?$AA?$CB?$AA?6@ 10059d34     libucrt:report_runtime_error.obj
 0002:00003d68       ??_C@_1CO@EAEJAADC@?$AA?$DM?$AAp?$AAr?$AAo?$AAg?$AAr?$AAa?$AAm?$AA?5?$AAn?$AAa?$AAm?$AAe?$AA?5?$AAu@ 10059d68     libucrt:report_runtime_error.obj
 0002:00003d98       ??_C@_17LGKOMLJ@?$AA?4?$AA?4?$AA?4@ 10059d98     libucrt:report_runtime_error.obj
 0002:00003da0       ??_C@_15IABLJNFO@?$AA?6?$AA?6@ 10059da0     libucrt:report_runtime_error.obj
 0002:00003da8       ??_C@_1EK@MBDPDCGA@?$AAM?$AAi?$AAc?$AAr?$AAo?$AAs?$AAo?$AAf?$AAt?$AA?5?$AAV?$AAi?$AAs?$AAu?$AAa@ 10059da8     libucrt:report_runtime_error.obj
 0002:00004518       ??_C@_15EMKDOKLE@?$AAa?$AAr@ 1005a518     libucrt:lcidtoname_downlevel.obj
 0002:00004520       ??_C@_15KNPADPLH@?$AAb?$AAg@ 1005a520     libucrt:lcidtoname_downlevel.obj
 0002:00004528       ??_C@_15EDMHLDMO@?$AAc?$AAa@ 1005a528     libucrt:lcidtoname_downlevel.obj
 0002:00004530       ??_C@_1O@BPEAJADD@?$AAz?$AAh?$AA?9?$AAC?$AAH?$AAS@ 1005a530     libucrt:lcidtoname_downlevel.obj
 0002:00004540       ??_C@_15LJNHCMNK@?$AAc?$AAs@ 1005a540     libucrt:lcidtoname_downlevel.obj
 0002:00004548       ??_C@_15FOMCIDHG@?$AAd?$AAa@ 1005a548     libucrt:lcidtoname_downlevel.obj
 0002:00004550       ??_C@_15NBKABECB@?$AAd?$AAe@ 1005a550     libucrt:lcidtoname_downlevel.obj
 0002:00004558       ??_C@_15GHPEIIAO@?$AAe?$AAl@ 1005a558     libucrt:lcidtoname_downlevel.obj
 0002:00004560       ??_C@_15MNPNEAIF@?$AAe?$AAn@ 1005a560     libucrt:lcidtoname_downlevel.obj
 0002:00004568       ??_C@_15GPIOMPMH@?$AAe?$AAs@ 1005a568     libucrt:lcidtoname_downlevel.obj
 0002:00004570       ??_C@_15NGLOAKJC@?$AAf?$AAi@ 1005a570     libucrt:lcidtoname_downlevel.obj
 0002:00004578       ??_C@_15FBKGNKAM@?$AAf?$AAr@ 1005a578     libucrt:lcidtoname_downlevel.obj
 0002:00004580       ??_C@_15KGGCNEFK@?$AAh?$AAe@ 1005a580     libucrt:lcidtoname_downlevel.obj
 0002:00004588       ??_C@_15PGHLIDMF@?$AAh?$AAu@ 1005a588     libucrt:lcidtoname_downlevel.obj
 0002:00004590       ??_C@_15BIEMAPLM@?$AAi?$AAs@ 1005a590     libucrt:lcidtoname_downlevel.obj
 0002:00004598       ??_C@_15IFJLDHAF@?$AAi?$AAt@ 1005a598     libucrt:lcidtoname_downlevel.obj
 0002:000045a0       ??_C@_15GEMIOCAG@?$AAj?$AAa@ 1005a5a0     libucrt:lcidtoname_downlevel.obj
 0002:000045a8       ??_C@_15EPELEGJA@?$AAk?$AAo@ 1005a5a8     libucrt:lcidtoname_downlevel.obj
 0002:000045b0       ??_C@_15NDDHIMN@?$AAn?$AAl@ 1005a5b0     libucrt:lcidtoname_downlevel.obj
 0002:000045b8       ??_C@_15BPIGNHCD@?$AAn?$AAo@ 1005a5b8     libucrt:lcidtoname_downlevel.obj
 0002:000045c0       ??_C@_15DEOPBLCG@?$AAp?$AAl@ 1005a5c0     libucrt:lcidtoname_downlevel.obj
 0002:000045c8       ??_C@_15KBECGEFG@?$AAp?$AAt@ 1005a5c8     libucrt:lcidtoname_downlevel.obj
 0002:000045d0       ??_C@_15GLJCBFMD@?$AAr?$AAo@ 1005a5d0     libucrt:lcidtoname_downlevel.obj
 0002:000045d8       ??_C@_15FEDGKCDI@?$AAr?$AAu@ 1005a5d8     libucrt:lcidtoname_downlevel.obj
 0002:000045e0       ??_C@_15GLKMLLHM@?$AAh?$AAr@ 1005a5e0     libucrt:lcidtoname_downlevel.obj
 0002:000045e8       ??_C@_15CPKMFBDB@?$AAs?$AAk@ 1005a5e8     libucrt:lcidtoname_downlevel.obj
 0002:000045f0       ??_C@_15BAAIOGMK@?$AAs?$AAq@ 1005a5f0     libucrt:lcidtoname_downlevel.obj
 0002:000045f8       ??_C@_15INNPNOHD@?$AAs?$AAv@ 1005a5f8     libucrt:lcidtoname_downlevel.obj
 0002:00004600       ??_C@_15CABMMOGH@?$AAt?$AAh@ 1005a600     libucrt:lcidtoname_downlevel.obj
 0002:00004608       ??_C@_15BPLIHJJM@?$AAt?$AAr@ 1005a608     libucrt:lcidtoname_downlevel.obj
 0002:00004610       ??_C@_15NEOEKKDJ@?$AAu?$AAr@ 1005a610     libucrt:lcidtoname_downlevel.obj
 0002:00004618       ??_C@_15NFICGAJK@?$AAi?$AAd@ 1005a618     libucrt:lcidtoname_downlevel.obj
 0002:00004620       ??_C@_15PJPFLCCM@?$AAu?$AAk@ 1005a620     libucrt:lcidtoname_downlevel.obj
 0002:00004628       ??_C@_15HPJPHDM@?$AAb?$AAe@ 1005a628     libucrt:lcidtoname_downlevel.obj
 0002:00004630       ??_C@_15LCHLGJII@?$AAs?$AAl@ 1005a630     libucrt:lcidtoname_downlevel.obj
 0002:00004638       ??_C@_15PCFJPHHO@?$AAe?$AAt@ 1005a638     libucrt:lcidtoname_downlevel.obj
 0002:00004640       ??_C@_15HPFPGODN@?$AAl?$AAv@ 1005a640     libucrt:lcidtoname_downlevel.obj
 0002:00004648       ??_C@_15NFFGKGLG@?$AAl?$AAt@ 1005a648     libucrt:lcidtoname_downlevel.obj
 0002:00004650       ??_C@_15BDAKCCHN@?$AAf?$AAa@ 1005a650     libucrt:lcidtoname_downlevel.obj
 0002:00004658       ??_C@_15NFGIAIAJ@?$AAv?$AAi@ 1005a658     libucrt:lcidtoname_downlevel.obj
 0002:00004660       ??_C@_15LMKNDMHN@?$AAh?$AAy@ 1005a660     libucrt:lcidtoname_downlevel.obj
 0002:00004668       ??_C@_15IJBHMCFL@?$AAa?$AAz@ 1005a668     libucrt:lcidtoname_downlevel.obj
 0002:00004670       ??_C@_15EKOFJABL@?$AAe?$AAu@ 1005a670     libucrt:lcidtoname_downlevel.obj
 0002:00004678       ??_C@_15BGHADCNK@?$AAm?$AAk@ 1005a678     libucrt:lcidtoname_downlevel.obj
 0002:00004680       ??_C@_15JDNICKHM@?$AAa?$AAf@ 1005a680     libucrt:lcidtoname_downlevel.obj
 0002:00004688       ??_C@_15KPJEDBKD@?$AAk?$AAa@ 1005a688     libucrt:lcidtoname_downlevel.obj
 0002:00004690       ??_C@_15PDNFFFEO@?$AAf?$AAo@ 1005a690     libucrt:lcidtoname_downlevel.obj
 0002:00004698       ??_C@_15OMLEGLOC@?$AAh?$AAi@ 1005a698     libucrt:lcidtoname_downlevel.obj
 0002:000046a0       ??_C@_15IDNNENKK@?$AAm?$AAs@ 1005a6a0     libucrt:lcidtoname_downlevel.obj
 0002:000046a8       ??_C@_15MACJNBMH@?$AAk?$AAk@ 1005a6a8     libucrt:lcidtoname_downlevel.obj
 0002:000046b0       ??_C@_15DKDJEOND@?$AAk?$AAy@ 1005a6b0     libucrt:lcidtoname_downlevel.obj
 0002:000046b8       ??_C@_15DFGDLJBG@?$AAs?$AAw@ 1005a6b8     libucrt:lcidtoname_downlevel.obj
 0002:000046c0       ??_C@_15BBFAICNG@?$AAu?$AAz@ 1005a6c0     libucrt:lcidtoname_downlevel.obj
 0002:000046c8       ??_C@_15DKNDCGEA@?$AAt?$AAt@ 1005a6c8     libucrt:lcidtoname_downlevel.obj
 0002:000046d0       ??_C@_15MGIFMDPL@?$AAp?$AAa@ 1005a6d0     libucrt:lcidtoname_downlevel.obj
 0002:000046d8       ??_C@_15HCNDBBA@?$AAg?$AAu@ 1005a6d8     libucrt:lcidtoname_downlevel.obj
 0002:000046e0       ??_C@_15FNBEIBON@?$AAt?$AAa@ 1005a6e0     libucrt:lcidtoname_downlevel.obj
 0002:000046e8       ??_C@_15NCHGBGLK@?$AAt?$AAe@ 1005a6e8     libucrt:lcidtoname_downlevel.obj
 0002:000046f0       ??_C@_15PHPHCBPF@?$AAk?$AAn@ 1005a6f0     libucrt:lcidtoname_downlevel.obj
 0002:000046f8       ??_C@_15DLGBCKMP@?$AAm?$AAr@ 1005a6f8     libucrt:lcidtoname_downlevel.obj
 0002:00004700       ??_C@_15EABBLBFF@?$AAs?$AAa@ 1005a700     libucrt:lcidtoname_downlevel.obj
 0002:00004708       ??_C@_15CBKOMCOI@?$AAm?$AAn@ 1005a708     libucrt:lcidtoname_downlevel.obj
 0002:00004710       ??_C@_15CKDMCJAF@?$AAg?$AAl@ 1005a710     libucrt:lcidtoname_downlevel.obj
 0002:00004718       ??_C@_17CNJFBPG@?$AAk?$AAo?$AAk@ 1005a718     libucrt:lcidtoname_downlevel.obj
 0002:00004720       ??_C@_17FFBJICPL@?$AAs?$AAy?$AAr@ 1005a720     libucrt:lcidtoname_downlevel.obj
 0002:00004728       ??_C@_17KPNDCPAF@?$AAd?$AAi?$AAv@ 1005a728     libucrt:lcidtoname_downlevel.obj
 0002:00004730       ??_C@_11LOCGONAA@@         1005a730     libucrt:lcidtoname_downlevel.obj
 0002:00004734       ??_C@_1M@OKAHONE@?$AAa?$AAr?$AA?9?$AAS?$AAA@ 1005a734     libucrt:lcidtoname_downlevel.obj
 0002:00004740       ??_C@_1M@FFFIGIGK@?$AAb?$AAg?$AA?9?$AAB?$AAG@ 1005a740     libucrt:lcidtoname_downlevel.obj
 0002:0000474c       ??_C@_1M@BJNKEDC@?$AAc?$AAa?$AA?9?$AAE?$AAS@ 1005a74c     libucrt:lcidtoname_downlevel.obj
 0002:00004758       ??_C@_1M@IJJHFJHA@?$AAc?$AAs?$AA?9?$AAC?$AAZ@ 1005a758     libucrt:lcidtoname_downlevel.obj
 0002:00004764       ??_C@_1M@CLPEOBGI@?$AAd?$AAa?$AA?9?$AAD?$AAK@ 1005a764     libucrt:lcidtoname_downlevel.obj
 0002:00004770       ??_C@_1M@MCMADGCB@?$AAd?$AAe?$AA?9?$AAD?$AAE@ 1005a770     libucrt:lcidtoname_downlevel.obj
 0002:0000477c       ??_C@_1M@OOCKEMAM@?$AAe?$AAl?$AA?9?$AAG?$AAR@ 1005a77c     libucrt:lcidtoname_downlevel.obj
 0002:00004788       ??_C@_1M@DDNJFGID@?$AAf?$AAi?$AA?9?$AAF?$AAI@ 1005a788     libucrt:lcidtoname_downlevel.obj
 0002:00004794       ??_C@_1M@GLIPPMAC@?$AAf?$AAr?$AA?9?$AAF?$AAR@ 1005a794     libucrt:lcidtoname_downlevel.obj
 0002:000047a0       ??_C@_1M@GFMCHPE@?$AAh?$AAe?$AA?9?$AAI?$AAL@ 1005a7a0     libucrt:lcidtoname_downlevel.obj
 0002:000047ac       ??_C@_1M@MHLPGNKM@?$AAh?$AAu?$AA?9?$AAH?$AAU@ 1005a7ac     libucrt:lcidtoname_downlevel.obj
 0002:000047b8       ??_C@_1M@LPDDNNPN@?$AAi?$AAs?$AA?9?$AAI?$AAS@ 1005a7b8     libucrt:lcidtoname_downlevel.obj
 0002:000047c4       ??_C@_1M@MADIPODN@?$AAi?$AAt?$AA?9?$AAI?$AAT@ 1005a7c4     libucrt:lcidtoname_downlevel.obj
 0002:000047d0       ??_C@_1M@IHBJJGG@?$AAn?$AAl?$AA?9?$AAN?$AAL@ 1005a7d0     libucrt:lcidtoname_downlevel.obj
 0002:000047dc       ??_C@_1M@EANAGDL@?$AAn?$AAb?$AA?9?$AAN?$AAO@ 1005a7dc     libucrt:lcidtoname_downlevel.obj
 0002:000047e8       ??_C@_1M@NEIEMEGP@?$AAp?$AAl?$AA?9?$AAP?$AAL@ 1005a7e8     libucrt:lcidtoname_downlevel.obj
 0002:000047f4       ??_C@_1M@BOCFIGEP@?$AAp?$AAt?$AA?9?$AAB?$AAR@ 1005a7f4     libucrt:lcidtoname_downlevel.obj
 0002:00004800       ??_C@_1M@IMPFOPBG@?$AAr?$AAo?$AA?9?$AAR?$AAO@ 1005a800     libucrt:lcidtoname_downlevel.obj
 0002:0000480c       ??_C@_1M@IDNNEJMM@?$AAr?$AAu?$AA?9?$AAR?$AAU@ 1005a80c     libucrt:lcidtoname_downlevel.obj
 0002:00004818       ??_C@_1M@LILEEOGM@?$AAh?$AAr?$AA?9?$AAH?$AAR@ 1005a818     libucrt:lcidtoname_downlevel.obj
 0002:00004824       ??_C@_1M@FKIFEHPB@?$AAs?$AAk?$AA?9?$AAS?$AAK@ 1005a824     libucrt:lcidtoname_downlevel.obj
 0002:00004830       ??_C@_1M@LJMAMNPJ@?$AAs?$AAq?$AA?9?$AAA?$AAL@ 1005a830     libucrt:lcidtoname_downlevel.obj
 0002:0000483c       ??_C@_1M@GIAKDKJK@?$AAs?$AAv?$AA?9?$AAS?$AAE@ 1005a83c     libucrt:lcidtoname_downlevel.obj
 0002:00004848       ??_C@_1M@MKJKIKCL@?$AAt?$AAh?$AA?9?$AAT?$AAH@ 1005a848     libucrt:lcidtoname_downlevel.obj
 0002:00004854       ??_C@_1M@MFLCCMPB@?$AAt?$AAr?$AA?9?$AAT?$AAR@ 1005a854     libucrt:lcidtoname_downlevel.obj
 0002:00004860       ??_C@_1M@OIJHDKJN@?$AAu?$AAr?$AA?9?$AAP?$AAK@ 1005a860     libucrt:lcidtoname_downlevel.obj
 0002:0000486c       ??_C@_1M@LHIPCIEK@?$AAi?$AAd?$AA?9?$AAI?$AAD@ 1005a86c     libucrt:lcidtoname_downlevel.obj
 0002:00004878       ??_C@_1M@MFMOBGI@?$AAu?$AAk?$AA?9?$AAU?$AAA@ 1005a878     libucrt:lcidtoname_downlevel.obj
 0002:00004884       ??_C@_1M@OBGLJIPL@?$AAb?$AAe?$AA?9?$AAB?$AAY@ 1005a884     libucrt:lcidtoname_downlevel.obj
 0002:00004890       ??_C@_1M@BCFAJEAD@?$AAs?$AAl?$AA?9?$AAS?$AAI@ 1005a890     libucrt:lcidtoname_downlevel.obj
 0002:0000489c       ??_C@_1M@FKFFEDDN@?$AAe?$AAt?$AA?9?$AAE?$AAE@ 1005a89c     libucrt:lcidtoname_downlevel.obj
 0002:000048a8       ??_C@_1M@KGKKAACI@?$AAl?$AAv?$AA?9?$AAL?$AAV@ 1005a8a8     libucrt:lcidtoname_downlevel.obj
 0002:000048b4       ??_C@_1M@IFGBIJO@?$AAl?$AAt?$AA?9?$AAL?$AAT@ 1005a8b4     libucrt:lcidtoname_downlevel.obj
 0002:000048c0       ??_C@_1M@FGEAHEDM@?$AAf?$AAa?$AA?9?$AAI?$AAR@ 1005a8c0     libucrt:lcidtoname_downlevel.obj
 0002:000048cc       ??_C@_1M@KBMAIBFN@?$AAv?$AAi?$AA?9?$AAV?$AAN@ 1005a8cc     libucrt:lcidtoname_downlevel.obj
 0002:000048d8       ??_C@_1M@GPCBKDJK@?$AAh?$AAy?$AA?9?$AAA?$AAM@ 1005a8d8     libucrt:lcidtoname_downlevel.obj
 0002:000048e4       ??_C@_1BG@BECMDDJB@?$AAa?$AAz?$AA?9?$AAA?$AAZ?$AA?9?$AAL?$AAa?$AAt?$AAn@ 1005a8e4     libucrt:lcidtoname_downlevel.obj
 0002:000048fc       ??_C@_1M@MAOFCAEA@?$AAe?$AAu?$AA?9?$AAE?$AAS@ 1005a8fc     libucrt:lcidtoname_downlevel.obj
 0002:00004908       ??_C@_1M@IGHABKPI@?$AAm?$AAk?$AA?9?$AAM?$AAK@ 1005a908     libucrt:lcidtoname_downlevel.obj
 0002:00004914       ??_C@_1M@IAIGNEJG@?$AAt?$AAn?$AA?9?$AAZ?$AAA@ 1005a914     libucrt:lcidtoname_downlevel.obj
 0002:00004920       ??_C@_1M@IIJCOJFA@?$AAx?$AAh?$AA?9?$AAZ?$AAA@ 1005a920     libucrt:lcidtoname_downlevel.obj
 0002:0000492c       ??_C@_1M@LGPJHNJH@?$AAz?$AAu?$AA?9?$AAZ?$AAA@ 1005a92c     libucrt:lcidtoname_downlevel.obj
 0002:00004938       ??_C@_1M@HOKAOIO@?$AAa?$AAf?$AA?9?$AAZ?$AAA@ 1005a938     libucrt:lcidtoname_downlevel.obj
 0002:00004944       ??_C@_1M@DPCLHLIE@?$AAk?$AAa?$AA?9?$AAG?$AAE@ 1005a944     libucrt:lcidtoname_downlevel.obj
 0002:00004950       ??_C@_1M@BLKMHJBI@?$AAf?$AAo?$AA?9?$AAF?$AAO@ 1005a950     libucrt:lcidtoname_downlevel.obj
 0002:0000495c       ??_C@_1M@LGGJAPPB@?$AAh?$AAi?$AA?9?$AAI?$AAN@ 1005a95c     libucrt:lcidtoname_downlevel.obj
 0002:00004968       ??_C@_1M@FIKPIHFE@?$AAm?$AAt?$AA?9?$AAM?$AAT@ 1005a968     libucrt:lcidtoname_downlevel.obj
 0002:00004974       ??_C@_1M@HEGGPBFA@?$AAs?$AAe?$AA?9?$AAN?$AAO@ 1005a974     libucrt:lcidtoname_downlevel.obj
 0002:00004980       ??_C@_1M@EIBJEEPA@?$AAm?$AAs?$AA?9?$AAM?$AAY@ 1005a980     libucrt:lcidtoname_downlevel.obj
 0002:0000498c       ??_C@_1M@FHLBGMPP@?$AAk?$AAk?$AA?9?$AAK?$AAZ@ 1005a98c     libucrt:lcidtoname_downlevel.obj
 0002:00004998       ??_C@_1M@NGJJLCGI@?$AAk?$AAy?$AA?9?$AAK?$AAG@ 1005a998     libucrt:lcidtoname_downlevel.obj
 0002:000049a4       ??_C@_1M@GIENNBFC@?$AAs?$AAw?$AA?9?$AAK?$AAE@ 1005a9a4     libucrt:lcidtoname_downlevel.obj
 0002:000049b0       ??_C@_1BG@NDGMJIMJ@?$AAu?$AAz?$AA?9?$AAU?$AAZ?$AA?9?$AAL?$AAa?$AAt?$AAn@ 1005a9b0     libucrt:lcidtoname_downlevel.obj
 0002:000049c8       ??_C@_1M@IDCCIHBC@?$AAt?$AAt?$AA?9?$AAR?$AAU@ 1005a9c8     libucrt:lcidtoname_downlevel.obj
 0002:000049d4       ??_C@_1M@LOICPMOJ@?$AAb?$AAn?$AA?9?$AAI?$AAN@ 1005a9d4     libucrt:lcidtoname_downlevel.obj
 0002:000049e0       ??_C@_1M@KPKKNEAH@?$AAp?$AAa?$AA?9?$AAI?$AAN@ 1005a9e0     libucrt:lcidtoname_downlevel.obj
 0002:000049ec       ??_C@_1M@PJGPPBOG@?$AAg?$AAu?$AA?9?$AAI?$AAN@ 1005a9ec     libucrt:lcidtoname_downlevel.obj
 0002:000049f8       ??_C@_1M@KMKMOPHI@?$AAt?$AAa?$AA?9?$AAI?$AAN@ 1005a9f8     libucrt:lcidtoname_downlevel.obj
 0002:00004a04       ??_C@_1M@KFEHEPAC@?$AAt?$AAe?$AA?9?$AAI?$AAN@ 1005aa04     libucrt:lcidtoname_downlevel.obj
 0002:00004a10       ??_C@_1M@CDCLMGHI@?$AAk?$AAn?$AA?9?$AAI?$AAN@ 1005aa10     libucrt:lcidtoname_downlevel.obj
 0002:00004a1c       ??_C@_1M@MIODLDKF@?$AAm?$AAl?$AA?9?$AAI?$AAN@ 1005aa1c     libucrt:lcidtoname_downlevel.obj
 0002:00004a28       ??_C@_1M@PBIEACPO@?$AAm?$AAr?$AA?9?$AAI?$AAN@ 1005aa28     libucrt:lcidtoname_downlevel.obj
 0002:00004a34       ??_C@_1M@NIDEAGPH@?$AAs?$AAa?$AA?9?$AAI?$AAN@ 1005aa34     libucrt:lcidtoname_downlevel.obj
 0002:00004a40       ??_C@_1M@FHIHCBIO@?$AAm?$AAn?$AA?9?$AAM?$AAN@ 1005aa40     libucrt:lcidtoname_downlevel.obj
 0002:00004a4c       ??_C@_1M@JAIJPENP@?$AAc?$AAy?$AA?9?$AAG?$AAB@ 1005aa4c     libucrt:lcidtoname_downlevel.obj
 0002:00004a58       ??_C@_1M@PHGFBEPN@?$AAg?$AAl?$AA?9?$AAE?$AAS@ 1005aa58     libucrt:lcidtoname_downlevel.obj
 0002:00004a64       ??_C@_1O@KPIPDNCP@?$AAk?$AAo?$AAk?$AA?9?$AAI?$AAN@ 1005aa64     libucrt:lcidtoname_downlevel.obj
 0002:00004a74       ??_C@_1O@KNHJLDJA@?$AAs?$AAy?$AAr?$AA?9?$AAS?$AAY@ 1005aa74     libucrt:lcidtoname_downlevel.obj
 0002:00004a84       ??_C@_1O@MKEKBLAH@?$AAd?$AAi?$AAv?$AA?9?$AAM?$AAV@ 1005aa84     libucrt:lcidtoname_downlevel.obj
 0002:00004a94       ??_C@_1O@OHDCKDDF@?$AAq?$AAu?$AAz?$AA?9?$AAB?$AAO@ 1005aa94     libucrt:lcidtoname_downlevel.obj
 0002:00004aa4       ??_C@_1M@LEPJNLFD@?$AAn?$AAs?$AA?9?$AAZ?$AAA@ 1005aaa4     libucrt:lcidtoname_downlevel.obj
 0002:00004ab0       ??_C@_1M@OMLEIIJB@?$AAm?$AAi?$AA?9?$AAN?$AAZ@ 1005aab0     libucrt:lcidtoname_downlevel.obj
 0002:00004abc       ??_C@_1M@PMPEAILG@?$AAa?$AAr?$AA?9?$AAI?$AAQ@ 1005aabc     libucrt:lcidtoname_downlevel.obj
 0002:00004ac8       ??_C@_1M@CNKPNOEE@?$AAd?$AAe?$AA?9?$AAC?$AAH@ 1005aac8     libucrt:lcidtoname_downlevel.obj
 0002:00004ad4       ??_C@_1M@LKMGMLKO@?$AAe?$AAn?$AA?9?$AAG?$AAB@ 1005aad4     libucrt:lcidtoname_downlevel.obj
 0002:00004ae0       ??_C@_1M@PGKJFFGL@?$AAe?$AAs?$AA?9?$AAM?$AAX@ 1005aae0     libucrt:lcidtoname_downlevel.obj
 0002:00004aec       ??_C@_1M@DNNANBDC@?$AAf?$AAr?$AA?9?$AAB?$AAE@ 1005aaec     libucrt:lcidtoname_downlevel.obj
 0002:00004af8       ??_C@_1M@HLGMDFHM@?$AAi?$AAt?$AA?9?$AAC?$AAH@ 1005aaf8     libucrt:lcidtoname_downlevel.obj
 0002:00004b04       ??_C@_1M@CLLBGJH@?$AAn?$AAl?$AA?9?$AAB?$AAE@ 1005ab04     libucrt:lcidtoname_downlevel.obj
 0002:00004b10       ??_C@_1M@BODBOGLF@?$AAn?$AAn?$AA?9?$AAN?$AAO@ 1005ab10     libucrt:lcidtoname_downlevel.obj
 0002:00004b1c       ??_C@_1M@HFFAHKAD@?$AAp?$AAt?$AA?9?$AAP?$AAT@ 1005ab1c     libucrt:lcidtoname_downlevel.obj
 0002:00004b28       ??_C@_1BG@LNOAKHIE@?$AAs?$AAr?$AA?9?$AAS?$AAP?$AA?9?$AAL?$AAa?$AAt?$AAn@ 1005ab28     libucrt:lcidtoname_downlevel.obj
 0002:00004b40       ??_C@_1M@HBMHBGAK@?$AAs?$AAv?$AA?9?$AAF?$AAI@ 1005ab40     libucrt:lcidtoname_downlevel.obj
 0002:00004b4c       ??_C@_1BG@DGCJGJBE@?$AAa?$AAz?$AA?9?$AAA?$AAZ?$AA?9?$AAC?$AAy?$AAr?$AAl@ 1005ab4c     libucrt:lcidtoname_downlevel.obj
 0002:00004b64       ??_C@_1M@KEJDAAHB@?$AAs?$AAe?$AA?9?$AAS?$AAE@ 1005ab64     libucrt:lcidtoname_downlevel.obj
 0002:00004b70       ??_C@_1M@HEIBJJAD@?$AAm?$AAs?$AA?9?$AAB?$AAN@ 1005ab70     libucrt:lcidtoname_downlevel.obj
 0002:00004b7c       ??_C@_1BG@PBGJMCEM@?$AAu?$AAz?$AA?9?$AAU?$AAZ?$AA?9?$AAC?$AAy?$AAr?$AAl@ 1005ab7c     libucrt:lcidtoname_downlevel.obj
 0002:00004b94       ??_C@_1O@LAOBCMDF@?$AAq?$AAu?$AAz?$AA?9?$AAE?$AAC@ 1005ab94     libucrt:lcidtoname_downlevel.obj
 0002:00004ba4       ??_C@_1M@POEEMAIO@?$AAa?$AAr?$AA?9?$AAE?$AAG@ 1005aba4     libucrt:lcidtoname_downlevel.obj
 0002:00004bb0       ??_C@_1M@EFAKDEDL@?$AAz?$AAh?$AA?9?$AAH?$AAK@ 1005abb0     libucrt:lcidtoname_downlevel.obj
 0002:00004bbc       ??_C@_1M@HKKIJHGI@?$AAd?$AAe?$AA?9?$AAA?$AAT@ 1005abbc     libucrt:lcidtoname_downlevel.obj
 0002:00004bc8       ??_C@_1M@KBFBEHJF@?$AAe?$AAn?$AA?9?$AAA?$AAU@ 1005abc8     libucrt:lcidtoname_downlevel.obj
 0002:00004bd4       ??_C@_1M@MNPLFAAH@?$AAe?$AAs?$AA?9?$AAE?$AAS@ 1005abd4     libucrt:lcidtoname_downlevel.obj
 0002:00004be0       ??_C@_1M@HJOOJFMA@?$AAf?$AAr?$AA?9?$AAC?$AAA@ 1005abe0     libucrt:lcidtoname_downlevel.obj
 0002:00004bec       ??_C@_1BG@JPOFPNAB@?$AAs?$AAr?$AA?9?$AAS?$AAP?$AA?9?$AAC?$AAy?$AAr?$AAl@ 1005abec     libucrt:lcidtoname_downlevel.obj
 0002:00004c04       ??_C@_1M@LNFOCMOB@?$AAs?$AAe?$AA?9?$AAF?$AAI@ 1005ac04     libucrt:lcidtoname_downlevel.obj
 0002:00004c10       ??_C@_1O@MGJBOAMB@?$AAq?$AAu?$AAz?$AA?9?$AAP?$AAE@ 1005ac10     libucrt:lcidtoname_downlevel.obj
 0002:00004c20       ??_C@_1M@GJINLBOK@?$AAa?$AAr?$AA?9?$AAL?$AAY@ 1005ac20     libucrt:lcidtoname_downlevel.obj
 0002:00004c2c       ??_C@_1M@GGMNHJNL@?$AAz?$AAh?$AA?9?$AAS?$AAG@ 1005ac2c     libucrt:lcidtoname_downlevel.obj
 0002:00004c38       ??_C@_1M@HOIKODND@?$AAd?$AAe?$AA?9?$AAL?$AAU@ 1005ac38     libucrt:lcidtoname_downlevel.obj
 0002:00004c44       ??_C@_1M@DDOCCGFG@?$AAe?$AAn?$AA?9?$AAC?$AAA@ 1005ac44     libucrt:lcidtoname_downlevel.obj
 0002:00004c50       ??_C@_1M@BNOEMJLF@?$AAe?$AAs?$AA?9?$AAG?$AAT@ 1005ac50     libucrt:lcidtoname_downlevel.obj
 0002:00004c5c       ??_C@_1M@EOGNKEK@?$AAf?$AAr?$AA?9?$AAC?$AAH@ 1005ac5c     libucrt:lcidtoname_downlevel.obj
 0002:00004c68       ??_C@_1M@FLIDJFHL@?$AAh?$AAr?$AA?9?$AAB?$AAA@ 1005ac68     libucrt:lcidtoname_downlevel.obj
 0002:00004c74       ??_C@_1O@FMCELNAJ@?$AAs?$AAm?$AAj?$AA?9?$AAN?$AAO@ 1005ac74     libucrt:lcidtoname_downlevel.obj
 0002:00004c84       ??_C@_1M@JHGLJMGJ@?$AAa?$AAr?$AA?9?$AAD?$AAZ@ 1005ac84     libucrt:lcidtoname_downlevel.obj
 0002:00004c90       ??_C@_1M@JKKFDCNP@?$AAz?$AAh?$AA?9?$AAM?$AAO@ 1005ac90     libucrt:lcidtoname_downlevel.obj
 0002:00004c9c       ??_C@_1M@GEEFALPE@?$AAd?$AAe?$AA?9?$AAL?$AAI@ 1005ac9c     libucrt:lcidtoname_downlevel.obj
 0002:00004ca8       ??_C@_1M@IGEOFBG@?$AAe?$AAn?$AA?9?$AAN?$AAZ@ 1005aca8     libucrt:lcidtoname_downlevel.obj
 0002:00004cb4       ??_C@_1M@KDBONEHP@?$AAe?$AAs?$AA?9?$AAC?$AAR@ 1005acb4     libucrt:lcidtoname_downlevel.obj
 0002:00004cc0       ??_C@_1M@FHMDOHNN@?$AAf?$AAr?$AA?9?$AAL?$AAU@ 1005acc0     libucrt:lcidtoname_downlevel.obj
 0002:00004ccc       ??_C@_1BG@NFKKMAFG@?$AAb?$AAs?$AA?9?$AAB?$AAA?$AA?9?$AAL?$AAa?$AAt?$AAn@ 1005accc     libucrt:lcidtoname_downlevel.obj
 0002:00004ce4       ??_C@_1O@IMNBEMCI@?$AAs?$AAm?$AAj?$AA?9?$AAS?$AAE@ 1005ace4     libucrt:lcidtoname_downlevel.obj
 0002:00004cf4       ??_C@_1M@DHHMBNDP@?$AAa?$AAr?$AA?9?$AAM?$AAA@ 1005acf4     libucrt:lcidtoname_downlevel.obj
 0002:00004d00       ??_C@_1M@BNBLJCGH@?$AAe?$AAn?$AA?9?$AAI?$AAE@ 1005ad00     libucrt:lcidtoname_downlevel.obj
 0002:00004d0c       ??_C@_1M@GEPAFMDL@?$AAe?$AAs?$AA?9?$AAP?$AAA@ 1005ad0c     libucrt:lcidtoname_downlevel.obj
 0002:00004d18       ??_C@_1M@OJONDMDL@?$AAf?$AAr?$AA?9?$AAM?$AAC@ 1005ad18     libucrt:lcidtoname_downlevel.obj
 0002:00004d24       ??_C@_1BG@OBCNFJB@?$AAs?$AAr?$AA?9?$AAB?$AAA?$AA?9?$AAL?$AAa?$AAt?$AAn@ 1005ad24     libucrt:lcidtoname_downlevel.obj
 0002:00004d3c       ??_C@_1O@KEMEEGPO@?$AAs?$AAm?$AAa?$AA?9?$AAN?$AAO@ 1005ad3c     libucrt:lcidtoname_downlevel.obj
 0002:00004d4c       ??_C@_1M@ELMGFODK@?$AAa?$AAr?$AA?9?$AAT?$AAN@ 1005ad4c     libucrt:lcidtoname_downlevel.obj
 0002:00004d58       ??_C@_1M@BHDLHFAF@?$AAe?$AAn?$AA?9?$AAZ?$AAA@ 1005ad58     libucrt:lcidtoname_downlevel.obj
 0002:00004d64       ??_C@_1M@BMGIGLIF@?$AAe?$AAs?$AA?9?$AAD?$AAO@ 1005ad64     libucrt:lcidtoname_downlevel.obj
 0002:00004d70       ??_C@_1BG@CMBHIPBE@?$AAs?$AAr?$AA?9?$AAB?$AAA?$AA?9?$AAC?$AAy?$AAr?$AAl@ 1005ad70     libucrt:lcidtoname_downlevel.obj
 0002:00004d88       ??_C@_1O@HEDBLHNP@?$AAs?$AAm?$AAa?$AA?9?$AAS?$AAE@ 1005ad88     libucrt:lcidtoname_downlevel.obj
 0002:00004d98       ??_C@_1M@DAGCADIM@?$AAa?$AAr?$AA?9?$AAO?$AAM@ 1005ad98     libucrt:lcidtoname_downlevel.obj
 0002:00004da4       ??_C@_1M@FODLMICG@?$AAe?$AAn?$AA?9?$AAJ?$AAM@ 1005ada4     libucrt:lcidtoname_downlevel.obj
 0002:00004db0       ??_C@_1M@DNMLCIHB@?$AAe?$AAs?$AA?9?$AAV?$AAE@ 1005adb0     libucrt:lcidtoname_downlevel.obj
 0002:00004dbc       ??_C@_1O@EOKHMKJK@?$AAs?$AAm?$AAs?$AA?9?$AAF?$AAI@ 1005adbc     libucrt:lcidtoname_downlevel.obj
 0002:00004dcc       ??_C@_1M@CAFJMKOF@?$AAa?$AAr?$AA?9?$AAY?$AAE@ 1005adcc     libucrt:lcidtoname_downlevel.obj
 0002:00004dd8       ??_C@_1M@CBFHIJLI@?$AAe?$AAn?$AA?9?$AAC?$AAB@ 1005add8     libucrt:lcidtoname_downlevel.obj
 0002:00004de4       ??_C@_1M@BGNFLDN@?$AAe?$AAs?$AA?9?$AAC?$AAO@ 1005ade4     libucrt:lcidtoname_downlevel.obj
 0002:00004df0       ??_C@_1O@JMPHMAMC@?$AAs?$AAm?$AAn?$AA?9?$AAF?$AAI@ 1005adf0     libucrt:lcidtoname_downlevel.obj
 0002:00004e00       ??_C@_1M@JLANABKE@?$AAa?$AAr?$AA?9?$AAS?$AAY@ 1005ae00     libucrt:lcidtoname_downlevel.obj
 0002:00004e0c       ??_C@_1M@HPKGCFGN@?$AAe?$AAn?$AA?9?$AAB?$AAZ@ 1005ae0c     libucrt:lcidtoname_downlevel.obj
 0002:00004e18       ??_C@_1M@OLJCMLGM@?$AAe?$AAs?$AA?9?$AAP?$AAE@ 1005ae18     libucrt:lcidtoname_downlevel.obj
 0002:00004e24       ??_C@_1M@MKKGFKLE@?$AAa?$AAr?$AA?9?$AAJ?$AAO@ 1005ae24     libucrt:lcidtoname_downlevel.obj
 0002:00004e30       ??_C@_1M@EKPGLDNI@?$AAe?$AAn?$AA?9?$AAT?$AAT@ 1005ae30     libucrt:lcidtoname_downlevel.obj
 0002:00004e3c       ??_C@_1M@OONGHFHE@?$AAe?$AAs?$AA?9?$AAA?$AAR@ 1005ae3c     libucrt:lcidtoname_downlevel.obj
 0002:00004e48       ??_C@_1M@OOJFGBHE@?$AAa?$AAr?$AA?9?$AAL?$AAB@ 1005ae48     libucrt:lcidtoname_downlevel.obj
 0002:00004e54       ??_C@_1M@GCEJHNEG@?$AAe?$AAn?$AA?9?$AAZ?$AAW@ 1005ae54     libucrt:lcidtoname_downlevel.obj
 0002:00004e60       ??_C@_1M@JNOCAHJI@?$AAe?$AAs?$AA?9?$AAE?$AAC@ 1005ae60     libucrt:lcidtoname_downlevel.obj
 0002:00004e6c       ??_C@_1M@JEFHPGGB@?$AAa?$AAr?$AA?9?$AAK?$AAW@ 1005ae6c     libucrt:lcidtoname_downlevel.obj
 0002:00004e78       ??_C@_1M@MLKIBJOJ@?$AAe?$AAn?$AA?9?$AAP?$AAH@ 1005ae78     libucrt:lcidtoname_downlevel.obj
 0002:00004e84       ??_C@_1M@BDNIPEND@?$AAe?$AAs?$AA?9?$AAC?$AAL@ 1005ae84     libucrt:lcidtoname_downlevel.obj
 0002:00004e90       ??_C@_1M@MPNMEKBD@?$AAa?$AAr?$AA?9?$AAA?$AAE@ 1005ae90     libucrt:lcidtoname_downlevel.obj
 0002:00004e9c       ??_C@_1M@KBJALCPI@?$AAe?$AAs?$AA?9?$AAU?$AAY@ 1005ae9c     libucrt:lcidtoname_downlevel.obj
 0002:00004ea8       ??_C@_1M@LLCCOAGA@?$AAa?$AAr?$AA?9?$AAB?$AAH@ 1005aea8     libucrt:lcidtoname_downlevel.obj
 0002:00004eb4       ??_C@_1M@PBFNCDEL@?$AAe?$AAs?$AA?9?$AAP?$AAY@ 1005aeb4     libucrt:lcidtoname_downlevel.obj
 0002:00004ec0       ??_C@_1M@EDGINPNP@?$AAa?$AAr?$AA?9?$AAQ?$AAA@ 1005aec0     libucrt:lcidtoname_downlevel.obj
 0002:00004ecc       ??_C@_1M@MKDBIIJI@?$AAe?$AAs?$AA?9?$AAB?$AAO@ 1005aecc     libucrt:lcidtoname_downlevel.obj
 0002:00004ed8       ??_C@_1M@CPKKEBLD@?$AAe?$AAs?$AA?9?$AAS?$AAV@ 1005aed8     libucrt:lcidtoname_downlevel.obj
 0002:00004ee4       ??_C@_1M@NDBGMMJL@?$AAe?$AAs?$AA?9?$AAH?$AAN@ 1005aee4     libucrt:lcidtoname_downlevel.obj
 0002:00004ef0       ??_C@_1M@JIJIBHDP@?$AAe?$AAs?$AA?9?$AAN?$AAI@ 1005aef0     libucrt:lcidtoname_downlevel.obj
 0002:00004efc       ??_C@_1M@CGFMKEEK@?$AAe?$AAs?$AA?9?$AAP?$AAR@ 1005aefc     libucrt:lcidtoname_downlevel.obj
 0002:00004f08       ??_C@_1O@ICJHKIIK@?$AAz?$AAh?$AA?9?$AAC?$AAH?$AAT@ 1005af08     libucrt:lcidtoname_downlevel.obj
 0002:00004f18       ??_C@_15CLNEJCE@?$AAs?$AAr@ 1005af18     libucrt:lcidtoname_downlevel.obj
 0002:00005640       ??_C@_1M@KAHEKEIG@?$AAa?$AAf?$AA?9?$AAz?$AAa@ 1005b640     libucrt:lcidtoname_downlevel.obj
 0002:0000564c       ??_C@_1M@GIECOABL@?$AAa?$AAr?$AA?9?$AAa?$AAe@ 1005b64c     libucrt:lcidtoname_downlevel.obj
 0002:00005658       ??_C@_1M@BMLMEKGI@?$AAa?$AAr?$AA?9?$AAb?$AAh@ 1005b658     libucrt:lcidtoname_downlevel.obj
 0002:00005664       ??_C@_1M@DAPFDGGB@?$AAa?$AAr?$AA?9?$AAd?$AAz@ 1005b664     libucrt:lcidtoname_downlevel.obj
 0002:00005670       ??_C@_1M@FJNKGKIG@?$AAa?$AAr?$AA?9?$AAe?$AAg@ 1005b670     libucrt:lcidtoname_downlevel.obj
 0002:0000567c       ??_C@_1M@FLGKKCLO@?$AAa?$AAr?$AA?9?$AAi?$AAq@ 1005b67c     libucrt:lcidtoname_downlevel.obj
 0002:00005688       ??_C@_1M@GNDIPALM@?$AAa?$AAr?$AA?9?$AAj?$AAo@ 1005b688     libucrt:lcidtoname_downlevel.obj
 0002:00005694       ??_C@_1M@DDMJFMGJ@?$AAa?$AAr?$AA?9?$AAk?$AAw@ 1005b694     libucrt:lcidtoname_downlevel.obj
 0002:000056a0       ??_C@_1M@EJALMLHM@?$AAa?$AAr?$AA?9?$AAl?$AAb@ 1005b6a0     libucrt:lcidtoname_downlevel.obj
 0002:000056ac       ??_C@_1M@MOBDBLOC@?$AAa?$AAr?$AA?9?$AAl?$AAy@ 1005b6ac     libucrt:lcidtoname_downlevel.obj
 0002:000056b8       ??_C@_1M@JAOCLHDH@?$AAa?$AAr?$AA?9?$AAm?$AAa@ 1005b6b8     libucrt:lcidtoname_downlevel.obj
 0002:000056c4       ??_C@_1M@JHPMKJIE@?$AAa?$AAr?$AA?9?$AAo?$AAm@ 1005b6c4     libucrt:lcidtoname_downlevel.obj
 0002:000056d0       ??_C@_1M@OEPGHFNH@?$AAa?$AAr?$AA?9?$AAq?$AAa@ 1005b6d0     libucrt:lcidtoname_downlevel.obj
 0002:000056dc       ??_C@_1M@KJDONENM@?$AAa?$AAr?$AA?9?$AAs?$AAa@ 1005b6dc     libucrt:lcidtoname_downlevel.obj
 0002:000056e8       ??_C@_1M@DMJDKLKM@?$AAa?$AAr?$AA?9?$AAs?$AAy@ 1005b6e8     libucrt:lcidtoname_downlevel.obj
 0002:000056f4       ??_C@_1M@OMFIPEDC@?$AAa?$AAr?$AA?9?$AAt?$AAn@ 1005b6f4     libucrt:lcidtoname_downlevel.obj
 0002:00005700       ??_C@_1M@IHMHGAON@?$AAa?$AAr?$AA?9?$AAy?$AAe@ 1005b700     libucrt:lcidtoname_downlevel.obj
 0002:0000570c       ??_C@_1BG@KDCPGJGB@?$AAa?$AAz?$AA?9?$AAa?$AAz?$AA?9?$AAc?$AAy?$AAr?$AAl@ 1005b70c     libucrt:lcidtoname_downlevel.obj
 0002:00005724       ??_C@_1BG@IBCKDDOE@?$AAa?$AAz?$AA?9?$AAa?$AAz?$AA?9?$AAl?$AAa?$AAt?$AAn@ 1005b724     libucrt:lcidtoname_downlevel.obj
 0002:0000573c       ??_C@_1M@EGPFDCPD@?$AAb?$AAe?$AA?9?$AAb?$AAy@ 1005b73c     libucrt:lcidtoname_downlevel.obj
 0002:00005748       ??_C@_1M@PCMGMCGC@?$AAb?$AAg?$AA?9?$AAb?$AAg@ 1005b748     libucrt:lcidtoname_downlevel.obj
 0002:00005754       ??_C@_1M@BJBMFGOB@?$AAb?$AAn?$AA?9?$AAi?$AAn@ 1005b754     libucrt:lcidtoname_downlevel.obj
 0002:00005760       ??_C@_1BG@EAKMMACD@?$AAb?$AAs?$AA?9?$AAb?$AAa?$AA?9?$AAl?$AAa?$AAt?$AAn@ 1005b760     libucrt:lcidtoname_downlevel.obj
 0002:00005778       ??_C@_1M@KGADAODK@?$AAc?$AAa?$AA?9?$AAe?$AAs@ 1005b778     libucrt:lcidtoname_downlevel.obj
 0002:00005784       ??_C@_1M@COAJPDHI@?$AAc?$AAs?$AA?9?$AAc?$AAz@ 1005b784     libucrt:lcidtoname_downlevel.obj
 0002:00005790       ??_C@_1M@DHBHFONH@?$AAc?$AAy?$AA?9?$AAg?$AAb@ 1005b790     libucrt:lcidtoname_downlevel.obj
 0002:0000579c       ??_C@_1M@IMGKELGA@?$AAd?$AAa?$AA?9?$AAd?$AAk@ 1005b79c     libucrt:lcidtoname_downlevel.obj
 0002:000057a8       ??_C@_1M@NNDGDNGA@?$AAd?$AAe?$AA?9?$AAa?$AAt@ 1005b7a8     libucrt:lcidtoname_downlevel.obj
 0002:000057b4       ??_C@_1M@IKDBHEEM@?$AAd?$AAe?$AA?9?$AAc?$AAh@ 1005b7b4     libucrt:lcidtoname_downlevel.obj
 0002:000057c0       ??_C@_1M@GFFOJMCJ@?$AAd?$AAe?$AA?9?$AAd?$AAe@ 1005b7c0     libucrt:lcidtoname_downlevel.obj
 0002:000057cc       ??_C@_1M@MDNLKBPM@?$AAd?$AAe?$AA?9?$AAl?$AAi@ 1005b7cc     libucrt:lcidtoname_downlevel.obj
 0002:000057d8       ??_C@_1M@NJBEEJNL@?$AAd?$AAe?$AA?9?$AAl?$AAu@ 1005b7d8     libucrt:lcidtoname_downlevel.obj
 0002:000057e4       ??_C@_1O@GNNELBAP@?$AAd?$AAi?$AAv?$AA?9?$AAm?$AAv@ 1005b7e4     libucrt:lcidtoname_downlevel.obj
 0002:000057f4       ??_C@_1M@EJLEOGAE@?$AAe?$AAl?$AA?9?$AAg?$AAr@ 1005b7f4     libucrt:lcidtoname_downlevel.obj
 0002:00005800       ??_C@_1M@GMPONJN@?$AAe?$AAn?$AA?9?$AAa?$AAu@ 1005b800     libucrt:lcidtoname_downlevel.obj
 0002:0000580c       ??_C@_1M@NIDIIPGF@?$AAe?$AAn?$AA?9?$AAb?$AAz@ 1005b80c     libucrt:lcidtoname_downlevel.obj
 0002:00005818       ??_C@_1M@JEHMIMFO@?$AAe?$AAn?$AA?9?$AAc?$AAa@ 1005b818     libucrt:lcidtoname_downlevel.obj
 0002:00005824       ??_C@_1M@IGMJCDLA@?$AAe?$AAn?$AA?9?$AAc?$AAb@ 1005b824     libucrt:lcidtoname_downlevel.obj
 0002:00005830       ??_C@_1M@BNFIGBKG@?$AAe?$AAn?$AA?9?$AAg?$AAb@ 1005b830     libucrt:lcidtoname_downlevel.obj
 0002:0000583c       ??_C@_1M@LKIFDIGP@?$AAe?$AAn?$AA?9?$AAi?$AAe@ 1005b83c     libucrt:lcidtoname_downlevel.obj
 0002:00005848       ??_C@_1M@PJKFGCCO@?$AAe?$AAn?$AA?9?$AAj?$AAm@ 1005b848     libucrt:lcidtoname_downlevel.obj
 0002:00005854       ??_C@_1M@KPPKEPBO@?$AAe?$AAn?$AA?9?$AAn?$AAz@ 1005b854     libucrt:lcidtoname_downlevel.obj
 0002:00005860       ??_C@_1M@GMDGLDOB@?$AAe?$AAn?$AA?9?$AAp?$AAh@ 1005b860     libucrt:lcidtoname_downlevel.obj
 0002:0000586c       ??_C@_1M@ONGIBJNA@?$AAe?$AAn?$AA?9?$AAt?$AAt@ 1005b86c     libucrt:lcidtoname_downlevel.obj
 0002:00005878       ??_C@_1M@LLODPCMM@?$AAe?$AAn?$AA?9?$AAu?$AAs@ 1005b878     libucrt:lcidtoname_downlevel.obj
 0002:00005884       ??_C@_1M@LAKFNPAN@?$AAe?$AAn?$AA?9?$AAz?$AAa@ 1005b884     libucrt:lcidtoname_downlevel.obj
 0002:00005890       ??_C@_1M@MFNHNHEO@?$AAe?$AAn?$AA?9?$AAz?$AAw@ 1005b890     libucrt:lcidtoname_downlevel.obj
 0002:0000589c       ??_C@_1M@EJEINPHM@?$AAe?$AAs?$AA?9?$AAa?$AAr@ 1005b89c     libucrt:lcidtoname_downlevel.obj
 0002:000058a8       ??_C@_1M@GNKPCCJA@?$AAe?$AAs?$AA?9?$AAb?$AAo@ 1005b8a8     libucrt:lcidtoname_downlevel.obj
 0002:000058b4       ??_C@_1M@LEEGFONL@?$AAe?$AAs?$AA?9?$AAc?$AAl@ 1005b8b4     libucrt:lcidtoname_downlevel.obj
 0002:000058c0       ??_C@_1M@KGPDPBDF@?$AAe?$AAs?$AA?9?$AAc?$AAo@ 1005b8c0     libucrt:lcidtoname_downlevel.obj
 0002:000058cc       ??_C@_1M@EIAHOHH@?$AAe?$AAs?$AA?9?$AAc?$AAr@ 1005b8cc     libucrt:lcidtoname_downlevel.obj
 0002:000058d8       ??_C@_1M@LLPGMBIN@?$AAe?$AAs?$AA?9?$AAd?$AAo@ 1005b8d8     libucrt:lcidtoname_downlevel.obj
 0002:000058e4       ??_C@_1M@DKHMKNJA@?$AAe?$AAs?$AA?9?$AAe?$AAc@ 1005b8e4     libucrt:lcidtoname_downlevel.obj
 0002:000058f0       ??_C@_1M@GKGFPKAP@?$AAe?$AAs?$AA?9?$AAe?$AAs@ 1005b8f0     libucrt:lcidtoname_downlevel.obj
 0002:000058fc       ??_C@_1M@LKHKGDLN@?$AAe?$AAs?$AA?9?$AAg?$AAt@ 1005b8fc     libucrt:lcidtoname_downlevel.obj
 0002:00005908       ??_C@_1M@HEIIGGJD@?$AAe?$AAs?$AA?9?$AAh?$AAn@ 1005b908     libucrt:lcidtoname_downlevel.obj
 0002:00005914       ??_C@_1M@FBDHPPGD@?$AAe?$AAs?$AA?9?$AAm?$AAx@ 1005b914     libucrt:lcidtoname_downlevel.obj
 0002:00005920       ??_C@_1M@DPAGLNDH@?$AAe?$AAs?$AA?9?$AAn?$AAi@ 1005b920     libucrt:lcidtoname_downlevel.obj
 0002:0000592c       ??_C@_1M@MDGOPGDD@?$AAe?$AAs?$AA?9?$AAp?$AAa@ 1005b92c     libucrt:lcidtoname_downlevel.obj
 0002:00005938       ??_C@_1M@EMAMGBGE@?$AAe?$AAs?$AA?9?$AAp?$AAe@ 1005b938     libucrt:lcidtoname_downlevel.obj
 0002:00005944       ??_C@_1M@IBMCAOEC@?$AAe?$AAs?$AA?9?$AAp?$AAr@ 1005b944     libucrt:lcidtoname_downlevel.obj
 0002:00005950       ??_C@_1M@FGMDIJED@?$AAe?$AAs?$AA?9?$AAp?$AAy@ 1005b950     libucrt:lcidtoname_downlevel.obj
 0002:0000595c       ??_C@_1M@IIDEOLLL@?$AAe?$AAs?$AA?9?$AAs?$AAv@ 1005b95c     libucrt:lcidtoname_downlevel.obj
 0002:00005968       ??_C@_1M@GAOBIPA@?$AAe?$AAs?$AA?9?$AAu?$AAy@ 1005b968     libucrt:lcidtoname_downlevel.obj
 0002:00005974       ??_C@_1M@JKFFICHJ@?$AAe?$AAs?$AA?9?$AAv?$AAe@ 1005b974     libucrt:lcidtoname_downlevel.obj
 0002:00005980       ??_C@_1M@PNMLOJDF@?$AAe?$AAt?$AA?9?$AAe?$AAe@ 1005b980     libucrt:lcidtoname_downlevel.obj
 0002:0000598c       ??_C@_1M@GHHLIKEI@?$AAe?$AAu?$AA?9?$AAe?$AAs@ 1005b98c     libucrt:lcidtoname_downlevel.obj
 0002:00005998       ??_C@_1M@PBNONODE@?$AAf?$AAa?$AA?9?$AAi?$AAr@ 1005b998     libucrt:lcidtoname_downlevel.obj
 0002:000059a4       ??_C@_1M@JEEHPMIL@?$AAf?$AAi?$AA?9?$AAf?$AAi@ 1005b9a4     libucrt:lcidtoname_downlevel.obj
 0002:000059b0       ??_C@_1M@LMDCNDBA@?$AAf?$AAo?$AA?9?$AAf?$AAo@ 1005b9b0     libucrt:lcidtoname_downlevel.obj
 0002:000059bc       ??_C@_1M@JKEOHLDK@?$AAf?$AAr?$AA?9?$AAb?$AAe@ 1005b9bc     libucrt:lcidtoname_downlevel.obj
 0002:000059c8       ??_C@_1M@NOHADPMI@?$AAf?$AAr?$AA?9?$AAc?$AAa@ 1005b9c8     libucrt:lcidtoname_downlevel.obj
 0002:000059d4       ??_C@_1M@KDHIHAEC@?$AAf?$AAr?$AA?9?$AAc?$AAh@ 1005b9d4     libucrt:lcidtoname_downlevel.obj
 0002:000059e0       ??_C@_1M@MMBBFGAK@?$AAf?$AAr?$AA?9?$AAf?$AAr@ 1005b9e0     libucrt:lcidtoname_downlevel.obj
 0002:000059ec       ??_C@_1M@PAFNENNF@?$AAf?$AAr?$AA?9?$AAl?$AAu@ 1005b9ec     libucrt:lcidtoname_downlevel.obj
 0002:000059f8       ??_C@_1M@EOHDJGDD@?$AAf?$AAr?$AA?9?$AAm?$AAc@ 1005b9f8     libucrt:lcidtoname_downlevel.obj
 0002:00005a04       ??_C@_1M@FAPLLOPF@?$AAg?$AAl?$AA?9?$AAe?$AAs@ 1005ba04     libucrt:lcidtoname_downlevel.obj
 0002:00005a10       ??_C@_1M@FOPBFLOO@?$AAg?$AAu?$AA?9?$AAi?$AAn@ 1005ba10     libucrt:lcidtoname_downlevel.obj
 0002:00005a1c       ??_C@_1M@KBMCINPM@?$AAh?$AAe?$AA?9?$AAi?$AAl@ 1005ba1c     libucrt:lcidtoname_downlevel.obj
 0002:00005a28       ??_C@_1M@BBPHKFPJ@?$AAh?$AAi?$AA?9?$AAi?$AAn@ 1005ba28     libucrt:lcidtoname_downlevel.obj
 0002:00005a34       ??_C@_1M@PMBNDPHD@?$AAh?$AAr?$AA?9?$AAb?$AAa@ 1005ba34     libucrt:lcidtoname_downlevel.obj
 0002:00005a40       ??_C@_1M@BPCKOEGE@?$AAh?$AAr?$AA?9?$AAh?$AAr@ 1005ba40     libucrt:lcidtoname_downlevel.obj
 0002:00005a4c       ??_C@_1M@GACBMHKE@?$AAh?$AAu?$AA?9?$AAh?$AAu@ 1005ba4c     libucrt:lcidtoname_downlevel.obj
 0002:00005a58       ??_C@_1M@MILPAJJC@?$AAh?$AAy?$AA?9?$AAa?$AAm@ 1005ba58     libucrt:lcidtoname_downlevel.obj
 0002:00005a64       ??_C@_1M@BABBICEC@?$AAi?$AAd?$AA?9?$AAi?$AAd@ 1005ba64     libucrt:lcidtoname_downlevel.obj
 0002:00005a70       ??_C@_1M@BIKNHHPF@?$AAi?$AAs?$AA?9?$AAi?$AAs@ 1005ba70     libucrt:lcidtoname_downlevel.obj
 0002:00005a7c       ??_C@_1M@NMPCJPHE@?$AAi?$AAt?$AA?9?$AAc?$AAh@ 1005ba7c     libucrt:lcidtoname_downlevel.obj
 0002:00005a88       ??_C@_1M@GHKGFEDF@?$AAi?$AAt?$AA?9?$AAi?$AAt@ 1005ba88     libucrt:lcidtoname_downlevel.obj
 0002:00005a94       ??_C@_1M@NIEJCJJA@?$AAj?$AAa?$AA?9?$AAj?$AAp@ 1005ba94     libucrt:lcidtoname_downlevel.obj
 0002:00005aa0       ??_C@_1M@JILFNBIM@?$AAk?$AAa?$AA?9?$AAg?$AAe@ 1005baa0     libucrt:lcidtoname_downlevel.obj
 0002:00005aac       ??_C@_1M@PACPMGPH@?$AAk?$AAk?$AA?9?$AAk?$AAz@ 1005baac     libucrt:lcidtoname_downlevel.obj
 0002:00005ab8       ??_C@_1M@IELFGMHA@?$AAk?$AAn?$AA?9?$AAi?$AAn@ 1005bab8     libucrt:lcidtoname_downlevel.obj
 0002:00005ac4       ??_C@_1O@IBBJHCH@?$AAk?$AAo?$AAk?$AA?9?$AAi?$AAn@ 1005bac4     libucrt:lcidtoname_downlevel.obj
 0002:00005ad4       ??_C@_1M@DMHAEOGC@?$AAk?$AAo?$AA?9?$AAk?$AAr@ 1005bad4     libucrt:lcidtoname_downlevel.obj
 0002:00005ae0       ??_C@_1M@HBAHBIGA@?$AAk?$AAy?$AA?9?$AAk?$AAg@ 1005bae0     libucrt:lcidtoname_downlevel.obj
 0002:00005aec       ??_C@_1M@KPMILCJG@?$AAl?$AAt?$AA?9?$AAl?$AAt@ 1005baec     libucrt:lcidtoname_downlevel.obj
 0002:00005af8       ??_C@_1M@BDEKKCA@?$AAl?$AAv?$AA?9?$AAl?$AAv@ 1005baf8     libucrt:lcidtoname_downlevel.obj
 0002:00005b04       ??_C@_1M@ELCKCCJJ@?$AAm?$AAi?$AA?9?$AAn?$AAz@ 1005bb04     libucrt:lcidtoname_downlevel.obj
 0002:00005b10       ??_C@_1M@CBOOLAPA@?$AAm?$AAk?$AA?9?$AAm?$AAk@ 1005bb10     libucrt:lcidtoname_downlevel.obj
 0002:00005b1c       ??_C@_1M@GPHNBJKN@?$AAm?$AAl?$AA?9?$AAi?$AAn@ 1005bb1c     libucrt:lcidtoname_downlevel.obj
 0002:00005b28       ??_C@_1M@PABJILIG@?$AAm?$AAn?$AA?9?$AAm?$AAn@ 1005bb28     libucrt:lcidtoname_downlevel.obj
 0002:00005b34       ??_C@_1M@FGBKKIPG@?$AAm?$AAr?$AA?9?$AAi?$AAn@ 1005bb34     libucrt:lcidtoname_downlevel.obj
 0002:00005b40       ??_C@_1M@NDBPDDAL@?$AAm?$AAs?$AA?9?$AAb?$AAn@ 1005bb40     libucrt:lcidtoname_downlevel.obj
 0002:00005b4c       ??_C@_1M@OPIHOOPI@?$AAm?$AAs?$AA?9?$AAm?$AAy@ 1005bb4c     libucrt:lcidtoname_downlevel.obj
 0002:00005b58       ??_C@_1M@PPDBCNFM@?$AAm?$AAt?$AA?9?$AAm?$AAt@ 1005bb58     libucrt:lcidtoname_downlevel.obj
 0002:00005b64       ??_C@_1M@KDJDKMDD@?$AAn?$AAb?$AA?9?$AAn?$AAo@ 1005bb64     libucrt:lcidtoname_downlevel.obj
 0002:00005b70       ??_C@_1M@KFCFLMJP@?$AAn?$AAl?$AA?9?$AAb?$AAe@ 1005bb70     libucrt:lcidtoname_downlevel.obj
 0002:00005b7c       ??_C@_1M@KPOPDDGO@?$AAn?$AAl?$AA?9?$AAn?$AAl@ 1005bb7c     libucrt:lcidtoname_downlevel.obj
 0002:00005b88       ??_C@_1M@LJKPEMLN@?$AAn?$AAn?$AA?9?$AAn?$AAo@ 1005bb88     libucrt:lcidtoname_downlevel.obj
 0002:00005b94       ??_C@_1M@BDGHHBFL@?$AAn?$AAs?$AA?9?$AAz?$AAa@ 1005bb94     libucrt:lcidtoname_downlevel.obj
 0002:00005ba0       ??_C@_1M@IDEHOAP@?$AAp?$AAa?$AA?9?$AAi?$AAn@ 1005bba0     libucrt:lcidtoname_downlevel.obj
 0002:00005bac       ??_C@_1M@HDBKGOGH@?$AAp?$AAl?$AA?9?$AAp?$AAl@ 1005bbac     libucrt:lcidtoname_downlevel.obj
 0002:00005bb8       ??_C@_1M@LJLLCMEH@?$AAp?$AAt?$AA?9?$AAb?$AAr@ 1005bbb8     libucrt:lcidtoname_downlevel.obj
 0002:00005bc4       ??_C@_1M@NCMONAAL@?$AAp?$AAt?$AA?9?$AAp?$AAt@ 1005bbc4     libucrt:lcidtoname_downlevel.obj
 0002:00005bd0       ??_C@_1O@EAKMAJDN@?$AAq?$AAu?$AAz?$AA?9?$AAb?$AAo@ 1005bbd0     libucrt:lcidtoname_downlevel.obj
 0002:00005be0       ??_C@_1O@BHHPIGDN@?$AAq?$AAu?$AAz?$AA?9?$AAe?$AAc@ 1005bbe0     libucrt:lcidtoname_downlevel.obj
 0002:00005bf0       ??_C@_1O@GBAPEKMJ@?$AAq?$AAu?$AAz?$AA?9?$AAp?$AAe@ 1005bbf0     libucrt:lcidtoname_downlevel.obj
 0002:00005c00       ??_C@_1M@CLGLEFBO@?$AAr?$AAo?$AA?9?$AAr?$AAo@ 1005bc00     libucrt:lcidtoname_downlevel.obj
 0002:00005c0c       ??_C@_1M@CEEDODME@?$AAr?$AAu?$AA?9?$AAr?$AAu@ 1005bc0c     libucrt:lcidtoname_downlevel.obj
 0002:00005c18       ??_C@_1M@HPKKKMPP@?$AAs?$AAa?$AA?9?$AAi?$AAn@ 1005bc18     libucrt:lcidtoname_downlevel.obj
 0002:00005c24       ??_C@_1M@BKMAIGOJ@?$AAs?$AAe?$AA?9?$AAf?$AAi@ 1005bc24     libucrt:lcidtoname_downlevel.obj
 0002:00005c30       ??_C@_1M@NDPIFLFI@?$AAs?$AAe?$AA?9?$AAn?$AAo@ 1005bc30     libucrt:lcidtoname_downlevel.obj
 0002:00005c3c       ??_C@_1M@DANKKHJ@?$AAs?$AAe?$AA?9?$AAs?$AAe@ 1005bc3c     libucrt:lcidtoname_downlevel.obj
 0002:00005c48       ??_C@_1M@PNBLONPJ@?$AAs?$AAk?$AA?9?$AAs?$AAk@ 1005bc48     libucrt:lcidtoname_downlevel.obj
 0002:00005c54       ??_C@_1M@LFMODOAL@?$AAs?$AAl?$AA?9?$AAs?$AAi@ 1005bc54     libucrt:lcidtoname_downlevel.obj
 0002:00005c60       ??_C@_1O@DFKOMPG@?$AAs?$AAm?$AAa?$AA?9?$AAn?$AAo@ 1005bc60     libucrt:lcidtoname_downlevel.obj
 0002:00005c70       ??_C@_1O@NDKPBNNH@?$AAs?$AAm?$AAa?$AA?9?$AAs?$AAe@ 1005bc70     libucrt:lcidtoname_downlevel.obj
 0002:00005c80       ??_C@_1O@PLLKBHAB@?$AAs?$AAm?$AAj?$AA?9?$AAn?$AAo@ 1005bc80     libucrt:lcidtoname_downlevel.obj
 0002:00005c90       ??_C@_1O@CLEPOGCA@?$AAs?$AAm?$AAj?$AA?9?$AAs?$AAe@ 1005bc90     libucrt:lcidtoname_downlevel.obj
 0002:00005ca0       ??_C@_1O@DLGJGKMK@?$AAs?$AAm?$AAn?$AA?9?$AAf?$AAi@ 1005bca0     libucrt:lcidtoname_downlevel.obj
 0002:00005cb0       ??_C@_1O@OJDJGAJC@?$AAs?$AAm?$AAs?$AA?9?$AAf?$AAi@ 1005bcb0     libucrt:lcidtoname_downlevel.obj
 0002:00005cc0       ??_C@_1M@BOFOGHPB@?$AAs?$AAq?$AA?9?$AAa?$AAl@ 1005bcc0     libucrt:lcidtoname_downlevel.obj
 0002:00005ccc       ??_C@_1BG@LJBBIPGB@?$AAs?$AAr?$AA?9?$AAb?$AAa?$AA?9?$AAc?$AAy?$AAr?$AAl@ 1005bccc     libucrt:lcidtoname_downlevel.obj
 0002:00005ce4       ??_C@_1BG@JLBENFOE@?$AAs?$AAr?$AA?9?$AAb?$AAa?$AA?9?$AAl?$AAa?$AAt?$AAn@ 1005bce4     libucrt:lcidtoname_downlevel.obj
 0002:00005cfc       ??_C@_1BG@KODPNHE@?$AAs?$AAr?$AA?9?$AAs?$AAp?$AA?9?$AAc?$AAy?$AAr?$AAl@ 1005bcfc     libucrt:lcidtoname_downlevel.obj
 0002:00005d14       ??_C@_1BG@CIOGKHPB@?$AAs?$AAr?$AA?9?$AAs?$AAp?$AA?9?$AAl?$AAa?$AAt?$AAn@ 1005bd14     libucrt:lcidtoname_downlevel.obj
 0002:00005d2c       ??_C@_1M@NGFJLMAC@?$AAs?$AAv?$AA?9?$AAf?$AAi@ 1005bd2c     libucrt:lcidtoname_downlevel.obj
 0002:00005d38       ??_C@_1M@MPJEJAJC@?$AAs?$AAv?$AA?9?$AAs?$AAe@ 1005bd38     libucrt:lcidtoname_downlevel.obj
 0002:00005d44       ??_C@_1M@MPNDHLFK@?$AAs?$AAw?$AA?9?$AAk?$AAe@ 1005bd44     libucrt:lcidtoname_downlevel.obj
 0002:00005d50       ??_C@_1O@KOHBJJI@?$AAs?$AAy?$AAr?$AA?9?$AAs?$AAy@ 1005bd50     libucrt:lcidtoname_downlevel.obj
 0002:00005d60       ??_C@_1M@LDCEFHA@?$AAt?$AAa?$AA?9?$AAi?$AAn@ 1005bd60     libucrt:lcidtoname_downlevel.obj
 0002:00005d6c       ??_C@_1M@CNJOFAK@?$AAt?$AAe?$AA?9?$AAi?$AAn@ 1005bd6c     libucrt:lcidtoname_downlevel.obj
 0002:00005d78       ??_C@_1M@GNAECACD@?$AAt?$AAh?$AA?9?$AAt?$AAh@ 1005bd78     libucrt:lcidtoname_downlevel.obj
 0002:00005d84       ??_C@_1M@CHBIHOJO@?$AAt?$AAn?$AA?9?$AAz?$AAa@ 1005bd84     libucrt:lcidtoname_downlevel.obj
 0002:00005d90       ??_C@_1M@GCCMIGPJ@?$AAt?$AAr?$AA?9?$AAt?$AAr@ 1005bd90     libucrt:lcidtoname_downlevel.obj
 0002:00005d9c       ??_C@_1M@CELMCNBK@?$AAt?$AAt?$AA?9?$AAr?$AAu@ 1005bd9c     libucrt:lcidtoname_downlevel.obj
 0002:00005da8       ??_C@_1M@KLMCELGA@?$AAu?$AAk?$AA?9?$AAu?$AAa@ 1005bda8     libucrt:lcidtoname_downlevel.obj
 0002:00005db4       ??_C@_1M@EPAJJAJF@?$AAu?$AAr?$AA?9?$AAp?$AAk@ 1005bdb4     libucrt:lcidtoname_downlevel.obj
 0002:00005dc0       ??_C@_1BG@GEGPMCDJ@?$AAu?$AAz?$AA?9?$AAu?$AAz?$AA?9?$AAc?$AAy?$AAr?$AAl@ 1005bdc0     libucrt:lcidtoname_downlevel.obj
 0002:00005dd8       ??_C@_1BG@EGGKJILM@?$AAu?$AAz?$AA?9?$AAu?$AAz?$AA?9?$AAl?$AAa?$AAt?$AAn@ 1005bdd8     libucrt:lcidtoname_downlevel.obj
 0002:00005df0       ??_C@_1M@GFOCLFF@?$AAv?$AAi?$AA?9?$AAv?$AAn@ 1005bdf0     libucrt:lcidtoname_downlevel.obj
 0002:00005dfc       ??_C@_1M@CPAMEDFI@?$AAx?$AAh?$AA?9?$AAz?$AAa@ 1005bdfc     libucrt:lcidtoname_downlevel.obj
 0002:00005e08       ??_C@_1O@EBKIFIGN@?$AAz?$AAh?$AA?9?$AAc?$AAh?$AAs@ 1005be08     libucrt:lcidtoname_downlevel.obj
 0002:00005e18       ??_C@_1O@NMHPGANE@?$AAz?$AAh?$AA?9?$AAc?$AAh?$AAt@ 1005be18     libucrt:lcidtoname_downlevel.obj
 0002:00005e28       ??_C@_1M@LPINJOMC@?$AAz?$AAh?$AA?9?$AAc?$AAn@ 1005be28     libucrt:lcidtoname_downlevel.obj
 0002:00005e34       ??_C@_1M@OCJEJODD@?$AAz?$AAh?$AA?9?$AAh?$AAk@ 1005be34     libucrt:lcidtoname_downlevel.obj
 0002:00005e40       ??_C@_1M@DNDLJINH@?$AAz?$AAh?$AA?9?$AAm?$AAo@ 1005be40     libucrt:lcidtoname_downlevel.obj
 0002:00005e4c       ??_C@_1M@MBFDNDND@?$AAz?$AAh?$AA?9?$AAs?$AAg@ 1005be4c     libucrt:lcidtoname_downlevel.obj
 0002:00005e58       ??_C@_1M@IMEPLEPE@?$AAz?$AAh?$AA?9?$AAt?$AAw@ 1005be58     libucrt:lcidtoname_downlevel.obj
 0002:00005e64       ??_C@_1M@BBGHNHJP@?$AAz?$AAu?$AA?9?$AAz?$AAa@ 1005be64     libucrt:lcidtoname_downlevel.obj
 0002:00005e70       ___acrt_rg_language        1005be70     libucrt:get_qualified_locale.obj
 0002:0000617c       ___acrt_rg_language_count  1005c17c     libucrt:get_qualified_locale.obj
 0002:00006180       ___acrt_rg_country         1005c180     libucrt:get_qualified_locale.obj
 0002:00006294       ___acrt_rg_country_count   1005c294     libucrt:get_qualified_locale.obj
 0002:00006298       ??_C@_1BC@LLOKLNP@?$AAa?$AAm?$AAe?$AAr?$AAi?$AAc?$AAa?$AAn@ 1005c298     libucrt:get_qualified_locale.obj
 0002:000062ac       ??_C@_1CC@HEIGCDGG@?$AAa?$AAm?$AAe?$AAr?$AAi?$AAc?$AAa?$AAn?$AA?5?$AAe?$AAn?$AAg?$AAl?$AAi?$AAs@ 1005c2ac     libucrt:get_qualified_locale.obj
 0002:000062d0       ??_C@_1CC@IHCNOMIN@?$AAa?$AAm?$AAe?$AAr?$AAi?$AAc?$AAa?$AAn?$AA?9?$AAe?$AAn?$AAg?$AAl?$AAi?$AAs@ 1005c2d0     libucrt:get_qualified_locale.obj
 0002:000062f4       ??_C@_1BG@GKAGPCGG@?$AAa?$AAu?$AAs?$AAt?$AAr?$AAa?$AAl?$AAi?$AAa?$AAn@ 1005c2f4     libucrt:get_qualified_locale.obj
 0002:0000630c       ??_C@_1BA@GMENCENF@?$AAb?$AAe?$AAl?$AAg?$AAi?$AAa?$AAn@ 1005c30c     libucrt:get_qualified_locale.obj
 0002:0000631c       ??_C@_1BC@PJMIIAAN@?$AAc?$AAa?$AAn?$AAa?$AAd?$AAi?$AAa?$AAn@ 1005c31c     libucrt:get_qualified_locale.obj
 0002:00006330       ??_C@_17NOIMNFBF@?$AAc?$AAh?$AAh@ 1005c330     libucrt:get_qualified_locale.obj
 0002:00006338       ??_C@_17GGDALCHA@?$AAc?$AAh?$AAi@ 1005c338     libucrt:get_qualified_locale.obj
 0002:00006340       ??_C@_1BA@NPNJKIBL@?$AAc?$AAh?$AAi?$AAn?$AAe?$AAs?$AAe@ 1005c340     libucrt:get_qualified_locale.obj
 0002:00006350       ??_C@_1CC@DINBAMMJ@?$AAc?$AAh?$AAi?$AAn?$AAe?$AAs?$AAe?$AA?9?$AAh?$AAo?$AAn?$AAg?$AAk?$AAo?$AAn@ 1005c350     libucrt:get_qualified_locale.obj
 0002:00006374       ??_C@_1CG@IOBJPACO@?$AAc?$AAh?$AAi?$AAn?$AAe?$AAs?$AAe?$AA?9?$AAs?$AAi?$AAm?$AAp?$AAl?$AAi?$AAf@ 1005c374     libucrt:get_qualified_locale.obj
 0002:0000639c       ??_C@_1CE@GAJNDCKG@?$AAc?$AAh?$AAi?$AAn?$AAe?$AAs?$AAe?$AA?9?$AAs?$AAi?$AAn?$AAg?$AAa?$AAp?$AAo@ 1005c39c     libucrt:get_qualified_locale.obj
 0002:000063c0       ??_C@_1CI@PAJPIOOD@?$AAc?$AAh?$AAi?$AAn?$AAe?$AAs?$AAe?$AA?9?$AAt?$AAr?$AAa?$AAd?$AAi?$AAt?$AAi@ 1005c3c0     libucrt:get_qualified_locale.obj
 0002:000063e8       ??_C@_1BM@NILJBMMD@?$AAd?$AAu?$AAt?$AAc?$AAh?$AA?9?$AAb?$AAe?$AAl?$AAg?$AAi?$AAa?$AAn@ 1005c3e8     libucrt:get_qualified_locale.obj
 0002:00006404       ??_C@_1CC@OOJPJNEJ@?$AAe?$AAn?$AAg?$AAl?$AAi?$AAs?$AAh?$AA?9?$AAa?$AAm?$AAe?$AAr?$AAi?$AAc?$AAa@ 1005c404     libucrt:get_qualified_locale.obj
 0002:00006428       ??_C@_1BI@IOLFEEM@?$AAe?$AAn?$AAg?$AAl?$AAi?$AAs?$AAh?$AA?9?$AAa?$AAu?$AAs@ 1005c428     libucrt:get_qualified_locale.obj
 0002:00006440       ??_C@_1BO@HFFNLENJ@?$AAe?$AAn?$AAg?$AAl?$AAi?$AAs?$AAh?$AA?9?$AAb?$AAe?$AAl?$AAi?$AAz?$AAe@ 1005c440     libucrt:get_qualified_locale.obj
 0002:00006460       ??_C@_1BI@HAPKJMPO@?$AAe?$AAn?$AAg?$AAl?$AAi?$AAs?$AAh?$AA?9?$AAc?$AAa?$AAn@ 1005c460     libucrt:get_qualified_locale.obj
 0002:00006478       ??_C@_1CE@HLNDMIOJ@?$AAe?$AAn?$AAg?$AAl?$AAi?$AAs?$AAh?$AA?9?$AAc?$AAa?$AAr?$AAi?$AAb?$AAb?$AAe@ 1005c478     libucrt:get_qualified_locale.obj
 0002:0000649c       ??_C@_1BI@LDHJHHAC@?$AAe?$AAn?$AAg?$AAl?$AAi?$AAs?$AAh?$AA?9?$AAi?$AAr?$AAe@ 1005c49c     libucrt:get_qualified_locale.obj
 0002:000064b4       ??_C@_1CA@NJMMCFOC@?$AAe?$AAn?$AAg?$AAl?$AAi?$AAs?$AAh?$AA?9?$AAj?$AAa?$AAm?$AAa?$AAi?$AAc?$AAa@ 1005c4b4     libucrt:get_qualified_locale.obj
 0002:000064d4       ??_C@_1BG@BHJEBBGG@?$AAe?$AAn?$AAg?$AAl?$AAi?$AAs?$AAh?$AA?9?$AAn?$AAz@ 1005c4d4     libucrt:get_qualified_locale.obj
 0002:000064ec       ??_C@_1CK@FGOEJJCO@?$AAe?$AAn?$AAg?$AAl?$AAi?$AAs?$AAh?$AA?9?$AAs?$AAo?$AAu?$AAt?$AAh?$AA?5?$AAa@ 1005c4ec     libucrt:get_qualified_locale.obj
 0002:00006518       ??_C@_1DE@PDBJPCJ@?$AAe?$AAn?$AAg?$AAl?$AAi?$AAs?$AAh?$AA?9?$AAt?$AAr?$AAi?$AAn?$AAi?$AAd?$AAa@ 1005c518     libucrt:get_qualified_locale.obj
 0002:0000654c       ??_C@_1BG@JGCANDME@?$AAe?$AAn?$AAg?$AAl?$AAi?$AAs?$AAh?$AA?9?$AAu?$AAk@ 1005c54c     libucrt:get_qualified_locale.obj
 0002:00006564       ??_C@_1BG@DINKMLE@?$AAe?$AAn?$AAg?$AAl?$AAi?$AAs?$AAh?$AA?9?$AAu?$AAs@ 1005c564     libucrt:get_qualified_locale.obj
 0002:0000657c       ??_C@_1BI@NMFDBHJE@?$AAe?$AAn?$AAg?$AAl?$AAi?$AAs?$AAh?$AA?9?$AAu?$AAs?$AAa@ 1005c57c     libucrt:get_qualified_locale.obj
 0002:00006594       ??_C@_1BO@OIHKJKII@?$AAf?$AAr?$AAe?$AAn?$AAc?$AAh?$AA?9?$AAb?$AAe?$AAl?$AAg?$AAi?$AAa?$AAn@ 1005c594     libucrt:get_qualified_locale.obj
 0002:000065b4       ??_C@_1CA@NKAELJKI@?$AAf?$AAr?$AAe?$AAn?$AAc?$AAh?$AA?9?$AAc?$AAa?$AAn?$AAa?$AAd?$AAi?$AAa?$AAn@ 1005c5b4     libucrt:get_qualified_locale.obj
 0002:000065d4       ??_C@_1CE@MGKCNLGN@?$AAf?$AAr?$AAe?$AAn?$AAc?$AAh?$AA?9?$AAl?$AAu?$AAx?$AAe?$AAm?$AAb?$AAo?$AAu@ 1005c5d4     libucrt:get_qualified_locale.obj
 0002:000065f8       ??_C@_1BK@CEGEAILM@?$AAf?$AAr?$AAe?$AAn?$AAc?$AAh?$AA?9?$AAs?$AAw?$AAi?$AAs?$AAs@ 1005c5f8     libucrt:get_qualified_locale.obj
 0002:00006614       ??_C@_1CA@PAFKEOCC@?$AAg?$AAe?$AAr?$AAm?$AAa?$AAn?$AA?9?$AAa?$AAu?$AAs?$AAt?$AAr?$AAi?$AAa?$AAn@ 1005c614     libucrt:get_qualified_locale.obj
